 QQDemo_d

 Timestamp is 51e77337 (Thu Jul 18 12:46:47 2013)

 Preferred load address is 00400000

 Start         Length     Name                   Class
 0001:00000000 0009c933H .text                   CODE
 0001:0009c940 00003dc6H .text$x                 CODE
 0001:000a0710 000015fbH .text$yc                CODE
 0001:000a1d10 00001170H .text$yd                CODE
 0002:00000000 00000104H .CRT$XCA                DATA
 0002:00000104 00000113H .CRT$XCC                DATA
 0002:00000218 00000190H .CRT$XCL                DATA
 0002:000003a8 00000113H .CRT$XCU                DATA
 0002:000004bc 00000104H .CRT$XCZ                DATA
 0002:000005c0 00000104H .CRT$XIA                DATA
 0002:000006c4 00000113H .CRT$XIC                DATA
 0002:000007d8 00000104H .CRT$XIY                DATA
 0002:000008dc 00000104H .CRT$XIZ                DATA
 0002:000009e0 00000104H .CRT$XPA                DATA
 0002:00000ae4 00000109H .CRT$XPX                DATA
 0002:00000bf0 00000104H .CRT$XPXA               DATA
 0002:00000cf4 00000104H .CRT$XPZ                DATA
 0002:00000df8 00000104H .CRT$XTA                DATA
 0002:00000efc 00000104H .CRT$XTZ                DATA
 0002:00001000 0001a6baH .rdata                  DATA
 0002:0001b6bc 0000014bH .rdata$debug            DATA
 0002:0001b808 000015d0H .rdata$r                DATA
 0002:0001cde0 000003d0H .rdata$sxdata           DATA
 0002:0001d1b0 00000104H .rtc$IAA                DATA
 0002:0001d2b4 00000139H .rtc$IMZ                DATA
 0002:0001d3f0 00000104H .rtc$IZZ                DATA
 0002:0001d4f4 00000104H .rtc$TAA                DATA
 0002:0001d5f8 00000139H .rtc$TMZ                DATA
 0002:0001d734 00000104H .rtc$TZZ                DATA
 0002:0001d838 000038f3H .xdata$x                DATA
 0002:0002112c 00000104H ATL$__a                 DATA
 0002:00021230 00000104H ATL$__z                 DATA
 0002:00021334 00000000H .edata                  DATA
 0003:00000000 0000232fH .data                   DATA
 0003:00002340 000026a8H .bss                    DATA
 0004:00000000 0000008cH .idata$2                DATA
 0004:0000008c 00000014H .idata$3                DATA
 0004:000000a0 00000934H .idata$4                DATA
 0004:000009d4 00000934H .idata$5                DATA
 0004:00001308 00004426H .idata$6                DATA
 0005:00000000 000001d3H .rsrc$01                DATA
 0005:000001e0 00219e29H .rsrc$02                DATA

  Address         Publics by Value              Rva+Base       Lib:Object

 0000:00000000       __except_list              00000000     <absolute>
 0000:00000096       ___safe_se_handler_count   00000096     <absolute>
 0000:00000000       ___ImageBase               00400000     <linker-defined>
 0001:00002420       ??0ChatDialog@@QAE@ABV?$basic_string@DU?$char_traits@D@std@@V?$allocator@D@2@@std@@KABUFriendListItemInfo@DuiLib@@1@Z 00403420 f   chat_dialog.obj
 0001:00002570       ??1ChatDialog@@UAE@XZ      00403570 f   chat_dialog.obj
 0001:00002660       ?GetWindowClassName@ChatDialog@@UBEPBDXZ 00403660 f   chat_dialog.obj
 0001:00002680       ?CreateControl@ChatDialog@@UAEPAVCControlUI@DuiLib@@PBD@Z 00403680 f   chat_dialog.obj
 0001:000026a0       ?OnFinalMessage@ChatDialog@@UAEXPAUHWND__@@@Z 004036a0 f   chat_dialog.obj
 0001:00002730       ?Receive@ChatDialog@@UAEHUSkinChangedParam@@@Z 00403730 f   chat_dialog.obj
 0001:000028d0       ?GetSkinFile@ChatDialog@@UAE?AV?$basic_string@DU?$char_traits@D@std@@V?$allocator@D@2@@std@@XZ 004038d0 f   chat_dialog.obj
 0001:00002920       ?GetSkinFolder@ChatDialog@@UAE?AV?$basic_string@DU?$char_traits@D@std@@V?$allocator@D@2@@std@@XZ 00403920 f   chat_dialog.obj
 0001:00002a40       ?OnClose@ChatDialog@@UAEJIIJAAH@Z 00403a40 f   chat_dialog.obj
 0001:00002a60       ?OnSetFocus@ChatDialog@@UAEJIIJAAH@Z 00403a60 f   chat_dialog.obj
 0001:00002a80       ?OnSysCommand@ChatDialog@@UAEJIIJAAH@Z 00403a80 f   chat_dialog.obj
 0001:00002c20       ?HandleMessage@ChatDialog@@UAEJIIJ@Z 00403c20 f   chat_dialog.obj
 0001:00002c60       ?ResponseDefaultKeyEvent@ChatDialog@@UAEJI@Z 00403c60 f   chat_dialog.obj
 0001:00002c90       ?OnTimer@ChatDialog@@IAEXAAUtagTNotifyUI@DuiLib@@@Z 00403c90 f   chat_dialog.obj
 0001:00002cb0       ?OnExit@ChatDialog@@IAEXAAUtagTNotifyUI@DuiLib@@@Z 00403cb0 f   chat_dialog.obj
 0001:00002cf0       ?Init@ChatDialog@@UAEXXZ   00403cf0 f   chat_dialog.obj
 0001:00002d10       ?OnPrepare@ChatDialog@@IAEXAAUtagTNotifyUI@DuiLib@@@Z 00403d10 f   chat_dialog.obj
 0001:00002fc0       ?GetCurrentTimeString@@YA?AV?$basic_string@DU?$char_traits@D@std@@V?$allocator@D@2@@std@@XZ 00403fc0 f   chat_dialog.obj
 0001:000030f0       ?SendMsg@ChatDialog@@QAEXXZ 004040f0 f   chat_dialog.obj
 0001:00003600       ?Notify@ChatDialog@@MAEXAAUtagTNotifyUI@DuiLib@@@Z 00404600 f   chat_dialog.obj
 0001:000045e0       ?SetTextColor@ChatDialog@@QAEXK@Z 004055e0 f   chat_dialog.obj
 0001:00004660       ?HandleCustomMessage@ChatDialog@@UAEJIIJAAH@Z 00405660 f   chat_dialog.obj
 0001:00004680       ?FontStyleChanged@ChatDialog@@AAEXXZ 00405680 f   chat_dialog.obj
 0001:00004f30       ??_EChatDialog@@UAEPAXI@Z  00405f30 f i chat_dialog.obj
 0001:00004f30       ??_GChatDialog@@UAEPAXI@Z  00405f30 f i chat_dialog.obj
 0001:00004f80       ??0FriendListItemInfo@DuiLib@@QAE@ABU01@@Z 00405f80 f i chat_dialog.obj
 0001:00005070       ??1FriendListItemInfo@DuiLib@@QAE@XZ 00406070 f i chat_dialog.obj
 0001:00005120       ??1SkinChangedParam@@QAE@XZ 00406120 f i chat_dialog.obj
 0001:00005150       __tcsicmp                  00406150 f i chat_dialog.obj
 0001:00005180       ??0?$basic_string@DU?$char_traits@D@std@@V?$allocator@D@2@@std@@QAE@ABV01@@Z 00406180 f i chat_dialog.obj
 0001:00005250       ??0?$basic_string@DU?$char_traits@D@std@@V?$allocator@D@2@@std@@QAE@PBD@Z 00406250 f i chat_dialog.obj
 0001:00005300       ??1?$basic_string@DU?$char_traits@D@std@@V?$allocator@D@2@@std@@QAE@XZ 00406300 f i chat_dialog.obj
 0001:00005390       ??4?$basic_string@DU?$char_traits@D@std@@V?$allocator@D@2@@std@@QAEAAV01@ABV01@@Z 00406390 f i chat_dialog.obj
 0001:000053d0       ??4?$basic_string@DU?$char_traits@D@std@@V?$allocator@D@2@@std@@QAEAAV01@PBD@Z 004063d0 f i chat_dialog.obj
 0001:00005410       ?c_str@?$basic_string@DU?$char_traits@D@std@@V?$allocator@D@2@@std@@QBEPBDXZ 00406410 f i chat_dialog.obj
 0001:00005440       ?empty@?$basic_string@DU?$char_traits@D@std@@V?$allocator@D@2@@std@@QBE_NXZ 00406440 f i chat_dialog.obj
 0001:00005470       ??0?$ReceiverImpl@HUSkinChangedParam@@@@QAE@XZ 00406470 f i chat_dialog.obj
 0001:000054d0       ??1?$ReceiverImpl@HUSkinChangedParam@@@@UAE@XZ 004064d0 f i chat_dialog.obj
 0001:00005510       ?AddObserver@?$ReceiverImpl@HUSkinChangedParam@@@@UAEXPAV?$ObserverImplBase@HUSkinChangedParam@@@@@Z 00406510 f i chat_dialog.obj
 0001:00005570       ?RemoveObserver@?$ReceiverImpl@HUSkinChangedParam@@@@UAEXXZ 00406570 f i chat_dialog.obj
 0001:000056d0       ?Receive@?$ReceiverImpl@HUSkinChangedParam@@@@UAEHUSkinChangedParam@@@Z 004066d0 f i chat_dialog.obj
 0001:00005760       ?Respond@?$ReceiverImpl@HUSkinChangedParam@@@@UAEHUSkinChangedParam@@PAV?$ObserverImplBase@HUSkinChangedParam@@@@@Z 00406760 f i chat_dialog.obj
 0001:000057f0       ??_E?$ReceiverImpl@HUSkinChangedParam@@@@UAEPAXI@Z 004067f0 f i chat_dialog.obj
 0001:000057f0       ??_G?$ReceiverImpl@HUSkinChangedParam@@@@UAEPAXI@Z 004067f0 f i chat_dialog.obj
 0001:00005840       ??0?$ReceiverImplBase@HUSkinChangedParam@@@@QAE@XZ 00406840 f i chat_dialog.obj
 0001:00005870       ??1?$map@HPAV?$ObserverImplBase@HUSkinChangedParam@@@@U?$less@H@std@@V?$allocator@U?$pair@$$CBHPAV?$ObserverImplBase@HUSkinChangedParam@@@@@std@@@3@@std@@QAE@XZ 00406870 f i chat_dialog.obj
 0001:000058a0       ??1?$_Tree_iterator@V?$_Tree_val@V?$_Tmap_traits@HPAV?$ObserverImplBase@HUSkinChangedParam@@@@U?$less@H@std@@V?$allocator@U?$pair@$$CBHPAV?$ObserverImplBase@HUSkinChangedParam@@@@@std@@@3@$0A@@std@@@std@@@std@@QAE@XZ 004068a0 f i chat_dialog.obj
 0001:000058d0       ??1?$_Tree_const_iterator@V?$_Tree_val@V?$_Tmap_traits@HPAV?$ObserverImplBase@HUSkinChangedParam@@@@U?$less@H@std@@V?$allocator@U?$pair@$$CBHPAV?$ObserverImplBase@HUSkinChangedParam@@@@@std@@@3@$0A@@std@@@std@@@std@@QAE@XZ 004068d0 f i chat_dialog.obj
 0001:00005900       ??1?$_Tree_unchecked_const_iterator@V?$_Tree_val@V?$_Tmap_traits@HPAV?$ObserverImplBase@HUSkinChangedParam@@@@U?$less@H@std@@V?$allocator@U?$pair@$$CBHPAV?$ObserverImplBase@HUSkinChangedParam@@@@@std@@@3@$0A@@std@@@std@@U_Iterator_base12@2@@std@@QAE@XZ 00406900 f i chat_dialog.obj
 0001:00005930       ??1?$_Iterator012@Ubidirectional_iterator_tag@std@@U?$pair@$$CBHPAV?$ObserverImplBase@HUSkinChangedParam@@@@@2@HPBU32@ABU32@U_Iterator_base12@2@@std@@QAE@XZ 00406930 f i chat_dialog.obj
 0001:00005960       ??1_Iterator_base12@std@@QAE@XZ 00406960 f i chat_dialog.obj
 0001:00005a30       ?_Orphan_me@_Iterator_base12@std@@QAEXXZ 00406a30 f i chat_dialog.obj
 0001:00005ae0       ?assign@?$basic_string@DU?$char_traits@D@std@@V?$allocator@D@2@@std@@QAEAAV12@ABV12@@Z 00406ae0 f i chat_dialog.obj
 0001:00005b20       ?assign@?$basic_string@DU?$char_traits@D@std@@V?$allocator@D@2@@std@@QAEAAV12@ABV12@II@Z 00406b20 f i chat_dialog.obj
 0001:00005c20       ?copy@?$char_traits@D@std@@SAPADPADPBDI@Z 00406c20 f i chat_dialog.obj
 0001:00005c50       ?size@?$basic_string@DU?$char_traits@D@std@@V?$allocator@D@2@@std@@QBEIXZ 00406c50 f i chat_dialog.obj
 0001:00005c70       ?assign@?$basic_string@DU?$char_traits@D@std@@V?$allocator@D@2@@std@@QAEAAV12@PBD@Z 00406c70 f i chat_dialog.obj
 0001:00005cd0       ?length@?$char_traits@D@std@@SAIPBD@Z 00406cd0 f i chat_dialog.obj
 0001:00005cf0       ?_Tidy@?$basic_string@DU?$char_traits@D@std@@V?$allocator@D@2@@std@@QAEX_NI@Z 00406cf0 f i chat_dialog.obj
 0001:00005db0       ?_Myptr@?$basic_string@DU?$char_traits@D@std@@V?$allocator@D@2@@std@@QBEPBDXZ 00406db0 f i chat_dialog.obj
 0001:00005e00       ??0?$_String_val@DV?$allocator@D@std@@@std@@QAE@V?$allocator@D@1@@Z 00406e00 f i chat_dialog.obj
 0001:00005f40       ??0_Container_proxy@std@@QAE@XZ 00406f40 f i chat_dialog.obj
 0001:00005f80       ??0_Container_base12@std@@QAE@XZ 00406f80 f i chat_dialog.obj
 0001:00005fb0       ??1_Container_base12@std@@QAE@XZ 00406fb0 f i chat_dialog.obj
 0001:00005fe0       ?_Orphan_all@_Container_base12@std@@QAEXXZ 00406fe0 f i chat_dialog.obj
 0001:000060c0       ??1?$_String_val@DV?$allocator@D@std@@@std@@QAE@XZ 004070c0 f i chat_dialog.obj
 0001:000061d0       ??0?$allocator@D@std@@QAE@XZ 004071d0 f i chat_dialog.obj
 0001:000061f0       ??0?$allocator@D@std@@QAE@ABV01@@Z 004071f0 f i chat_dialog.obj
 0001:00006210       ??0?$map@HPAV?$ObserverImplBase@HUSkinChangedParam@@@@U?$less@H@std@@V?$allocator@U?$pair@$$CBHPAV?$ObserverImplBase@HUSkinChangedParam@@@@@std@@@3@@std@@QAE@XZ 00407210 f i chat_dialog.obj
 0001:00006260       ??A?$map@HPAV?$ObserverImplBase@HUSkinChangedParam@@@@U?$less@H@std@@V?$allocator@U?$pair@$$CBHPAV?$ObserverImplBase@HUSkinChangedParam@@@@@std@@@3@@std@@QAEAAPAV?$ObserverImplBase@HUSkinChangedParam@@@@ABH@Z 00407260 f i chat_dialog.obj
 0001:00006480       ??1?$_Tree@V?$_Tmap_traits@HPAV?$ObserverImplBase@HUSkinChangedParam@@@@U?$less@H@std@@V?$allocator@U?$pair@$$CBHPAV?$ObserverImplBase@HUSkinChangedParam@@@@@std@@@3@$0A@@std@@@std@@QAE@XZ 00407480 f i chat_dialog.obj
 0001:00006500       ?begin@?$_Tree@V?$_Tmap_traits@HPAV?$ObserverImplBase@HUSkinChangedParam@@@@U?$less@H@std@@V?$allocator@U?$pair@$$CBHPAV?$ObserverImplBase@HUSkinChangedParam@@@@@std@@@3@$0A@@std@@@std@@QAE?AV?$_Tree_iterator@V?$_Tree_val@V?$_Tmap_traits@HPAV?$ObserverImplBase@HUSkinChangedParam@@@@U?$less@H@std@@V?$allocator@U?$pair@$$CBHPAV?$ObserverImplBase@HUSkinChangedParam@@@@@std@@@3@$0A@@std@@@std@@@2@XZ 00407500 f i chat_dialog.obj
 0001:00006570       ?end@?$_Tree@V?$_Tmap_traits@HPAV?$ObserverImplBase@HUSkinChangedParam@@@@U?$less@H@std@@V?$allocator@U?$pair@$$CBHPAV?$ObserverImplBase@HUSkinChangedParam@@@@@std@@@3@$0A@@std@@@std@@QAE?AV?$_Tree_iterator@V?$_Tree_val@V?$_Tmap_traits@HPAV?$ObserverImplBase@HUSkinChangedParam@@@@U?$less@H@std@@V?$allocator@U?$pair@$$CBHPAV?$ObserverImplBase@HUSkinChangedParam@@@@@std@@@3@$0A@@std@@@std@@@2@XZ 00407570 f i chat_dialog.obj
 0001:000065d0       ??C?$_Tree_iterator@V?$_Tree_val@V?$_Tmap_traits@HPAV?$ObserverImplBase@HUSkinChangedParam@@@@U?$less@H@std@@V?$allocator@U?$pair@$$CBHPAV?$ObserverImplBase@HUSkinChangedParam@@@@@std@@@3@$0A@@std@@@std@@@std@@QBEPAU?$pair@$$CBHPAV?$ObserverImplBase@HUSkinChangedParam@@@@@1@XZ 004075d0 f i chat_dialog.obj
 0001:00006600       ??E?$_Tree_iterator@V?$_Tree_val@V?$_Tmap_traits@HPAV?$ObserverImplBase@HUSkinChangedParam@@@@U?$less@H@std@@V?$allocator@U?$pair@$$CBHPAV?$ObserverImplBase@HUSkinChangedParam@@@@@std@@@3@$0A@@std@@@std@@@std@@QAEAAV01@XZ 00407600 f i chat_dialog.obj
 0001:00006630       ??9?$_Tree_const_iterator@V?$_Tree_val@V?$_Tmap_traits@HPAV?$ObserverImplBase@HUSkinChangedParam@@@@U?$less@H@std@@V?$allocator@U?$pair@$$CBHPAV?$ObserverImplBase@HUSkinChangedParam@@@@@std@@@3@$0A@@std@@@std@@@std@@QBE_NABV01@@Z 00407630 f i chat_dialog.obj
 0001:00006680       ??0?$_Tree_const_iterator@V?$_Tree_val@V?$_Tmap_traits@HPAV?$ObserverImplBase@HUSkinChangedParam@@@@U?$less@H@std@@V?$allocator@U?$pair@$$CBHPAV?$ObserverImplBase@HUSkinChangedParam@@@@@std@@@3@$0A@@std@@@std@@@std@@QAE@ABV01@@Z 00407680 f i chat_dialog.obj
 0001:000066c0       ??4?$_Tree_iterator@V?$_Tree_val@V?$_Tmap_traits@HPAV?$ObserverImplBase@HUSkinChangedParam@@@@U?$less@H@std@@V?$allocator@U?$pair@$$CBHPAV?$ObserverImplBase@HUSkinChangedParam@@@@@std@@@3@$0A@@std@@@std@@@std@@QAEAAV01@ABV01@@Z 004076c0 f i chat_dialog.obj
 0001:00006700       ??0?$_Tree_unchecked_const_iterator@V?$_Tree_val@V?$_Tmap_traits@HPAV?$ObserverImplBase@HUSkinChangedParam@@@@U?$less@H@std@@V?$allocator@U?$pair@$$CBHPAV?$ObserverImplBase@HUSkinChangedParam@@@@@std@@@3@$0A@@std@@@std@@U_Iterator_base12@2@@std@@QAE@ABV01@@Z 00407700 f i chat_dialog.obj
 0001:00006750       ??4?$_Tree_const_iterator@V?$_Tree_val@V?$_Tmap_traits@HPAV?$ObserverImplBase@HUSkinChangedParam@@@@U?$less@H@std@@V?$allocator@U?$pair@$$CBHPAV?$ObserverImplBase@HUSkinChangedParam@@@@@std@@@3@$0A@@std@@@std@@@std@@QAEAAV01@ABV01@@Z 00407750 f i chat_dialog.obj
 0001:00006790       ??0?$_Iterator012@Ubidirectional_iterator_tag@std@@U?$pair@$$CBHPAV?$ObserverImplBase@HUSkinChangedParam@@@@@2@HPBU32@ABU32@U_Iterator_base12@2@@std@@QAE@ABU01@@Z 00407790 f i chat_dialog.obj
 0001:000067d0       ??0_Iterator_base12@std@@QAE@ABU01@@Z 004077d0 f i chat_dialog.obj
 0001:00006820       ??4_Iterator_base12@std@@QAEAAU01@ABU01@@Z 00407820 f i chat_dialog.obj
 0001:00006870       ?_Adopt@_Iterator_base12@std@@QAEXPBU_Container_base12@2@@Z 00407870 f i chat_dialog.obj
 0001:00006990       ??4?$_Tree_unchecked_const_iterator@V?$_Tree_val@V?$_Tmap_traits@HPAV?$ObserverImplBase@HUSkinChangedParam@@@@U?$less@H@std@@V?$allocator@U?$pair@$$CBHPAV?$ObserverImplBase@HUSkinChangedParam@@@@@std@@@3@$0A@@std@@@std@@U_Iterator_base12@2@@std@@QAEAAV01@ABV01@@Z 00407990 f i chat_dialog.obj
 0001:000069e0       ??4?$_Iterator012@Ubidirectional_iterator_tag@std@@U?$pair@$$CBHPAV?$ObserverImplBase@HUSkinChangedParam@@@@@2@HPBU32@ABU32@U_Iterator_base12@2@@std@@QAEAAU01@ABU01@@Z 004079e0 f i chat_dialog.obj
 0001:00006a20       ?assign@?$basic_string@DU?$char_traits@D@std@@V?$allocator@D@2@@std@@QAEAAV12@PBDI@Z 00407a20 f i chat_dialog.obj
 0001:00006b00       ?erase@?$basic_string@DU?$char_traits@D@std@@V?$allocator@D@2@@std@@QAEAAV12@II@Z 00407b00 f i chat_dialog.obj
 0001:00006bd0       ?move@?$char_traits@D@std@@SAPADPADPBDI@Z 00407bd0 f i chat_dialog.obj
 0001:00006c00       ?_Eos@?$basic_string@DU?$char_traits@D@std@@V?$allocator@D@2@@std@@QAEXI@Z 00407c00 f i chat_dialog.obj
 0001:00006c60       ?assign@?$char_traits@D@std@@SAXAADABD@Z 00407c60 f i chat_dialog.obj
 0001:00006c80       ?_Grow@?$basic_string@DU?$char_traits@D@std@@V?$allocator@D@2@@std@@QAE_NI_N@Z 00407c80 f i chat_dialog.obj
 0001:00006d60       ?_Myptr@?$basic_string@DU?$char_traits@D@std@@V?$allocator@D@2@@std@@QAEPADXZ 00407d60 f i chat_dialog.obj
 0001:00006db0       ?_Xran@?$basic_string@DU?$char_traits@D@std@@V?$allocator@D@2@@std@@QBEXXZ 00407db0 f i chat_dialog.obj
 0001:00006de0       ?deallocate@?$allocator@D@std@@QAEXPADI@Z 00407de0 f i chat_dialog.obj
 0001:00006e20       ??0?$_Tree@V?$_Tmap_traits@HPAV?$ObserverImplBase@HUSkinChangedParam@@@@U?$less@H@std@@V?$allocator@U?$pair@$$CBHPAV?$ObserverImplBase@HUSkinChangedParam@@@@@std@@@3@$0A@@std@@@std@@QAE@ABU?$less@H@1@ABV?$allocator@U?$pair@$$CBHPAV?$ObserverImplBase@HUSkinChangedParam@@@@@std@@@1@@Z 00407e20 f i chat_dialog.obj
 0001:00006e80       ?lower_bound@?$_Tree@V?$_Tmap_traits@HPAV?$ObserverImplBase@HUSkinChangedParam@@@@U?$less@H@std@@V?$allocator@U?$pair@$$CBHPAV?$ObserverImplBase@HUSkinChangedParam@@@@@std@@@3@$0A@@std@@@std@@QAE?AV?$_Tree_iterator@V?$_Tree_val@V?$_Tmap_traits@HPAV?$ObserverImplBase@HUSkinChangedParam@@@@U?$less@H@std@@V?$allocator@U?$pair@$$CBHPAV?$ObserverImplBase@HUSkinChangedParam@@@@@std@@@3@$0A@@std@@@std@@@2@ABH@Z 00407e80 f i chat_dialog.obj
 0001:00006ef0       ?_Lmost@?$_Tree@V?$_Tmap_traits@HPAV?$ObserverImplBase@HUSkinChangedParam@@@@U?$less@H@std@@V?$allocator@U?$pair@$$CBHPAV?$ObserverImplBase@HUSkinChangedParam@@@@@std@@@3@$0A@@std@@@std@@IBEAAPAU_Node@?$_Tree_nod@V?$_Tmap_traits@HPAV?$ObserverImplBase@HUSkinChangedParam@@@@U?$less@H@std@@V?$allocator@U?$pair@$$CBHPAV?$ObserverImplBase@HUSkinChangedParam@@@@@std@@@3@$0A@@std@@@2@XZ 00407ef0 f i chat_dialog.obj
 0001:00006f30       ?_Tidy@?$_Tree@V?$_Tmap_traits@HPAV?$ObserverImplBase@HUSkinChangedParam@@@@U?$less@H@std@@V?$allocator@U?$pair@$$CBHPAV?$ObserverImplBase@HUSkinChangedParam@@@@@std@@@3@$0A@@std@@@std@@IAEXXZ 00407f30 f i chat_dialog.obj
 0001:00007060       ??1?$_Tree_val@V?$_Tmap_traits@HPAV?$ObserverImplBase@HUSkinChangedParam@@@@U?$less@H@std@@V?$allocator@U?$pair@$$CBHPAV?$ObserverImplBase@HUSkinChangedParam@@@@@std@@@3@$0A@@std@@@std@@QAE@XZ 00408060 f i chat_dialog.obj
 0001:000070f0       ?_Key@?$_Tree_val@V?$_Tmap_traits@HPAV?$ObserverImplBase@HUSkinChangedParam@@@@U?$less@H@std@@V?$allocator@U?$pair@$$CBHPAV?$ObserverImplBase@HUSkinChangedParam@@@@@std@@@3@$0A@@std@@@std@@SAAAHPAU_Node@?$_Tree_nod@V?$_Tmap_traits@HPAV?$ObserverImplBase@HUSkinChangedParam@@@@U?$less@H@std@@V?$allocator@U?$pair@$$CBHPAV?$ObserverImplBase@HUSkinChangedParam@@@@@std@@@3@$0A@@std@@@2@@Z 004080f0 f i chat_dialog.obj
 0001:00007120       ??0?$allocator@U?$pair@$$CBHPAV?$ObserverImplBase@HUSkinChangedParam@@@@@std@@@std@@QAE@XZ 00408120 f i chat_dialog.obj
 0001:00007140       ??R?$less@H@std@@QBE_NABH0@Z 00408140 f i chat_dialog.obj
 0001:00007170       ??0?$_Tree_iterator@V?$_Tree_val@V?$_Tmap_traits@HPAV?$ObserverImplBase@HUSkinChangedParam@@@@U?$less@H@std@@V?$allocator@U?$pair@$$CBHPAV?$ObserverImplBase@HUSkinChangedParam@@@@@std@@@3@$0A@@std@@@std@@@std@@QAE@PAU_Node@?$_Tree_nod@V?$_Tmap_traits@HPAV?$ObserverImplBase@HUSkinChangedParam@@@@U?$less@H@std@@V?$allocator@U?$pair@$$CBHPAV?$ObserverImplBase@HUSkinChangedParam@@@@@std@@@3@$0A@@std@@@1@PBV?$_Tree_val@V?$_Tmap_traits@HPAV?$ObserverImplBase@HUSkinChangedParam@@@@U?$less@H@std@@V?$allocator@U?$pair@$$CBHPAV?$ObserverImplBase@HUSkinChangedParam@@@@@std@@@3@$0A@@std@@@1@@Z 00408170 f i chat_dialog.obj
 0001:000071b0       ??D?$_Tree_iterator@V?$_Tree_val@V?$_Tmap_traits@HPAV?$ObserverImplBase@HUSkinChangedParam@@@@U?$less@H@std@@V?$allocator@U?$pair@$$CBHPAV?$ObserverImplBase@HUSkinChangedParam@@@@@std@@@3@$0A@@std@@@std@@@std@@QBEAAU?$pair@$$CBHPAV?$ObserverImplBase@HUSkinChangedParam@@@@@1@XZ 004081b0 f i chat_dialog.obj
 0001:000071e0       ??E?$_Tree_const_iterator@V?$_Tree_val@V?$_Tmap_traits@HPAV?$ObserverImplBase@HUSkinChangedParam@@@@U?$less@H@std@@V?$allocator@U?$pair@$$CBHPAV?$ObserverImplBase@HUSkinChangedParam@@@@@std@@@3@$0A@@std@@@std@@@std@@QAEAAV01@XZ 004081e0 f i chat_dialog.obj
 0001:000072d0       ?_Getcont@_Iterator_base12@std@@QBEPBU_Container_base12@2@XZ 004082d0 f i chat_dialog.obj
 0001:00007320       ??8?$_Tree_const_iterator@V?$_Tree_val@V?$_Tmap_traits@HPAV?$ObserverImplBase@HUSkinChangedParam@@@@U?$less@H@std@@V?$allocator@U?$pair@$$CBHPAV?$ObserverImplBase@HUSkinChangedParam@@@@@std@@@3@$0A@@std@@@std@@@std@@QBE_NABV01@@Z 00408320 f i chat_dialog.obj
 0001:00007410       ?_Mynode@?$_Tree_unchecked_const_iterator@V?$_Tree_val@V?$_Tmap_traits@HPAV?$ObserverImplBase@HUSkinChangedParam@@@@U?$less@H@std@@V?$allocator@U?$pair@$$CBHPAV?$ObserverImplBase@HUSkinChangedParam@@@@@std@@@3@$0A@@std@@@std@@U_Iterator_base12@2@@std@@QBEPAU_Node@?$_Tree_nod@V?$_Tmap_traits@HPAV?$ObserverImplBase@HUSkinChangedParam@@@@U?$less@H@std@@V?$allocator@U?$pair@$$CBHPAV?$ObserverImplBase@HUSkinChangedParam@@@@@std@@@3@$0A@@std@@@2@XZ 00408410 f i chat_dialog.obj
 0001:00007430       ??0?$pair@$$CBHPAV?$ObserverImplBase@HUSkinChangedParam@@@@@std@@QAE@ABH$$QAPAV?$ObserverImplBase@HUSkinChangedParam@@@@@Z 00408430 f i chat_dialog.obj
 0001:00007480       ?deallocate@?$allocator@U_Container_proxy@std@@@std@@QAEXPAU_Container_proxy@2@I@Z 00408480 f i chat_dialog.obj
 0001:000074c0       ?allocate@?$allocator@U_Container_proxy@std@@@std@@QAEPAU_Container_proxy@2@I@Z 004084c0 f i chat_dialog.obj
 0001:00007500       ?max_size@?$basic_string@DU?$char_traits@D@std@@V?$allocator@D@2@@std@@QBEIXZ 00408500 f i chat_dialog.obj
 0001:00007570       ?_Copy@?$basic_string@DU?$char_traits@D@std@@V?$allocator@D@2@@std@@QAEXII@Z 00408570 f i chat_dialog.obj
 0001:00007780       ?_Inside@?$basic_string@DU?$char_traits@D@std@@V?$allocator@D@2@@std@@QAE_NPBD@Z 00408780 f i chat_dialog.obj
 0001:000077e0       ?_Xlen@?$basic_string@DU?$char_traits@D@std@@V?$allocator@D@2@@std@@QBEXXZ 004087e0 f i chat_dialog.obj
 0001:00007810       ?erase@?$_Tree@V?$_Tmap_traits@HPAV?$ObserverImplBase@HUSkinChangedParam@@@@U?$less@H@std@@V?$allocator@U?$pair@$$CBHPAV?$ObserverImplBase@HUSkinChangedParam@@@@@std@@@3@$0A@@std@@@std@@QAE?AV?$_Tree_iterator@V?$_Tree_val@V?$_Tmap_traits@HPAV?$ObserverImplBase@HUSkinChangedParam@@@@U?$less@H@std@@V?$allocator@U?$pair@$$CBHPAV?$ObserverImplBase@HUSkinChangedParam@@@@@std@@@3@$0A@@std@@@std@@@2@V?$_Tree_const_iterator@V?$_Tree_val@V?$_Tmap_traits@HPAV?$ObserverImplBase@HUSkinChangedParam@@@@U?$less@H@std@@V?$allocator@U?$pair@$$CBHPAV?$ObserverImplBase@HUSkinChangedParam@@@@@std@@@3@$0A@@std@@@std@@@2@0@Z 00408810 f i chat_dialog.obj
 0001:00007a90       ?_Lbound@?$_Tree@V?$_Tmap_traits@HPAV?$ObserverImplBase@HUSkinChangedParam@@@@U?$less@H@std@@V?$allocator@U?$pair@$$CBHPAV?$ObserverImplBase@HUSkinChangedParam@@@@@std@@@3@$0A@@std@@@std@@IAEPAU_Node@?$_Tree_nod@V?$_Tmap_traits@HPAV?$ObserverImplBase@HUSkinChangedParam@@@@U?$less@H@std@@V?$allocator@U?$pair@$$CBHPAV?$ObserverImplBase@HUSkinChangedParam@@@@@std@@@3@$0A@@std@@@2@ABH@Z 00408a90 f i chat_dialog.obj
 0001:00007b80       ??0?$_Tree_val@V?$_Tmap_traits@HPAV?$ObserverImplBase@HUSkinChangedParam@@@@U?$less@H@std@@V?$allocator@U?$pair@$$CBHPAV?$ObserverImplBase@HUSkinChangedParam@@@@@std@@@3@$0A@@std@@@std@@QAE@ABU?$less@H@1@V?$allocator@U?$pair@$$CBHPAV?$ObserverImplBase@HUSkinChangedParam@@@@@std@@@1@@Z 00408b80 f i chat_dialog.obj
 0001:00007cd0       ?_Isnil@?$_Tree_val@V?$_Tmap_traits@HPAV?$ObserverImplBase@HUSkinChangedParam@@@@U?$less@H@std@@V?$allocator@U?$pair@$$CBHPAV?$ObserverImplBase@HUSkinChangedParam@@@@@std@@@3@$0A@@std@@@std@@SAAADPAU_Node@?$_Tree_nod@V?$_Tmap_traits@HPAV?$ObserverImplBase@HUSkinChangedParam@@@@U?$less@H@std@@V?$allocator@U?$pair@$$CBHPAV?$ObserverImplBase@HUSkinChangedParam@@@@@std@@@3@$0A@@std@@@2@@Z 00408cd0 f i chat_dialog.obj
 0001:00007ce0       ?_Left@?$_Tree_val@V?$_Tmap_traits@HPAV?$ObserverImplBase@HUSkinChangedParam@@@@U?$less@H@std@@V?$allocator@U?$pair@$$CBHPAV?$ObserverImplBase@HUSkinChangedParam@@@@@std@@@3@$0A@@std@@@std@@SAAAPAU_Node@?$_Tree_nod@V?$_Tmap_traits@HPAV?$ObserverImplBase@HUSkinChangedParam@@@@U?$less@H@std@@V?$allocator@U?$pair@$$CBHPAV?$ObserverImplBase@HUSkinChangedParam@@@@@std@@@3@$0A@@std@@@2@PAU342@@Z 00408ce0 f i chat_dialog.obj
 0001:00007cf0       ?_Myval@?$_Tree_val@V?$_Tmap_traits@HPAV?$ObserverImplBase@HUSkinChangedParam@@@@U?$less@H@std@@V?$allocator@U?$pair@$$CBHPAV?$ObserverImplBase@HUSkinChangedParam@@@@@std@@@3@$0A@@std@@@std@@SAAAU?$pair@$$CBHPAV?$ObserverImplBase@HUSkinChangedParam@@@@@2@PAU_Node@?$_Tree_nod@V?$_Tmap_traits@HPAV?$ObserverImplBase@HUSkinChangedParam@@@@U?$less@H@std@@V?$allocator@U?$pair@$$CBHPAV?$ObserverImplBase@HUSkinChangedParam@@@@@std@@@3@$0A@@std@@@2@@Z 00408cf0 f i chat_dialog.obj
 0001:00007d00       ??1?$_Tree_nod@V?$_Tmap_traits@HPAV?$ObserverImplBase@HUSkinChangedParam@@@@U?$less@H@std@@V?$allocator@U?$pair@$$CBHPAV?$ObserverImplBase@HUSkinChangedParam@@@@@std@@@3@$0A@@std@@@std@@QAE@XZ 00408d00 f i chat_dialog.obj
 0001:00007e10       ??0?$allocator@U?$pair@$$CBHPAV?$ObserverImplBase@HUSkinChangedParam@@@@@std@@@std@@QAE@ABV01@@Z 00408e10 f i chat_dialog.obj
 0001:00007e30       ?deallocate@?$allocator@U_Node@?$_Tree_nod@V?$_Tmap_traits@HPAV?$ObserverImplBase@HUSkinChangedParam@@@@U?$less@H@std@@V?$allocator@U?$pair@$$CBHPAV?$ObserverImplBase@HUSkinChangedParam@@@@@std@@@3@$0A@@std@@@std@@@std@@QAEXPAU_Node@?$_Tree_nod@V?$_Tmap_traits@HPAV?$ObserverImplBase@HUSkinChangedParam@@@@U?$less@H@std@@V?$allocator@U?$pair@$$CBHPAV?$ObserverImplBase@HUSkinChangedParam@@@@@std@@@3@$0A@@std@@@2@I@Z 00408e30 f i chat_dialog.obj
 0001:00007e70       ??0?$_Tree_const_iterator@V?$_Tree_val@V?$_Tmap_traits@HPAV?$ObserverImplBase@HUSkinChangedParam@@@@U?$less@H@std@@V?$allocator@U?$pair@$$CBHPAV?$ObserverImplBase@HUSkinChangedParam@@@@@std@@@3@$0A@@std@@@std@@@std@@QAE@PAU_Node@?$_Tree_nod@V?$_Tmap_traits@HPAV?$ObserverImplBase@HUSkinChangedParam@@@@U?$less@H@std@@V?$allocator@U?$pair@$$CBHPAV?$ObserverImplBase@HUSkinChangedParam@@@@@std@@@3@$0A@@std@@@1@PBV?$_Tree_val@V?$_Tmap_traits@HPAV?$ObserverImplBase@HUSkinChangedParam@@@@U?$less@H@std@@V?$allocator@U?$pair@$$CBHPAV?$ObserverImplBase@HUSkinChangedParam@@@@@std@@@3@$0A@@std@@@1@@Z 00408e70 f i chat_dialog.obj
 0001:00007eb0       ??D?$_Tree_const_iterator@V?$_Tree_val@V?$_Tmap_traits@HPAV?$ObserverImplBase@HUSkinChangedParam@@@@U?$less@H@std@@V?$allocator@U?$pair@$$CBHPAV?$ObserverImplBase@HUSkinChangedParam@@@@@std@@@3@$0A@@std@@@std@@@std@@QBEABU?$pair@$$CBHPAV?$ObserverImplBase@HUSkinChangedParam@@@@@1@XZ 00408eb0 f i chat_dialog.obj
 0001:00007fa0       ??E?$_Tree_unchecked_const_iterator@V?$_Tree_val@V?$_Tmap_traits@HPAV?$ObserverImplBase@HUSkinChangedParam@@@@U?$less@H@std@@V?$allocator@U?$pair@$$CBHPAV?$ObserverImplBase@HUSkinChangedParam@@@@@std@@@3@$0A@@std@@@std@@U_Iterator_base12@2@@std@@QAEAAV01@XZ 00408fa0 f i chat_dialog.obj
 0001:000080b0       ??0?$_Pair_base@$$CBHPAV?$ObserverImplBase@HUSkinChangedParam@@@@@std@@QAE@ABH$$QAPAV?$ObserverImplBase@HUSkinChangedParam@@@@@Z 004090b0 f i chat_dialog.obj
 0001:00008100       ??1?$_Tmap_traits@HPAV?$ObserverImplBase@HUSkinChangedParam@@@@U?$less@H@std@@V?$allocator@U?$pair@$$CBHPAV?$ObserverImplBase@HUSkinChangedParam@@@@@std@@@3@$0A@@std@@QAE@XZ 00409100 f i chat_dialog.obj
 0001:00008130       ?allocate@?$allocator@D@std@@QAEPADI@Z 00409130 f i chat_dialog.obj
 0001:00008170       ?max_size@?$allocator@D@std@@QBEIXZ 00409170 f i chat_dialog.obj
 0001:000081d0       ?erase@?$_Tree@V?$_Tmap_traits@HPAV?$ObserverImplBase@HUSkinChangedParam@@@@U?$less@H@std@@V?$allocator@U?$pair@$$CBHPAV?$ObserverImplBase@HUSkinChangedParam@@@@@std@@@3@$0A@@std@@@std@@QAE?AV?$_Tree_iterator@V?$_Tree_val@V?$_Tmap_traits@HPAV?$ObserverImplBase@HUSkinChangedParam@@@@U?$less@H@std@@V?$allocator@U?$pair@$$CBHPAV?$ObserverImplBase@HUSkinChangedParam@@@@@std@@@3@$0A@@std@@@std@@@2@V?$_Tree_const_iterator@V?$_Tree_val@V?$_Tmap_traits@HPAV?$ObserverImplBase@HUSkinChangedParam@@@@U?$less@H@std@@V?$allocator@U?$pair@$$CBHPAV?$ObserverImplBase@HUSkinChangedParam@@@@@std@@@3@$0A@@std@@@std@@@2@@Z 004091d0 f i chat_dialog.obj
 0001:00008c00       ?clear@?$_Tree@V?$_Tmap_traits@HPAV?$ObserverImplBase@HUSkinChangedParam@@@@U?$less@H@std@@V?$allocator@U?$pair@$$CBHPAV?$ObserverImplBase@HUSkinChangedParam@@@@@std@@@3@$0A@@std@@@std@@QAEXXZ 00409c00 f i chat_dialog.obj
 0001:00008ca0       ?_Root@?$_Tree@V?$_Tmap_traits@HPAV?$ObserverImplBase@HUSkinChangedParam@@@@U?$less@H@std@@V?$allocator@U?$pair@$$CBHPAV?$ObserverImplBase@HUSkinChangedParam@@@@@std@@@3@$0A@@std@@@std@@IBEAAPAU_Node@?$_Tree_nod@V?$_Tmap_traits@HPAV?$ObserverImplBase@HUSkinChangedParam@@@@U?$less@H@std@@V?$allocator@U?$pair@$$CBHPAV?$ObserverImplBase@HUSkinChangedParam@@@@@std@@@3@$0A@@std@@@2@XZ 00409ca0 f i chat_dialog.obj
 0001:00008ce0       ?_Color@?$_Tree_val@V?$_Tmap_traits@HPAV?$ObserverImplBase@HUSkinChangedParam@@@@U?$less@H@std@@V?$allocator@U?$pair@$$CBHPAV?$ObserverImplBase@HUSkinChangedParam@@@@@std@@@3@$0A@@std@@@std@@SAAADPAU_Node@?$_Tree_nod@V?$_Tmap_traits@HPAV?$ObserverImplBase@HUSkinChangedParam@@@@U?$less@H@std@@V?$allocator@U?$pair@$$CBHPAV?$ObserverImplBase@HUSkinChangedParam@@@@@std@@@3@$0A@@std@@@2@@Z 00409ce0 f i chat_dialog.obj
 0001:00008cf0       ?_Parent@?$_Tree_val@V?$_Tmap_traits@HPAV?$ObserverImplBase@HUSkinChangedParam@@@@U?$less@H@std@@V?$allocator@U?$pair@$$CBHPAV?$ObserverImplBase@HUSkinChangedParam@@@@@std@@@3@$0A@@std@@@std@@SAAAPAU_Node@?$_Tree_nod@V?$_Tmap_traits@HPAV?$ObserverImplBase@HUSkinChangedParam@@@@U?$less@H@std@@V?$allocator@U?$pair@$$CBHPAV?$ObserverImplBase@HUSkinChangedParam@@@@@std@@@3@$0A@@std@@@2@PAU342@@Z 00409cf0 f i chat_dialog.obj
 0001:00008d00       ?_Right@?$_Tree_val@V?$_Tmap_traits@HPAV?$ObserverImplBase@HUSkinChangedParam@@@@U?$less@H@std@@V?$allocator@U?$pair@$$CBHPAV?$ObserverImplBase@HUSkinChangedParam@@@@@std@@@3@$0A@@std@@@std@@SAAAPAU_Node@?$_Tree_nod@V?$_Tmap_traits@HPAV?$ObserverImplBase@HUSkinChangedParam@@@@U?$less@H@std@@V?$allocator@U?$pair@$$CBHPAV?$ObserverImplBase@HUSkinChangedParam@@@@@std@@@3@$0A@@std@@@2@PAU342@@Z 00409d00 f i chat_dialog.obj
 0001:00008d10       ?_Min@?$_Tree_val@V?$_Tmap_traits@HPAV?$ObserverImplBase@HUSkinChangedParam@@@@U?$less@H@std@@V?$allocator@U?$pair@$$CBHPAV?$ObserverImplBase@HUSkinChangedParam@@@@@std@@@3@$0A@@std@@@std@@SAPAU_Node@?$_Tree_nod@V?$_Tmap_traits@HPAV?$ObserverImplBase@HUSkinChangedParam@@@@U?$less@H@std@@V?$allocator@U?$pair@$$CBHPAV?$ObserverImplBase@HUSkinChangedParam@@@@@std@@@3@$0A@@std@@@2@PAU342@@Z 00409d10 f i chat_dialog.obj
 0001:00008d60       ??0?$_Tree_nod@V?$_Tmap_traits@HPAV?$ObserverImplBase@HUSkinChangedParam@@@@U?$less@H@std@@V?$allocator@U?$pair@$$CBHPAV?$ObserverImplBase@HUSkinChangedParam@@@@@std@@@3@$0A@@std@@@std@@QAE@ABU?$less@H@1@V?$allocator@U?$pair@$$CBHPAV?$ObserverImplBase@HUSkinChangedParam@@@@@std@@@1@@Z 00409d60 f i chat_dialog.obj
 0001:00008eb0       ?allocate@?$allocator@U_Node@?$_Tree_nod@V?$_Tmap_traits@HPAV?$ObserverImplBase@HUSkinChangedParam@@@@U?$less@H@std@@V?$allocator@U?$pair@$$CBHPAV?$ObserverImplBase@HUSkinChangedParam@@@@@std@@@3@$0A@@std@@@std@@@std@@QAEPAU_Node@?$_Tree_nod@V?$_Tmap_traits@HPAV?$ObserverImplBase@HUSkinChangedParam@@@@U?$less@H@std@@V?$allocator@U?$pair@$$CBHPAV?$ObserverImplBase@HUSkinChangedParam@@@@@std@@@3@$0A@@std@@@2@I@Z 00409eb0 f i chat_dialog.obj
 0001:00008ef0       ??E?$_Tree_const_iterator@V?$_Tree_val@V?$_Tmap_traits@HPAV?$ObserverImplBase@HUSkinChangedParam@@@@U?$less@H@std@@V?$allocator@U?$pair@$$CBHPAV?$ObserverImplBase@HUSkinChangedParam@@@@@std@@@3@$0A@@std@@@std@@@std@@QAE?AV01@H@Z 00409ef0 f i chat_dialog.obj
 0001:00008ff0       ??0?$_Tree_unchecked_const_iterator@V?$_Tree_val@V?$_Tmap_traits@HPAV?$ObserverImplBase@HUSkinChangedParam@@@@U?$less@H@std@@V?$allocator@U?$pair@$$CBHPAV?$ObserverImplBase@HUSkinChangedParam@@@@@std@@@3@$0A@@std@@@std@@U_Iterator_base12@2@@std@@QAE@PAU_Node@?$_Tree_nod@V?$_Tmap_traits@HPAV?$ObserverImplBase@HUSkinChangedParam@@@@U?$less@H@std@@V?$allocator@U?$pair@$$CBHPAV?$ObserverImplBase@HUSkinChangedParam@@@@@std@@@3@$0A@@std@@@1@PBV?$_Tree_val@V?$_Tmap_traits@HPAV?$ObserverImplBase@HUSkinChangedParam@@@@U?$less@H@std@@V?$allocator@U?$pair@$$CBHPAV?$ObserverImplBase@HUSkinChangedParam@@@@@std@@@3@$0A@@std@@@1@@Z 00409ff0 f i chat_dialog.obj
 0001:00009090       ??0?$_Iterator012@Ubidirectional_iterator_tag@std@@U?$pair@$$CBHPAV?$ObserverImplBase@HUSkinChangedParam@@@@@2@HPBU32@ABU32@U_Iterator_base12@2@@std@@QAE@XZ 0040a090 f i chat_dialog.obj
 0001:000090c0       ??0_Iterator_base12@std@@QAE@XZ 0040a0c0 f i chat_dialog.obj
 0001:00009100       ?_Erase@?$_Tree@V?$_Tmap_traits@HPAV?$ObserverImplBase@HUSkinChangedParam@@@@U?$less@H@std@@V?$allocator@U?$pair@$$CBHPAV?$ObserverImplBase@HUSkinChangedParam@@@@@std@@@3@$0A@@std@@@std@@IAEXPAU_Node@?$_Tree_nod@V?$_Tmap_traits@HPAV?$ObserverImplBase@HUSkinChangedParam@@@@U?$less@H@std@@V?$allocator@U?$pair@$$CBHPAV?$ObserverImplBase@HUSkinChangedParam@@@@@std@@@3@$0A@@std@@@2@@Z 0040a100 f i chat_dialog.obj
 0001:000091e0       ?_Lrotate@?$_Tree@V?$_Tmap_traits@HPAV?$ObserverImplBase@HUSkinChangedParam@@@@U?$less@H@std@@V?$allocator@U?$pair@$$CBHPAV?$ObserverImplBase@HUSkinChangedParam@@@@@std@@@3@$0A@@std@@@std@@IAEXPAU_Node@?$_Tree_nod@V?$_Tmap_traits@HPAV?$ObserverImplBase@HUSkinChangedParam@@@@U?$less@H@std@@V?$allocator@U?$pair@$$CBHPAV?$ObserverImplBase@HUSkinChangedParam@@@@@std@@@3@$0A@@std@@@2@@Z 0040a1e0 f i chat_dialog.obj
 0001:00009380       ?_Rmost@?$_Tree@V?$_Tmap_traits@HPAV?$ObserverImplBase@HUSkinChangedParam@@@@U?$less@H@std@@V?$allocator@U?$pair@$$CBHPAV?$ObserverImplBase@HUSkinChangedParam@@@@@std@@@3@$0A@@std@@@std@@IBEAAPAU_Node@?$_Tree_nod@V?$_Tmap_traits@HPAV?$ObserverImplBase@HUSkinChangedParam@@@@U?$less@H@std@@V?$allocator@U?$pair@$$CBHPAV?$ObserverImplBase@HUSkinChangedParam@@@@@std@@@3@$0A@@std@@@2@XZ 0040a380 f i chat_dialog.obj
 0001:000093c0       ?_Rrotate@?$_Tree@V?$_Tmap_traits@HPAV?$ObserverImplBase@HUSkinChangedParam@@@@U?$less@H@std@@V?$allocator@U?$pair@$$CBHPAV?$ObserverImplBase@HUSkinChangedParam@@@@@std@@@3@$0A@@std@@@std@@IAEXPAU_Node@?$_Tree_nod@V?$_Tmap_traits@HPAV?$ObserverImplBase@HUSkinChangedParam@@@@U?$less@H@std@@V?$allocator@U?$pair@$$CBHPAV?$ObserverImplBase@HUSkinChangedParam@@@@@std@@@3@$0A@@std@@@2@@Z 0040a3c0 f i chat_dialog.obj
 0001:00009560       ?_Orphan_ptr@?$_Tree@V?$_Tmap_traits@HPAV?$ObserverImplBase@HUSkinChangedParam@@@@U?$less@H@std@@V?$allocator@U?$pair@$$CBHPAV?$ObserverImplBase@HUSkinChangedParam@@@@@std@@@3@$0A@@std@@@std@@IBEXAAV12@PAU_Node@?$_Tree_nod@V?$_Tmap_traits@HPAV?$ObserverImplBase@HUSkinChangedParam@@@@U?$less@H@std@@V?$allocator@U?$pair@$$CBHPAV?$ObserverImplBase@HUSkinChangedParam@@@@@std@@@3@$0A@@std@@@2@@Z 0040a560 f i chat_dialog.obj
 0001:000096b0       ?_Getpfirst@_Container_base12@std@@QBEPAPAU_Iterator_base12@2@XZ 0040a6b0 f i chat_dialog.obj
 0001:00009700       ?_Clrcont@_Iterator_base12@std@@QAEXXZ 0040a700 f i chat_dialog.obj
 0001:00009730       ?_Getpnext@_Iterator_base12@std@@QAEPAPAU12@XZ 0040a730 f i chat_dialog.obj
 0001:00009750       ?_Max@?$_Tree_val@V?$_Tmap_traits@HPAV?$ObserverImplBase@HUSkinChangedParam@@@@U?$less@H@std@@V?$allocator@U?$pair@$$CBHPAV?$ObserverImplBase@HUSkinChangedParam@@@@@std@@@3@$0A@@std@@@std@@SAPAU_Node@?$_Tree_nod@V?$_Tmap_traits@HPAV?$ObserverImplBase@HUSkinChangedParam@@@@U?$less@H@std@@V?$allocator@U?$pair@$$CBHPAV?$ObserverImplBase@HUSkinChangedParam@@@@@std@@@3@$0A@@std@@@2@PAU342@@Z 0040a750 f i chat_dialog.obj
 0001:000097a0       ??0?$_Tmap_traits@HPAV?$ObserverImplBase@HUSkinChangedParam@@@@U?$less@H@std@@V?$allocator@U?$pair@$$CBHPAV?$ObserverImplBase@HUSkinChangedParam@@@@@std@@@3@$0A@@std@@QAE@U?$less@H@1@@Z 0040a7a0 f i chat_dialog.obj
 0001:000097e0       ??$?HDU?$char_traits@D@std@@V?$allocator@D@1@@std@@YA?AV?$basic_string@DU?$char_traits@D@std@@V?$allocator@D@2@@0@$$QAV10@PBD@Z 0040a7e0 f i chat_dialog.obj
 0001:00009840       ??0?$basic_string@DU?$char_traits@D@std@@V?$allocator@D@2@@std@@QAE@$$QAV01@@Z 0040a840 f i chat_dialog.obj
 0001:00009910       ?assign@?$basic_string@DU?$char_traits@D@std@@V?$allocator@D@2@@std@@QAEAAV12@$$QAV12@@Z 0040a910 f i chat_dialog.obj
 0001:00009a40       ?get_allocator@?$basic_string@DU?$char_traits@D@std@@V?$allocator@D@2@@std@@QBE?AV?$allocator@D@2@XZ 0040aa40 f i chat_dialog.obj
 0001:00009a80       ??$forward@V?$allocator@D@std@@@std@@YA$$QAV?$allocator@D@0@AAV10@@Z 0040aa80 f i chat_dialog.obj
 0001:00009a90       ??$forward@V?$basic_string@DU?$char_traits@D@std@@V?$allocator@D@2@@std@@@std@@YA$$QAV?$basic_string@DU?$char_traits@D@std@@V?$allocator@D@2@@0@AAV10@@Z 0040aa90 f i chat_dialog.obj
 0001:00009aa0       ??$_Debug_pointer@D@std@@YAXPBDPB_WI@Z 0040aaa0 f i chat_dialog.obj
 0001:00009ad0       ??$?9DD@std@@YA_NABV?$allocator@D@0@0@Z 0040aad0 f i chat_dialog.obj
 0001:00009b00       ??$?0D@?$allocator@U_Container_proxy@std@@@std@@QAE@ABV?$allocator@D@1@@Z 0040ab00 f i chat_dialog.obj
 0001:00009b20       ??$_Cons_val@V?$allocator@U_Container_proxy@std@@@std@@U_Container_proxy@2@U32@@std@@YAXAAV?$allocator@U_Container_proxy@std@@@0@PAU_Container_proxy@0@$$QAU20@@Z 0040ab20 f i chat_dialog.obj
 0001:00009b50       ??$_Dest_val@V?$allocator@U_Container_proxy@std@@@std@@U_Container_proxy@2@@std@@YAXAAV?$allocator@U_Container_proxy@std@@@0@PAU_Container_proxy@0@@Z 0040ab50 f i chat_dialog.obj
 0001:00009b70       ??$insert@U?$pair@$$CBHPAV?$ObserverImplBase@HUSkinChangedParam@@@@@std@@@?$_Tree@V?$_Tmap_traits@HPAV?$ObserverImplBase@HUSkinChangedParam@@@@U?$less@H@std@@V?$allocator@U?$pair@$$CBHPAV?$ObserverImplBase@HUSkinChangedParam@@@@@std@@@3@$0A@@std@@@std@@QAE?AV?$_Tree_iterator@V?$_Tree_val@V?$_Tmap_traits@HPAV?$ObserverImplBase@HUSkinChangedParam@@@@U?$less@H@std@@V?$allocator@U?$pair@$$CBHPAV?$ObserverImplBase@HUSkinChangedParam@@@@@std@@@3@$0A@@std@@@std@@@1@V?$_Tree_const_iterator@V?$_Tree_val@V?$_Tmap_traits@HPAV?$ObserverImplBase@HUSkinChangedParam@@@@U?$less@H@std@@V?$allocator@U?$pair@$$CBHPAV?$ObserverImplBase@HUSkinChangedParam@@@@@std@@@3@$0A@@std@@@std@@@1@$$QAU?$pair@$$CBHPAV?$ObserverImplBase@HUSkinChangedParam@@@@@1@@Z 0040ab70 f i chat_dialog.obj
 0001:00009c60       ??$_Kfn@$$CBHPAV?$ObserverImplBase@HUSkinChangedParam@@@@@?$_Tmap_traits@HPAV?$ObserverImplBase@HUSkinChangedParam@@@@U?$less@H@std@@V?$allocator@U?$pair@$$CBHPAV?$ObserverImplBase@HUSkinChangedParam@@@@@std@@@3@$0A@@std@@SAABHABU?$pair@$$CBHPAV?$ObserverImplBase@HUSkinChangedParam@@@@@1@@Z 0040ac60 f i chat_dialog.obj
 0001:00009c70       ??$move@AAPAV?$ObserverImplBase@HUSkinChangedParam@@@@@std@@YA$$QAPAV?$ObserverImplBase@HUSkinChangedParam@@@@AAPAV1@@Z 0040ac70 f i chat_dialog.obj
 0001:00009c80       ??$_Allocate@U_Container_proxy@std@@@std@@YAPAU_Container_proxy@0@IPAU10@@Z 0040ac80 f i chat_dialog.obj
 0001:00009d20       ??0bad_alloc@std@@QAE@PBD@Z 0040ad20 f i chat_dialog.obj
 0001:00009d70       ??1bad_alloc@std@@UAE@XZ   0040ad70 f i chat_dialog.obj
 0001:00009db0       ??_Ebad_alloc@std@@UAEPAXI@Z 0040adb0 f i chat_dialog.obj
 0001:00009db0       ??_Gbad_alloc@std@@UAEPAXI@Z 0040adb0 f i chat_dialog.obj
 0001:00009e00       ??$_Debug_lt_pred@U?$less@H@std@@HH@std@@YA_NU?$less@H@0@AAHABHPB_WI@Z 0040ae00 f i chat_dialog.obj
 0001:00009e70       ??$?0U_Node@?$_Tree_nod@V?$_Tmap_traits@HPAV?$ObserverImplBase@HUSkinChangedParam@@@@U?$less@H@std@@V?$allocator@U?$pair@$$CBHPAV?$ObserverImplBase@HUSkinChangedParam@@@@@std@@@3@$0A@@std@@@std@@@?$allocator@U_Container_proxy@std@@@std@@QAE@ABV?$allocator@U_Node@?$_Tree_nod@V?$_Tmap_traits@HPAV?$ObserverImplBase@HUSkinChangedParam@@@@U?$less@H@std@@V?$allocator@U?$pair@$$CBHPAV?$ObserverImplBase@HUSkinChangedParam@@@@@std@@@3@$0A@@std@@@std@@@1@@Z 0040ae70 f i chat_dialog.obj
 0001:00009e90       ??$_Allocate@D@std@@YAPADIPAD@Z 0040ae90 f i chat_dialog.obj
 0001:00009f20       ??$swap@D@std@@YAXAAD0@Z   0040af20 f i chat_dialog.obj
 0001:00009fd0       ??$addressof@U?$pair@$$CBHPAV?$ObserverImplBase@HUSkinChangedParam@@@@@std@@@std@@YAPAU?$pair@$$CBHPAV?$ObserverImplBase@HUSkinChangedParam@@@@@0@AAU10@@Z 0040afd0 f i chat_dialog.obj
 0001:00009fe0       ??$_Dest_val@V?$allocator@U?$pair@$$CBHPAV?$ObserverImplBase@HUSkinChangedParam@@@@@std@@@std@@U?$pair@$$CBHPAV?$ObserverImplBase@HUSkinChangedParam@@@@@2@@std@@YAXAAV?$allocator@U?$pair@$$CBHPAV?$ObserverImplBase@HUSkinChangedParam@@@@@std@@@0@PAU?$pair@$$CBHPAV?$ObserverImplBase@HUSkinChangedParam@@@@@0@@Z 0040afe0 f i chat_dialog.obj
 0001:0000a000       ??$?0U?$pair@$$CBHPAV?$ObserverImplBase@HUSkinChangedParam@@@@@std@@@?$allocator@U_Node@?$_Tree_nod@V?$_Tmap_traits@HPAV?$ObserverImplBase@HUSkinChangedParam@@@@U?$less@H@std@@V?$allocator@U?$pair@$$CBHPAV?$ObserverImplBase@HUSkinChangedParam@@@@@std@@@3@$0A@@std@@@std@@@std@@QAE@ABV?$allocator@U?$pair@$$CBHPAV?$ObserverImplBase@HUSkinChangedParam@@@@@std@@@1@@Z 0040b000 f i chat_dialog.obj
 0001:0000a020       ??$_Allocate@U_Node@?$_Tree_nod@V?$_Tmap_traits@HPAV?$ObserverImplBase@HUSkinChangedParam@@@@U?$less@H@std@@V?$allocator@U?$pair@$$CBHPAV?$ObserverImplBase@HUSkinChangedParam@@@@@std@@@3@$0A@@std@@@std@@@std@@YAPAU_Node@?$_Tree_nod@V?$_Tmap_traits@HPAV?$ObserverImplBase@HUSkinChangedParam@@@@U?$less@H@std@@V?$allocator@U?$pair@$$CBHPAV?$ObserverImplBase@HUSkinChangedParam@@@@@std@@@3@$0A@@std@@@0@IPAU120@@Z 0040b020 f i chat_dialog.obj
 0001:0000a0c0       ??0bad_alloc@std@@QAE@ABV01@@Z 0040b0c0 f i chat_dialog.obj
 0001:0000a110       ?append@?$basic_string@DU?$char_traits@D@std@@V?$allocator@D@2@@std@@QAEAAV12@PBD@Z 0040b110 f i chat_dialog.obj
 0001:0000a170       ?_Insert@?$_Tree@V?$_Tmap_traits@HPAV?$ObserverImplBase@HUSkinChangedParam@@@@U?$less@H@std@@V?$allocator@U?$pair@$$CBHPAV?$ObserverImplBase@HUSkinChangedParam@@@@@std@@@3@$0A@@std@@@std@@QAE?AV?$_Tree_iterator@V?$_Tree_val@V?$_Tmap_traits@HPAV?$ObserverImplBase@HUSkinChangedParam@@@@U?$less@H@std@@V?$allocator@U?$pair@$$CBHPAV?$ObserverImplBase@HUSkinChangedParam@@@@@std@@@3@$0A@@std@@@std@@@2@V?$_Tree_const_iterator@V?$_Tree_val@V?$_Tmap_traits@HPAV?$ObserverImplBase@HUSkinChangedParam@@@@U?$less@H@std@@V?$allocator@U?$pair@$$CBHPAV?$ObserverImplBase@HUSkinChangedParam@@@@@std@@@3@$0A@@std@@@std@@@2@PAU_Node@?$_Tree_nod@V?$_Tmap_traits@HPAV?$ObserverImplBase@HUSkinChangedParam@@@@U?$less@H@std@@V?$allocator@U?$pair@$$CBHPAV?$ObserverImplBase@HUSkinChangedParam@@@@@std@@@3@$0A@@std@@@2@@Z 0040b170 f i chat_dialog.obj
 0001:0000b010       ?destroy@?$allocator@U?$pair@$$CBHPAV?$ObserverImplBase@HUSkinChangedParam@@@@@std@@@std@@QAEXPAU?$pair@$$CBHPAV?$ObserverImplBase@HUSkinChangedParam@@@@@2@@Z 0040c010 f i chat_dialog.obj
 0001:0000b050       ?construct@?$allocator@U_Container_proxy@std@@@std@@QAEXPAU_Container_proxy@2@$$QAU32@@Z 0040c050 f i chat_dialog.obj
 0001:0000b120       ??2@YAPAXIPAX@Z            0040c120 f i chat_dialog.obj
 0001:0000b130       ??3@YAXPAX0@Z              0040c130 f i chat_dialog.obj
 0001:0000b140       ?destroy@?$allocator@U_Container_proxy@std@@@std@@QAEXPAU_Container_proxy@2@@Z 0040c140 f i chat_dialog.obj
 0001:0000b180       ??1?$pair@V?$_Tree_iterator@V?$_Tree_val@V?$_Tmap_traits@HPAV?$ObserverImplBase@HUSkinChangedParam@@@@U?$less@H@std@@V?$allocator@U?$pair@$$CBHPAV?$ObserverImplBase@HUSkinChangedParam@@@@@std@@@3@$0A@@std@@@std@@@std@@_N@std@@QAE@XZ 0040c180 f i chat_dialog.obj
 0001:0000b1b0       ??0?$_Tree_iterator@V?$_Tree_val@V?$_Tmap_traits@HPAV?$ObserverImplBase@HUSkinChangedParam@@@@U?$less@H@std@@V?$allocator@U?$pair@$$CBHPAV?$ObserverImplBase@HUSkinChangedParam@@@@@std@@@3@$0A@@std@@@std@@@std@@QAE@ABV01@@Z 0040c1b0 f i chat_dialog.obj
 0001:0000b1f0       ??1?$_Pair_base@V?$_Tree_iterator@V?$_Tree_val@V?$_Tmap_traits@HPAV?$ObserverImplBase@HUSkinChangedParam@@@@U?$less@H@std@@V?$allocator@U?$pair@$$CBHPAV?$ObserverImplBase@HUSkinChangedParam@@@@@std@@@3@$0A@@std@@@std@@@std@@_N@std@@QAE@XZ 0040c1f0 f i chat_dialog.obj
 0001:0000b220       ?append@?$basic_string@DU?$char_traits@D@std@@V?$allocator@D@2@@std@@QAEAAV12@PBDI@Z 0040c220 f i chat_dialog.obj
 0001:0000b340       ?size@?$_Tree@V?$_Tmap_traits@HPAV?$ObserverImplBase@HUSkinChangedParam@@@@U?$less@H@std@@V?$allocator@U?$pair@$$CBHPAV?$ObserverImplBase@HUSkinChangedParam@@@@@std@@@3@$0A@@std@@@std@@QBEIXZ 0040c340 f i chat_dialog.obj
 0001:0000b360       ?_Linsert@?$_Tree@V?$_Tmap_traits@HPAV?$ObserverImplBase@HUSkinChangedParam@@@@U?$less@H@std@@V?$allocator@U?$pair@$$CBHPAV?$ObserverImplBase@HUSkinChangedParam@@@@@std@@@3@$0A@@std@@@std@@QAE?AU?$pair@V?$_Tree_iterator@V?$_Tree_val@V?$_Tmap_traits@HPAV?$ObserverImplBase@HUSkinChangedParam@@@@U?$less@H@std@@V?$allocator@U?$pair@$$CBHPAV?$ObserverImplBase@HUSkinChangedParam@@@@@std@@@3@$0A@@std@@@std@@@std@@_N@2@PAU_Node@?$_Tree_nod@V?$_Tmap_traits@HPAV?$ObserverImplBase@HUSkinChangedParam@@@@U?$less@H@std@@V?$allocator@U?$pair@$$CBHPAV?$ObserverImplBase@HUSkinChangedParam@@@@@std@@@3@$0A@@std@@@2@_N@Z 0040c360 f i chat_dialog.obj
 0001:0000b870       ?_Insert@?$_Tree@V?$_Tmap_traits@HPAV?$ObserverImplBase@HUSkinChangedParam@@@@U?$less@H@std@@V?$allocator@U?$pair@$$CBHPAV?$ObserverImplBase@HUSkinChangedParam@@@@@std@@@3@$0A@@std@@@std@@IAE?AV?$_Tree_iterator@V?$_Tree_val@V?$_Tmap_traits@HPAV?$ObserverImplBase@HUSkinChangedParam@@@@U?$less@H@std@@V?$allocator@U?$pair@$$CBHPAV?$ObserverImplBase@HUSkinChangedParam@@@@@std@@@3@$0A@@std@@@std@@@2@_NPAU_Node@?$_Tree_nod@V?$_Tmap_traits@HPAV?$ObserverImplBase@HUSkinChangedParam@@@@U?$less@H@std@@V?$allocator@U?$pair@$$CBHPAV?$ObserverImplBase@HUSkinChangedParam@@@@@std@@@3@$0A@@std@@@2@1@Z 0040c870 f i chat_dialog.obj
 0001:0000bdf0       ??0?$_Tree_const_iterator@V?$_Tree_val@V?$_Tmap_traits@HPAV?$ObserverImplBase@HUSkinChangedParam@@@@U?$less@H@std@@V?$allocator@U?$pair@$$CBHPAV?$ObserverImplBase@HUSkinChangedParam@@@@@std@@@3@$0A@@std@@@std@@@std@@QAE@XZ 0040cdf0 f i chat_dialog.obj
 0001:0000be20       ??F?$_Tree_const_iterator@V?$_Tree_val@V?$_Tmap_traits@HPAV?$ObserverImplBase@HUSkinChangedParam@@@@U?$less@H@std@@V?$allocator@U?$pair@$$CBHPAV?$ObserverImplBase@HUSkinChangedParam@@@@@std@@@3@$0A@@std@@@std@@@std@@QAEAAV01@XZ 0040ce20 f i chat_dialog.obj
 0001:0000bf90       ?append@?$basic_string@DU?$char_traits@D@std@@V?$allocator@D@2@@std@@QAEAAV12@ABV12@II@Z 0040cf90 f i chat_dialog.obj
 0001:0000c090       ?max_size@?$_Tree@V?$_Tmap_traits@HPAV?$ObserverImplBase@HUSkinChangedParam@@@@U?$less@H@std@@V?$allocator@U?$pair@$$CBHPAV?$ObserverImplBase@HUSkinChangedParam@@@@@std@@@3@$0A@@std@@@std@@QBEIXZ 0040d090 f i chat_dialog.obj
 0001:0000c0c0       ??F?$_Tree_iterator@V?$_Tree_val@V?$_Tmap_traits@HPAV?$ObserverImplBase@HUSkinChangedParam@@@@U?$less@H@std@@V?$allocator@U?$pair@$$CBHPAV?$ObserverImplBase@HUSkinChangedParam@@@@@std@@@3@$0A@@std@@@std@@@std@@QAEAAV01@XZ 0040d0c0 f i chat_dialog.obj
 0001:0000c0f0       ??0?$_Tree_unchecked_const_iterator@V?$_Tree_val@V?$_Tmap_traits@HPAV?$ObserverImplBase@HUSkinChangedParam@@@@U?$less@H@std@@V?$allocator@U?$pair@$$CBHPAV?$ObserverImplBase@HUSkinChangedParam@@@@@std@@@3@$0A@@std@@@std@@U_Iterator_base12@2@@std@@QAE@XZ 0040d0f0 f i chat_dialog.obj
 0001:0000c130       ??F?$_Tree_unchecked_const_iterator@V?$_Tree_val@V?$_Tmap_traits@HPAV?$ObserverImplBase@HUSkinChangedParam@@@@U?$less@H@std@@V?$allocator@U?$pair@$$CBHPAV?$ObserverImplBase@HUSkinChangedParam@@@@@std@@@3@$0A@@std@@@std@@U_Iterator_base12@2@@std@@QAEAAV01@XZ 0040d130 f i chat_dialog.obj
 0001:0000c280       ??0?$pair@V?$_Tree_iterator@V?$_Tree_val@V?$_Tmap_traits@HPAV?$ObserverImplBase@HUSkinChangedParam@@@@U?$less@H@std@@V?$allocator@U?$pair@$$CBHPAV?$ObserverImplBase@HUSkinChangedParam@@@@@std@@@3@$0A@@std@@@std@@@std@@_N@std@@QAE@$$QAV?$_Tree_iterator@V?$_Tree_val@V?$_Tmap_traits@HPAV?$ObserverImplBase@HUSkinChangedParam@@@@U?$less@H@std@@V?$allocator@U?$pair@$$CBHPAV?$ObserverImplBase@HUSkinChangedParam@@@@@std@@@3@$0A@@std@@@std@@@1@$$QA_N@Z 0040d280 f i chat_dialog.obj
 0001:0000c2e0       ?max_size@?$allocator@U?$pair@$$CBHPAV?$ObserverImplBase@HUSkinChangedParam@@@@@std@@@std@@QBEIXZ 0040d2e0 f i chat_dialog.obj
 0001:0000c340       ??0?$_Pair_base@V?$_Tree_iterator@V?$_Tree_val@V?$_Tmap_traits@HPAV?$ObserverImplBase@HUSkinChangedParam@@@@U?$less@H@std@@V?$allocator@U?$pair@$$CBHPAV?$ObserverImplBase@HUSkinChangedParam@@@@@std@@@3@$0A@@std@@@std@@@std@@_N@std@@QAE@$$QAV?$_Tree_iterator@V?$_Tree_val@V?$_Tmap_traits@HPAV?$ObserverImplBase@HUSkinChangedParam@@@@U?$less@H@std@@V?$allocator@U?$pair@$$CBHPAV?$ObserverImplBase@HUSkinChangedParam@@@@@std@@@3@$0A@@std@@@std@@@1@$$QA_N@Z 0040d340 f i chat_dialog.obj
 0001:0000c3f0       ??$move@AAV?$basic_string@DU?$char_traits@D@std@@V?$allocator@D@2@@std@@@std@@YA$$QAV?$basic_string@DU?$char_traits@D@std@@V?$allocator@D@2@@0@AAV10@@Z 0040d3f0 f i chat_dialog.obj
 0001:0000c400       ??$?8DD@std@@YA_NABV?$allocator@D@0@0@Z 0040d400 f i chat_dialog.obj
 0001:0000c410       ??$forward@U_Container_proxy@std@@@std@@YA$$QAU_Container_proxy@0@AAU10@@Z 0040d410 f i chat_dialog.obj
 0001:0000c420       ??$forward@U?$pair@$$CBHPAV?$ObserverImplBase@HUSkinChangedParam@@@@@std@@@std@@YA$$QAU?$pair@$$CBHPAV?$ObserverImplBase@HUSkinChangedParam@@@@@0@AAU10@@Z 0040d420 f i chat_dialog.obj
 0001:0000c430       ??$_Buynode@U?$pair@$$CBHPAV?$ObserverImplBase@HUSkinChangedParam@@@@@std@@@?$_Tree_val@V?$_Tmap_traits@HPAV?$ObserverImplBase@HUSkinChangedParam@@@@U?$less@H@std@@V?$allocator@U?$pair@$$CBHPAV?$ObserverImplBase@HUSkinChangedParam@@@@@std@@@3@$0A@@std@@@std@@QAEPAU_Node@?$_Tree_nod@V?$_Tmap_traits@HPAV?$ObserverImplBase@HUSkinChangedParam@@@@U?$less@H@std@@V?$allocator@U?$pair@$$CBHPAV?$ObserverImplBase@HUSkinChangedParam@@@@@std@@@3@$0A@@std@@@1@$$QAU?$pair@$$CBHPAV?$ObserverImplBase@HUSkinChangedParam@@@@@1@@Z 0040d430 f i chat_dialog.obj
 0001:0000c560       ??$_Move@AAD@std@@YA$$QADAAD@Z 0040d560 f i chat_dialog.obj
 0001:0000c570       ??$_Debug_lt_pred@U?$less@H@std@@HH@std@@YA_NU?$less@H@0@ABHAAHPB_WI@Z 0040d570 f i chat_dialog.obj
 0001:0000c5e0       ??$_Destroy@U?$pair@$$CBHPAV?$ObserverImplBase@HUSkinChangedParam@@@@@std@@@std@@YAXPAU?$pair@$$CBHPAV?$ObserverImplBase@HUSkinChangedParam@@@@@0@@Z 0040d5e0 f i chat_dialog.obj
 0001:0000c5f0       ??$_Destroy@U_Container_proxy@std@@@std@@YAXPAU_Container_proxy@0@@Z 0040d5f0 f i chat_dialog.obj
 0001:0000c600       ??$?0AAV?$_Tree_iterator@V?$_Tree_val@V?$_Tmap_traits@HPAV?$ObserverImplBase@HUSkinChangedParam@@@@U?$less@H@std@@V?$allocator@U?$pair@$$CBHPAV?$ObserverImplBase@HUSkinChangedParam@@@@@std@@@3@$0A@@std@@@std@@@std@@_N@?$pair@V?$_Tree_iterator@V?$_Tree_val@V?$_Tmap_traits@HPAV?$ObserverImplBase@HUSkinChangedParam@@@@U?$less@H@std@@V?$allocator@U?$pair@$$CBHPAV?$ObserverImplBase@HUSkinChangedParam@@@@@std@@@3@$0A@@std@@@std@@@std@@_N@std@@QAE@AAV?$_Tree_iterator@V?$_Tree_val@V?$_Tmap_traits@HPAV?$ObserverImplBase@HUSkinChangedParam@@@@U?$less@H@std@@V?$allocator@U?$pair@$$CBHPAV?$ObserverImplBase@HUSkinChangedParam@@@@@std@@@3@$0A@@std@@@std@@@1@$$QA_N@Z 0040d600 f i chat_dialog.obj
 0001:0000c660       ??$move@AAV?$_Tree_iterator@V?$_Tree_val@V?$_Tmap_traits@HPAV?$ObserverImplBase@HUSkinChangedParam@@@@U?$less@H@std@@V?$allocator@U?$pair@$$CBHPAV?$ObserverImplBase@HUSkinChangedParam@@@@@std@@@3@$0A@@std@@@std@@@std@@@std@@YA$$QAV?$_Tree_iterator@V?$_Tree_val@V?$_Tmap_traits@HPAV?$ObserverImplBase@HUSkinChangedParam@@@@U?$less@H@std@@V?$allocator@U?$pair@$$CBHPAV?$ObserverImplBase@HUSkinChangedParam@@@@@std@@@3@$0A@@std@@@std@@@0@AAV10@@Z 0040d660 f i chat_dialog.obj
 0001:0000c670       ??$move@AA_N@std@@YA$$QA_NAA_N@Z 0040d670 f i chat_dialog.obj
 0001:0000c680       ?_Buynode@?$_Tree_val@V?$_Tmap_traits@HPAV?$ObserverImplBase@HUSkinChangedParam@@@@U?$less@H@std@@V?$allocator@U?$pair@$$CBHPAV?$ObserverImplBase@HUSkinChangedParam@@@@@std@@@3@$0A@@std@@@std@@QAEPAU_Node@?$_Tree_nod@V?$_Tmap_traits@HPAV?$ObserverImplBase@HUSkinChangedParam@@@@U?$less@H@std@@V?$allocator@U?$pair@$$CBHPAV?$ObserverImplBase@HUSkinChangedParam@@@@@std@@@3@$0A@@std@@@2@XZ 0040d680 f i chat_dialog.obj
 0001:0000c740       ??$_Cons_val@V?$allocator@U?$pair@$$CBHPAV?$ObserverImplBase@HUSkinChangedParam@@@@@std@@@std@@U?$pair@$$CBHPAV?$ObserverImplBase@HUSkinChangedParam@@@@@2@U32@@std@@YAXAAV?$allocator@U?$pair@$$CBHPAV?$ObserverImplBase@HUSkinChangedParam@@@@@std@@@0@PAU?$pair@$$CBHPAV?$ObserverImplBase@HUSkinChangedParam@@@@@0@$$QAU20@@Z 0040d740 f i chat_dialog.obj
 0001:0000c770       ??$forward@AAV?$_Tree_iterator@V?$_Tree_val@V?$_Tmap_traits@HPAV?$ObserverImplBase@HUSkinChangedParam@@@@U?$less@H@std@@V?$allocator@U?$pair@$$CBHPAV?$ObserverImplBase@HUSkinChangedParam@@@@@std@@@3@$0A@@std@@@std@@@std@@@std@@YAAAV?$_Tree_iterator@V?$_Tree_val@V?$_Tmap_traits@HPAV?$ObserverImplBase@HUSkinChangedParam@@@@U?$less@H@std@@V?$allocator@U?$pair@$$CBHPAV?$ObserverImplBase@HUSkinChangedParam@@@@@std@@@3@$0A@@std@@@std@@@0@AAV10@@Z 0040d770 f i chat_dialog.obj
 0001:0000c780       ??$forward@_N@std@@YA$$QA_NAA_N@Z 0040d780 f i chat_dialog.obj
 0001:0000c790       ??$?0AAV?$_Tree_iterator@V?$_Tree_val@V?$_Tmap_traits@HPAV?$ObserverImplBase@HUSkinChangedParam@@@@U?$less@H@std@@V?$allocator@U?$pair@$$CBHPAV?$ObserverImplBase@HUSkinChangedParam@@@@@std@@@3@$0A@@std@@@std@@@std@@_N@?$_Pair_base@V?$_Tree_iterator@V?$_Tree_val@V?$_Tmap_traits@HPAV?$ObserverImplBase@HUSkinChangedParam@@@@U?$less@H@std@@V?$allocator@U?$pair@$$CBHPAV?$ObserverImplBase@HUSkinChangedParam@@@@@std@@@3@$0A@@std@@@std@@@std@@_N@std@@QAE@AAV?$_Tree_iterator@V?$_Tree_val@V?$_Tmap_traits@HPAV?$ObserverImplBase@HUSkinChangedParam@@@@U?$less@H@std@@V?$allocator@U?$pair@$$CBHPAV?$ObserverImplBase@HUSkinChangedParam@@@@@std@@@3@$0A@@std@@@std@@@1@$$QA_N@Z 0040d790 f i chat_dialog.obj
 0001:0000c840       ?construct@?$allocator@U?$pair@$$CBHPAV?$ObserverImplBase@HUSkinChangedParam@@@@@std@@@std@@QAEXPAU?$pair@$$CBHPAV?$ObserverImplBase@HUSkinChangedParam@@@@@2@$$QAU32@@Z 0040d840 f i chat_dialog.obj
 0001:0000c910       ??$?0$$CBHPAV?$ObserverImplBase@HUSkinChangedParam@@@@@?$pair@$$CBHPAV?$ObserverImplBase@HUSkinChangedParam@@@@@std@@QAE@$$QAU01@@Z 0040d910 f i chat_dialog.obj
 0001:0000c970       ??0?$_Pair_base@$$CBHPAV?$ObserverImplBase@HUSkinChangedParam@@@@@std@@QAE@$$QBH$$QAPAV?$ObserverImplBase@HUSkinChangedParam@@@@@Z 0040d970 f i chat_dialog.obj
 0001:0000c9d0       ??$forward@$$CBH@std@@YA$$QBHABH@Z 0040d9d0 f i chat_dialog.obj
 0001:0000c9e0       ??$forward@PAV?$ObserverImplBase@HUSkinChangedParam@@@@@std@@YA$$QAPAV?$ObserverImplBase@HUSkinChangedParam@@@@AAPAV1@@Z 0040d9e0 f i chat_dialog.obj
 0001:0000c9f0       ??$move@ABH@std@@YA$$QBHABH@Z 0040d9f0 f i chat_dialog.obj
 0001:0000ca00       ??_EChatDialog@@WCAA@AEPAXI@Z 0040da00 f i chat_dialog.obj
 0001:0000ca10       ??0CColorPicker@@QAE@PAVChatDialog@@UtagPOINT@@@Z 0040da10 f   ColorPicker.obj
 0001:0000cb10       ?GetWindowClassName@CColorPicker@@UBEPBDXZ 0040db10 f   ColorPicker.obj
 0001:0000cb30       ?OnFinalMessage@CColorPicker@@UAEXPAUHWND__@@@Z 0040db30 f   ColorPicker.obj
 0001:0000cba0       ?Notify@CColorPicker@@UAEXAAUtagTNotifyUI@DuiLib@@@Z 0040dba0 f   ColorPicker.obj
 0001:0000ccd0       ?Init@CColorPicker@@UAEXXZ 0040dcd0 f   ColorPicker.obj
 0001:0000d010       ?GetSkinFile@CColorPicker@@UAE?AV?$basic_string@DU?$char_traits@D@std@@V?$allocator@D@2@@std@@XZ 0040e010 f   ColorPicker.obj
 0001:0000d060       ?GetSkinFolder@CColorPicker@@UAE?AV?$basic_string@DU?$char_traits@D@std@@V?$allocator@D@2@@std@@XZ 0040e060 f   ColorPicker.obj
 0001:0000d180       ?OnKillFocus@CColorPicker@@UAEJIIJAAH@Z 0040e180 f   ColorPicker.obj
 0001:0000d3c0       ??_GCColorPicker@@UAEPAXI@Z 0040e3c0 f i ColorPicker.obj
 0001:0000d3c0       ??_ECColorPicker@@UAEPAXI@Z 0040e3c0 f i ColorPicker.obj
 0001:0000d410       ??1CColorPicker@@UAE@XZ    0040e410 f i ColorPicker.obj
 0001:0000d440       ??_GCHorizontalLayoutUI@DuiLib@@UAEPAXI@Z 0040e440 f i ColorPicker.obj
 0001:0000d440       ??_ECHorizontalLayoutUI@DuiLib@@UAEPAXI@Z 0040e440 f i ColorPicker.obj
 0001:0000d4a0       ??_GCButtonUI@DuiLib@@UAEPAXI@Z 0040e4a0 f i ColorPicker.obj
 0001:0000d4a0       ??_ECButtonUI@DuiLib@@UAEPAXI@Z 0040e4a0 f i ColorPicker.obj
 0001:0000d500       ??_ECControlUI@DuiLib@@UAEPAXI@Z 0040e500 f i ColorPicker.obj
 0001:0000d500       ??_GCControlUI@DuiLib@@UAEPAXI@Z 0040e500 f i ColorPicker.obj
 0001:0000d560       ??0OS_CLockable@@QAE@XZ    0040e560 f   debug.obj
 0001:0000d650       ??1OS_CLockable@@QAE@XZ    0040e650 f   debug.obj
 0001:0000d690       ?Acquire@OS_CLockable@@QAEXXZ 0040e690 f   debug.obj
 0001:0000d6d0       ?Release@OS_CLockable@@QAEXXZ 0040e6d0 f   debug.obj
 0001:0000d710       ?DbgPrint@@YAHPBDZZ        0040e710 f   debug.obj
 0001:0000db50       ??0OS_CAutoLock@@QAE@AAVOS_CLockable@@@Z 0040eb50 f i debug.obj
 0001:0000db90       ??1OS_CAutoLock@@QAE@XZ    0040eb90 f i debug.obj
 0001:0000dbc0       ??_Estringdispid@CComTypeInfoHolder@ATL@@QAEPAXI@Z 0040ebc0 f i main.obj
 0001:0000dc60       ??1stringdispid@CComTypeInfoHolder@ATL@@QAE@XZ 0040ec60 f i main.obj
 0001:0000dc90       ??1CComBSTR@ATL@@QAE@XZ    0040ec90 f i main.obj
 0001:0000dcd0       _WinMain@16                0040ecd0 f   main.obj
 0001:0000df70       ?Init@CComModule@ATL@@QAEJPAU_ATL_OBJMAP_ENTRY30@2@PAUHINSTANCE__@@PBU_GUID@@@Z 0040ef70 f i main.obj
 0001:0000e090       ?Term@CComModule@ATL@@QAEXXZ 0040f090 f i main.obj
 0001:0000e1b0       ?Term@CAtlWinModule@ATL@@QAEXXZ 0040f1b0 f i main.obj
 0001:0000e1f0       ?GetModuleInstance@CAtlBaseModule@ATL@@QAEPAUHINSTANCE__@@XZ 0040f1f0 f i main.obj
 0001:0000e210       ?Term@CAtlModule@ATL@@QAEXXZ 0040f210 f i main.obj
 0001:0000e2e0       ?Term@CComCriticalSection@ATL@@QAEJXZ 0040f2e0 f i main.obj
 0001:0000e320       ?AtlWinModuleTerm@ATL@@YGJPAU_ATL_WIN_MODULE70@1@PAUHINSTANCE__@@@Z 0040f320 f i main.obj
 0001:0000e400       ?GetSize@?$CSimpleArray@GV?$CSimpleArrayEqualHelper@G@ATL@@@ATL@@QBEHXZ 0040f400 f i main.obj
 0001:0000e420       ?RemoveAll@?$CSimpleArray@GV?$CSimpleArrayEqualHelper@G@ATL@@@ATL@@QAEXXZ 0040f420 f i main.obj
 0001:0000e4c0       ??A?$CSimpleArray@GV?$CSimpleArrayEqualHelper@G@ATL@@@ATL@@QAEAAGH@Z 0040f4c0 f i main.obj
 0001:0000e560       ?_AtlRaiseException@ATL@@YAXKK@Z 0040f560 f i main.obj
 0001:0000e5a0       ??0Thank_you@Define_the_symbol__ATL_MIXED@@QAE@XZ 0040f5a0 f i main.obj
 0001:0000e5d0       ?one@Thank_you@Define_the_symbol__ATL_MIXED@@UAEXXZ 0040f5d0 f i main.obj
 0001:0000e5f0       ??0CComModule@ATL@@QAE@XZ  0040f5f0 f i main.obj
 0001:0000e670       ?Lock@CAtlModule@ATL@@UAEJXZ 0040f670 f i main.obj
 0001:0000e6b0       ?Increment@CComMultiThreadModel@ATL@@SGKPAJ@Z 0040f6b0 f i main.obj
 0001:0000e6e0       ?Unlock@CAtlModule@ATL@@UAEJXZ 0040f6e0 f i main.obj
 0001:0000e720       ?Decrement@CComMultiThreadModel@ATL@@SGKPAJ@Z 0040f720 f i main.obj
 0001:0000e750       ?GetLockCount@CAtlModule@ATL@@UAEJXZ 0040f750 f i main.obj
 0001:0000e770       ?GetGITPtr@CAtlModule@ATL@@UAEJPAPAUIGlobalInterfaceTable@@@Z 0040f770 f i main.obj
 0001:0000e8b0       ?UpdateRegistryFromResourceD@CComModule@ATL@@UAGJPBDHPAU_ATL_REGMAP_ENTRY@2@@Z 0040f8b0 f i main.obj
 0001:0000e8c0       ?UpdateRegistryFromResourceD@CComModule@ATL@@UAGJIHPAU_ATL_REGMAP_ENTRY@2@@Z 0040f8c0 f i main.obj
 0001:0000e8d0       ?UpdateRegistryFromResourceS@CComModule@ATL@@UAGJPBDHPAU_ATL_REGMAP_ENTRY@2@@Z 0040f8d0 f i main.obj
 0001:0000e900       ?UpdateRegistryFromResourceS@CComModule@ATL@@UAGJIHPAU_ATL_REGMAP_ENTRY@2@@Z 0040f900 f i main.obj
 0001:0000e930       ??_GCComModule@ATL@@UAEPAXI@Z 0040f930 f i main.obj
 0001:0000e930       ??_ECComModule@ATL@@UAEPAXI@Z 0040f930 f i main.obj
 0001:0000e980       ??1CComModule@ATL@@UAE@XZ  0040f980 f i main.obj
 0001:0000e9c0       ??1?$CAtlModuleT@VCComModule@ATL@@@ATL@@UAE@XZ 0040f9c0 f i main.obj
 0001:0000e9f0       ??1CAtlModule@ATL@@UAE@XZ  0040f9f0 f i main.obj
 0001:0000ea30       ??1_ATL_MODULE70@ATL@@QAE@XZ 0040fa30 f i main.obj
 0001:0000ea60       ??1CComCriticalSection@ATL@@QAE@XZ 0040fa60 f i main.obj
 0001:0000ea80       ?UpdateRegistryFromResourceS@CAtlModule@ATL@@QAGJPBDHPAU_ATL_REGMAP_ENTRY@2@@Z 0040fa80 f i main.obj
 0001:0000f380       _HRESULT_FROM_WIN32        00410380 f i main.obj
 0001:0000f3d0       ??$AtlMultiply@H@ATL@@YAJPAHHH@Z 004103d0 f i main.obj
 0001:0000f470       ?_AtlVerifyStackAvailable@_ATL_SAFE_ALLOCA_IMPL@ATL@@YA_NK@Z 00410470 f i main.obj
 0001:0000f670       ?_AtlGetConversionACP@ATL@@YGIXZ 00410670 f i main.obj
 0001:0000f680       ?AtlA2WHelper@@YGPA_WPA_WPBDHI@Z 00410680 f i main.obj
 0001:0000f7a0       ?ocslen@@YAHPB_W@Z         004107a0 f i main.obj
 0001:0000f7d0       ?ocscpy_s@@YA_NPA_WIPB_W@Z 004107d0 f i main.obj
 0001:0000f820       ?AtlHresultFromLastError@ATL@@YAJXZ 00410820 f i main.obj
 0001:0000f870       ?EscapeSingleQuote@CAtlModule@ATL@@SAXPA_WIPB_W@Z 00410870 f i main.obj
 0001:0000f940       ??1CRegObject@ATL@@UAE@XZ  00410940 f i main.obj
 0001:0000f9e0       ??1CExpansionVector@ATL@@QAE@XZ 004109e0 f i main.obj
 0001:0000fa60       ?ClearReplacements@CExpansionVector@ATL@@QAEJXZ 00410a60 f i main.obj
 0001:0000fb10       ?QueryInterface@CRegObject@ATL@@UAGJABU_GUID@@PAPAX@Z 00410b10 f i main.obj
 0001:0000fb60       ?AddRef@CRegObject@ATL@@UAGKXZ 00410b60 f i main.obj
 0001:0000fbb0       ?Release@CRegObject@ATL@@UAGKXZ 00410bb0 f i main.obj
 0001:0000fc00       ?FinalConstruct@CRegObject@ATL@@QAEJXZ 00410c00 f i main.obj
 0001:0000fc30       ?Init@CComSafeDeleteCriticalSection@ATL@@QAEJXZ 00410c30 f i main.obj
 0001:0000fcc0       ?Init@CComCriticalSection@ATL@@QAEJXZ 00410cc0 f i main.obj
 0001:0000fd40       ??_ECRegObject@ATL@@UAEPAXI@Z 00410d40 f i main.obj
 0001:0000fd40       ??_GCRegObject@ATL@@UAEPAXI@Z 00410d40 f i main.obj
 0001:0000fd90       ??1CComAutoDeleteCriticalSection@ATL@@QAE@XZ 00410d90 f i main.obj
 0001:0000fdc0       ??1CComSafeDeleteCriticalSection@ATL@@QAE@XZ 00410dc0 f i main.obj
 0001:0000fe10       ?AddReplacement@CRegObject@ATL@@UAGJPB_W0@Z 00410e10 f i main.obj
 0001:00010100       ?AtlW2AHelper@@YGPADPADPB_WHI@Z 00411100 f i main.obj
 0001:00010220       ?Unlock@CComCriticalSection@ATL@@QAEJXZ 00411220 f i main.obj
 0001:00010260       ?Lock@CComSafeDeleteCriticalSection@ATL@@QAEJXZ 00411260 f i main.obj
 0001:000102d0       ?Lock@CComCriticalSection@ATL@@QAEJXZ 004112d0 f i main.obj
 0001:00010310       ?Add@CExpansionVector@ATL@@QAEHPBDPB_W@Z 00411310 f i main.obj
 0001:000106c0       ?memcpy_s@Checked@ATL@@YAXPAXIPBXI@Z 004116c0 f i main.obj
 0001:00010700       ?AtlCrtErrorCheck@ATL@@YAHH@Z 00411700 f i main.obj
 0001:00010800       ?AtlThrowImpl@ATL@@YGXJ@Z  00411800 f i main.obj
 0001:000108a0       ??0CTraceFileAndLineInfo@ATL@@QAE@PBDH@Z 004118a0 f i main.obj
 0001:000108e0       ??RCTraceFileAndLineInfo@ATL@@QBAXKIPBDZZ 004118e0 f i main.obj
 0001:00010950       ?TraceV@CTrace@ATL@@QBAXPBDHKI0PAD@Z 00411950 f i main.obj
 0001:00010990       ??BCTraceCategory@ATL@@QBEKXZ 00411990 f i main.obj
 0001:000109b0       ??0CAtlException@ATL@@QAE@J@Z 004119b0 f i main.obj
 0001:000109e0       ?ResourceRegisterSz@CRegObject@ATL@@QAGJPB_W00@Z 004119e0 f i main.obj
 0001:00010dc0       ?RegisterFromResource@CRegObject@ATL@@IAEJPB_WPBD1H@Z 00411dc0 f i main.obj
 0001:00011400       ?ResourceUnregisterSz@CRegObject@ATL@@QAGJPB_W00@Z 00412400 f i main.obj
 0001:000117e0       ?ClearReplacements@CRegObject@ATL@@UAGJXZ 004127e0 f i main.obj
 0001:00011840       ??0CRegParser@ATL@@QAE@PAVCRegObject@1@@Z 00412840 f i main.obj
 0001:00011880       ?RegisterBuffer@CRegParser@ATL@@QAEJPADH@Z 00412880 f i main.obj
 0001:00011c70       ?GenerateError@CRegParser@ATL@@IAEJI@Z 00412c70 f i main.obj
 0001:00011c90       ?HKeyFromString@CRegParser@ATL@@KAPAUHKEY__@@PAD@Z 00412c90 f i main.obj
 0001:00011d10       ?SkipWhiteSpace@CRegParser@ATL@@IAEXXZ 00412d10 f i main.obj
 0001:00011d80       ?IsSpace@CRegParser@ATL@@IAEHD@Z 00412d80 f i main.obj
 0001:00011e10       ?NextToken@CRegParser@ATL@@IAEJPAD@Z 00412e10 f i main.obj
 0001:00012150       ?EndOfVar@CRegParser@ATL@@IAEHXZ 00413150 f i main.obj
 0001:000121d0       ?PreProcessBuffer@CRegParser@ATL@@QAEJPADPAPAD@Z 004131d0 f i main.obj
 0001:000128a0       ?_tcsstr@@YAPADPADPBD@Z    004138a0 f i main.obj
 0001:000128d0       __tcsstr                   004138d0 f i main.obj
 0001:00012900       ?tcsncpy_s@Checked@ATL@@YAHPADIPBDI@Z 00413900 f i main.obj
 0001:00012940       __tcsncpy_s                00413940 f i main.obj
 0001:00012970       ??0CParseBuffer@CRegParser@ATL@@QAE@H@Z 00413970 f i main.obj
 0001:00012a00       ?AtlCoTaskMemCAlloc@ATL@@YAPAXKK@Z 00413a00 f i main.obj
 0001:00012ac0       ??$AtlMultiply@K@ATL@@YAJPAKKK@Z 00413ac0 f i main.obj
 0001:00012b30       ??1CParseBuffer@CRegParser@ATL@@QAE@XZ 00413b30 f i main.obj
 0001:00012b80       ?AddChar@CParseBuffer@CRegParser@ATL@@QAEHPBD@Z 00413b80 f i main.obj
 0001:00012bf0       ?Append@CParseBuffer@CRegParser@ATL@@QAEHPBDH@Z 00413bf0 f i main.obj
 0001:00012db0       ?AtlCoTaskMemRecalloc@ATL@@YAPAXPAXKK@Z 00413db0 f i main.obj
 0001:00012e70       ?AddString@CParseBuffer@CRegParser@ATL@@QAEHPB_W@Z 00413e70 f i main.obj
 0001:00013130       ?Detach@CParseBuffer@CRegParser@ATL@@QAEPADXZ 00414130 f i main.obj
 0001:00013190       ?StrFromMap@CRegObject@ATL@@QAEPB_WPAD@Z 00414190 f i main.obj
 0001:00013240       ?StrChrA@CRegParser@ATL@@KAPADPADD@Z 00414240 f i main.obj
 0001:000132c0       ?RegisterSubkeys@CRegParser@ATL@@IAEJPADPAUHKEY__@@HH@Z 004142c0 f i main.obj
 0001:00014140       ?AtlHresultFromWin32@ATL@@YAJK@Z 00415140 f i main.obj
 0001:00014160       ??0CRegKey@ATL@@QAE@PAVCAtlTransactionManager@1@@Z 00415160 f i main.obj
 0001:000141a0       ??1CRegKey@ATL@@QAE@XZ     004151a0 f i main.obj
 0001:000141d0       ??BCRegKey@ATL@@QBEPAUHKEY__@@XZ 004151d0 f i main.obj
 0001:000141f0       ?Detach@CRegKey@ATL@@QAEPAUHKEY__@@XZ 004151f0 f i main.obj
 0001:00014250       ?Attach@CRegKey@ATL@@QAEXPAUHKEY__@@@Z 00415250 f i main.obj
 0001:000142e0       ?DeleteSubKey@CRegKey@ATL@@QAEJPBD@Z 004152e0 f i main.obj
 0001:00014440       ?RegDeleteKeyA@CAtlTransactionManager@ATL@@QAEJPAUHKEY__@@PBD@Z 00415440 f i main.obj
 0001:00014570       ?DeleteValue@CRegKey@ATL@@QAEJPBD@Z 00415570 f i main.obj
 0001:00014600       ?Close@CRegKey@ATL@@QAEJXZ 00415600 f i main.obj
 0001:00014680       ?Create@CRegKey@ATL@@QAEJPAUHKEY__@@PBDPADKKPAU_SECURITY_ATTRIBUTES@@PAK@Z 00415680 f i main.obj
 0001:00014830       ?RegCreateKeyExA@CAtlTransactionManager@ATL@@QAEJPAUHKEY__@@PBDKPADKKQAU_SECURITY_ATTRIBUTES@@PAPAU3@PAK@Z 00415830 f i main.obj
 0001:000149b0       ?Open@CRegKey@ATL@@QAEJPAUHKEY__@@PBDK@Z 004159b0 f i main.obj
 0001:00014b40       ?RegOpenKeyExA@CAtlTransactionManager@ATL@@QAEJPAUHKEY__@@PBDKKPAPAU3@@Z 00415b40 f i main.obj
 0001:00014c90       ?RecurseDeleteKey@CRegKey@ATL@@QAEJPBD@Z 00415c90 f i main.obj
 0001:00014ee0       ?AddValue@CRegParser@ATL@@IAEJAAVCRegKey@2@PBDPAD@Z 00415ee0 f i main.obj
 0001:00015b10       ?SetDWORDValue@CRegKey@ATL@@QAEJPBDK@Z 00416b10 f i main.obj
 0001:00015bb0       ?SetStringValue@CRegKey@ATL@@QAEJPBD0K@Z 00416bb0 f i main.obj
 0001:00015d00       ?SetMultiStringValue@CRegKey@ATL@@QAEJPBD0@Z 00416d00 f i main.obj
 0001:00015e50       ?VTFromRegType@CRegParser@ATL@@KAHPBDAAG@Z 00416e50 f i main.obj
 0001:00015f70       ?ChToByte@CRegParser@ATL@@KAED@Z 00416f70 f i main.obj
 0001:000160c0       ?CanForceRemoveKey@CRegParser@ATL@@IAEHPBD@Z 004170c0 f i main.obj
 0001:00016150       ?HasSubKeys@CRegParser@ATL@@IAEHPAUHKEY__@@@Z 00417150 f i main.obj
 0001:00016290       ?SkipAssignment@CRegParser@ATL@@IAEJPAD@Z 00417290 f i main.obj
 0001:000163b0       ??0CRegObject@ATL@@QAE@XZ  004173b0 f i main.obj
 0001:00016450       ??0IRegistrarBase@@QAE@XZ  00417450 f i main.obj
 0001:00016480       ??0CExpansionVector@ATL@@QAE@XZ 00417480 f i main.obj
 0001:000164b0       ??0CComAutoDeleteCriticalSection@ATL@@QAE@XZ 004174b0 f i main.obj
 0001:000164e0       ??0CComSafeDeleteCriticalSection@ATL@@QAE@XZ 004174e0 f i main.obj
 0001:00016520       ??0CComCriticalSection@ATL@@QAE@XZ 00417520 f i main.obj
 0001:00016560       ??0IUnknown@@QAE@XZ        00417560 f i main.obj
 0001:00016580       ?UpdateRegistryFromResourceS@CAtlModule@ATL@@QAGJIHPAU_ATL_REGMAP_ENTRY@2@@Z 00417580 f i main.obj
 0001:00016cf0       ?ResourceRegister@CRegObject@ATL@@QAGJPB_WI0@Z 00417cf0 f i main.obj
 0001:00016f90       ?ResourceUnregister@CRegObject@ATL@@QAGJPB_WI0@Z 00417f90 f i main.obj
 0001:00017230       ?AtlGetPerUserRegistration@ATL@@YGJPA_N@Z 00418230 f i main.obj
 0001:00017260       ??0?$CAtlSafeAllocBufferManager@VCCRTAllocator@ATL@@@_ATL_SAFE_ALLOCA_IMPL@ATL@@QAE@XZ 00418260 f i main.obj
 0001:00017290       ?Allocate@?$CAtlSafeAllocBufferManager@VCCRTAllocator@ATL@@@_ATL_SAFE_ALLOCA_IMPL@ATL@@QAEPAXK@Z 00418290 f i main.obj
 0001:00017310       ?Allocate@CCRTAllocator@ATL@@SAPAXI@Z 00418310 f i main.obj
 0001:00017330       ??1?$CAtlSafeAllocBufferManager@VCCRTAllocator@ATL@@@_ATL_SAFE_ALLOCA_IMPL@ATL@@QAE@XZ 00418330 f i main.obj
 0001:000173a0       ?Free@CCRTAllocator@ATL@@SAXPAX@Z 004183a0 f i main.obj
 0001:000173c0       ??0?$CAtlModuleT@VCComModule@ATL@@@ATL@@QAE@XZ 004183c0 f i main.obj
 0001:00017400       ??0CAtlModule@ATL@@QAE@XZ  00418400 f i main.obj
 0001:00017550       ??0_ATL_MODULE70@ATL@@QAE@XZ 00418550 f i main.obj
 0001:00017590       ?AddCommonRGSReplacements@?$CAtlModuleT@VCComModule@ATL@@@ATL@@UAEJPAUIRegistrarBase@@@Z 00418590 f i main.obj
 0001:000175f0       ??0?$CSimpleMap@PADPA_WVCExpansionVectorEqualHelper@ATL@@@ATL@@QAE@XZ 004185f0 f i main.obj
 0001:00017630       ??1?$CSimpleMap@PADPA_WVCExpansionVectorEqualHelper@ATL@@@ATL@@QAE@XZ 00418630 f i main.obj
 0001:00017660       ?GetSize@?$CSimpleMap@PADPA_WVCExpansionVectorEqualHelper@ATL@@@ATL@@QBEHXZ 00418660 f i main.obj
 0001:00017680       ?Add@?$CSimpleMap@PADPA_WVCExpansionVectorEqualHelper@ATL@@@ATL@@QAEHABQADABQA_W@Z 00418680 f i main.obj
 0001:00017770       ?RemoveAll@?$CSimpleMap@PADPA_WVCExpansionVectorEqualHelper@ATL@@@ATL@@QAEXXZ 00418770 f i main.obj
 0001:00017830       ?Lookup@?$CSimpleMap@PADPA_WVCExpansionVectorEqualHelper@ATL@@@ATL@@QBEPA_WABQAD@Z 00418830 f i main.obj
 0001:000178a0       ?GetKeyAt@?$CSimpleMap@PADPA_WVCExpansionVectorEqualHelper@ATL@@@ATL@@QBEAAPADH@Z 004188a0 f i main.obj
 0001:00017940       ?GetValueAt@?$CSimpleMap@PADPA_WVCExpansionVectorEqualHelper@ATL@@@ATL@@QBEAAPA_WH@Z 00418940 f i main.obj
 0001:000179e0       ??0?$CAutoVectorPtr@D@ATL@@QAE@XZ 004189e0 f i main.obj
 0001:00017a10       ??1?$CAutoVectorPtr@D@ATL@@QAE@XZ 00418a10 f i main.obj
 0001:00017a40       ?Attach@?$CAutoVectorPtr@D@ATL@@QAEXPAD@Z 00418a40 f i main.obj
 0001:00017ab0       ?Detach@?$CAutoVectorPtr@D@ATL@@QAEPADXZ 00418ab0 f i main.obj
 0001:00017af0       ??0?$CAutoVectorPtr@_W@ATL@@QAE@XZ 00418af0 f i main.obj
 0001:00017b20       ??1?$CAutoVectorPtr@_W@ATL@@QAE@XZ 00418b20 f i main.obj
 0001:00017b50       ?Attach@?$CAutoVectorPtr@_W@ATL@@QAEXPA_W@Z 00418b50 f i main.obj
 0001:00017bc0       ?Detach@?$CAutoVectorPtr@_W@ATL@@QAEPA_WXZ 00418bc0 f i main.obj
 0001:00017c00       ??0?$CTempBuffer@D$0EAA@VCCRTAllocator@ATL@@@ATL@@QAE@XZ 00418c00 f i main.obj
 0001:00017c30       ??1?$CTempBuffer@D$0EAA@VCCRTAllocator@ATL@@@ATL@@QAE@XZ 00418c30 f i main.obj
 0001:00017c70       ??B?$CTempBuffer@D$0EAA@VCCRTAllocator@ATL@@@ATL@@QBEPADXZ 00418c70 f i main.obj
 0001:00017c90       ?Allocate@?$CTempBuffer@D$0EAA@VCCRTAllocator@ATL@@@ATL@@QAEPADI@Z 00418c90 f i main.obj
 0001:00017ce0       ??0?$CTempBuffer@D$0BAA@VCCRTAllocator@ATL@@@ATL@@QAE@XZ 00418ce0 f i main.obj
 0001:00017d10       ??1?$CTempBuffer@D$0BAA@VCCRTAllocator@ATL@@@ATL@@QAE@XZ 00418d10 f i main.obj
 0001:00017d50       ??B?$CTempBuffer@D$0BAA@VCCRTAllocator@ATL@@@ATL@@QBEPADXZ 00418d50 f i main.obj
 0001:00017d70       ?Allocate@?$CTempBuffer@D$0BAA@VCCRTAllocator@ATL@@@ATL@@QAEPADI@Z 00418d70 f i main.obj
 0001:00017dc0       ??0?$CTempBuffer@E$0BAA@VCCRTAllocator@ATL@@@ATL@@QAE@XZ 00418dc0 f i main.obj
 0001:00017df0       ??1?$CTempBuffer@E$0BAA@VCCRTAllocator@ATL@@@ATL@@QAE@XZ 00418df0 f i main.obj
 0001:00017e30       ??B?$CTempBuffer@E$0BAA@VCCRTAllocator@ATL@@@ATL@@QBEPAEXZ 00418e30 f i main.obj
 0001:00017e50       ?Allocate@?$CTempBuffer@E$0BAA@VCCRTAllocator@ATL@@@ATL@@QAEPAEI@Z 00418e50 f i main.obj
 0001:00017ea0       ?InitLibId@?$CAtlModuleT@VCComModule@ATL@@@ATL@@SAXXZ 00418ea0 f i main.obj
 0001:00017eb0       ?GetAppId@?$CAtlModuleT@VCComModule@ATL@@@ATL@@SAPB_WXZ 00418eb0 f i main.obj
 0001:00017ec0       ?FindKey@?$CSimpleMap@PADPA_WVCExpansionVectorEqualHelper@ATL@@@ATL@@QBEHABQAD@Z 00418ec0 f i main.obj
 0001:00017f50       ?IsEqualKey@CExpansionVectorEqualHelper@ATL@@SA_NQAD0@Z 00418f50 f i main.obj
 0001:00017f90       ?InternalSetAtIndex@?$CSimpleMap@PADPA_WVCExpansionVectorEqualHelper@ATL@@@ATL@@QAEXHABQADABQA_W@Z 00418f90 f i main.obj
 0001:000180d0       ?Free@?$CAutoVectorPtr@D@ATL@@QAEXXZ 004190d0 f i main.obj
 0001:00018130       ?Free@?$CAutoVectorPtr@_W@ATL@@QAEXXZ 00419130 f i main.obj
 0001:00018190       ?AllocateBytes@?$CTempBuffer@D$0EAA@VCCRTAllocator@ATL@@@ATL@@QAEPADI@Z 00419190 f i main.obj
 0001:00018220       ?FreeHeap@?$CTempBuffer@D$0EAA@VCCRTAllocator@ATL@@@ATL@@AAEXXZ 00419220 f i main.obj
 0001:00018260       ?AllocateBytes@?$CTempBuffer@D$0BAA@VCCRTAllocator@ATL@@@ATL@@QAEPADI@Z 00419260 f i main.obj
 0001:000182f0       ?FreeHeap@?$CTempBuffer@D$0BAA@VCCRTAllocator@ATL@@@ATL@@AAEXXZ 004192f0 f i main.obj
 0001:00018330       ?AllocateBytes@?$CTempBuffer@E$0BAA@VCCRTAllocator@ATL@@@ATL@@QAEPAEI@Z 00419330 f i main.obj
 0001:000183c0       ?FreeHeap@?$CTempBuffer@E$0BAA@VCCRTAllocator@ATL@@@ATL@@AAEXXZ 004193c0 f i main.obj
 0001:00018400       ?GetData@CAtlSafeAllocBufferNode@?$CAtlSafeAllocBufferManager@VCCRTAllocator@ATL@@@_ATL_SAFE_ALLOCA_IMPL@ATL@@QAEPAXXZ 00419400 f i main.obj
 0001:00018420       ?AllocateHeap@?$CTempBuffer@D$0EAA@VCCRTAllocator@ATL@@@ATL@@AAEXI@Z 00419420 f i main.obj
 0001:00018490       ?AllocateHeap@?$CTempBuffer@D$0BAA@VCCRTAllocator@ATL@@@ATL@@AAEXI@Z 00419490 f i main.obj
 0001:00018500       ?AllocateHeap@?$CTempBuffer@E$0BAA@VCCRTAllocator@ATL@@@ATL@@AAEXI@Z 00419500 f i main.obj
 0001:00018570       ??0?$Wrapper@PAD@?$CSimpleMap@PADPA_WVCExpansionVectorEqualHelper@ATL@@@ATL@@QAE@ABQAD@Z 00419570 f i main.obj
 0001:000185a0       ??0?$Wrapper@PA_W@?$CSimpleMap@PADPA_WVCExpansionVectorEqualHelper@ATL@@@ATL@@QAE@ABQA_W@Z 004195a0 f i main.obj
 0001:000185d0       ??$AtlAdd@K@ATL@@YAJPAKKK@Z 004195d0 f i main.obj
 0001:00018610       ??$AtlAddThrow@K@ATL@@YAKKK@Z 00419610 f i main.obj
 0001:000186b0       ??$AtlMultiplyThrow@I@ATL@@YAIII@Z 004196b0 f i main.obj
 0001:00018750       ??$AtlMultiply@I@ATL@@YAJPAIII@Z 00419750 f i main.obj
 0001:000187c0       ??$?2PAD@?$Wrapper@PAD@?$CSimpleMap@PADPA_WVCExpansionVectorEqualHelper@ATL@@@ATL@@SAPAXIPAPAD@Z 004197c0 f i main.obj
 0001:000187d0       ??$?3PAD@?$Wrapper@PAD@?$CSimpleMap@PADPA_WVCExpansionVectorEqualHelper@ATL@@@ATL@@SAXPAXPAPAD@Z 004197d0 f i main.obj
 0001:000187e0       ??$?2PA_W@?$Wrapper@PA_W@?$CSimpleMap@PADPA_WVCExpansionVectorEqualHelper@ATL@@@ATL@@SAPAXIPAPA_W@Z 004197e0 f i main.obj
 0001:000187f0       ??$?3PA_W@?$Wrapper@PA_W@?$CSimpleMap@PADPA_WVCExpansionVectorEqualHelper@ATL@@@ATL@@SAXPAXPAPA_W@Z 004197f0 f i main.obj
 0001:00018800       ??0MainFrame@@QAE@XZ       00419800 f   main_frame.obj
 0001:000188d0       ??1MainFrame@@UAE@XZ       004198d0 f   main_frame.obj
 0001:000189a0       ?GetWindowClassName@MainFrame@@UBEPBDXZ 004199a0 f   main_frame.obj
 0001:000189c0       ?CreateControl@MainFrame@@UAEPAVCControlUI@DuiLib@@PBD@Z 004199c0 f   main_frame.obj
 0001:00018b40       ?OnFinalMessage@MainFrame@@UAEXPAUHWND__@@@Z 00419b40 f   main_frame.obj
 0001:00018bb0       ?GetSkinFile@MainFrame@@UAE?AV?$basic_string@DU?$char_traits@D@std@@V?$allocator@D@2@@std@@XZ 00419bb0 f   main_frame.obj
 0001:00018c00       ?GetSkinFolder@MainFrame@@UAE?AV?$basic_string@DU?$char_traits@D@std@@V?$allocator@D@2@@std@@XZ 00419c00 f   main_frame.obj
 0001:00018d20       ?OnClose@MainFrame@@UAEJIIJAAH@Z 00419d20 f   main_frame.obj
 0001:00018d40       ?OnSysCommand@MainFrame@@UAEJIIJAAH@Z 00419d40 f   main_frame.obj
 0001:00018ee0       ?HandleMessage@MainFrame@@UAEJIIJ@Z 00419ee0 f   main_frame.obj
 0001:00018f20       ?ResponseDefaultKeyEvent@MainFrame@@UAEJI@Z 00419f20 f   main_frame.obj
 0001:00018f50       ?OnTimer@MainFrame@@IAEXAAUtagTNotifyUI@DuiLib@@@Z 00419f50 f   main_frame.obj
 0001:00018f70       ?OnExit@MainFrame@@IAEXAAUtagTNotifyUI@DuiLib@@@Z 00419f70 f   main_frame.obj
 0001:00018fb0       ?Init@MainFrame@@UAEXXZ    00419fb0 f   main_frame.obj
 0001:00018fd0       ?GetBkColor@MainFrame@@QAEKXZ 00419fd0 f   main_frame.obj
 0001:00019040       ?SetBkColor@MainFrame@@QAEXK@Z 0041a040 f   main_frame.obj
 0001:000191c0       ?UpdateFriendsList@MainFrame@@AAEXXZ 0041a1c0 f   main_frame.obj
 0001:000196c0       ?UpdateGroupsList@MainFrame@@AAEXXZ 0041a6c0 f   main_frame.obj
 0001:000198b0       ?UpdateMicroBlogList@MainFrame@@AAEXXZ 0041a8b0 f   main_frame.obj
 0001:00019900       ?OnPrepare@MainFrame@@IAEXAAUtagTNotifyUI@DuiLib@@@Z 0041a900 f   main_frame.obj
 0001:00019a10       ?Notify@MainFrame@@MAEXAAUtagTNotifyUI@DuiLib@@@Z 0041aa10 f   main_frame.obj
 0001:0001b680       ?HandleCustomMessage@MainFrame@@UAEJIIJAAH@Z 0041c680 f   main_frame.obj
 0001:0001c240       ??_GMainFrame@@UAEPAXI@Z   0041d240 f i main_frame.obj
 0001:0001c240       ??_EMainFrame@@UAEPAXI@Z   0041d240 f i main_frame.obj
 0001:0001c290       ??0FriendListItemInfo@DuiLib@@QAE@XZ 0041d290 f i main_frame.obj
 0001:0001c340       ??0SkinChangedParam@@QAE@XZ 0041d340 f i main_frame.obj
 0001:0001c380       ??0SkinChangedParam@@QAE@ABU0@@Z 0041d380 f i main_frame.obj
 0001:0001c3d0       ??4FriendListItemInfo@DuiLib@@QAEAAU01@ABU01@@Z 0041d3d0 f i main_frame.obj
 0001:0001c470       ??0GroupsListItemInfo@DuiLib@@QAE@XZ 0041d470 f i main_frame.obj
 0001:0001c520       ??1GroupsListItemInfo@DuiLib@@QAE@XZ 0041d520 f i main_frame.obj
 0001:0001c5d0       ??1?$_Vector_iterator@V?$_Vector_val@UFriendListItemInfo@DuiLib@@V?$allocator@UFriendListItemInfo@DuiLib@@@std@@@std@@@std@@QAE@XZ 0041d5d0 f i main_frame.obj
 0001:0001c600       ??0?$_Vector_const_iterator@V?$_Vector_val@UFriendListItemInfo@DuiLib@@V?$allocator@UFriendListItemInfo@DuiLib@@@std@@@std@@@std@@QAE@ABV01@@Z 0041d600 f i main_frame.obj
 0001:0001c650       ??1?$_Vector_const_iterator@V?$_Vector_val@UFriendListItemInfo@DuiLib@@V?$allocator@UFriendListItemInfo@DuiLib@@@std@@@std@@@std@@QAE@XZ 0041d650 f i main_frame.obj
 0001:0001c680       ??0?$_Iterator012@Urandom_access_iterator_tag@std@@UFriendListItemInfo@DuiLib@@HPBU34@ABU34@U_Iterator_base12@2@@std@@QAE@ABU01@@Z 0041d680 f i main_frame.obj
 0001:0001c6c0       ??1?$_Iterator012@Urandom_access_iterator_tag@std@@UFriendListItemInfo@DuiLib@@HPBU34@ABU34@U_Iterator_base12@2@@std@@QAE@XZ 0041d6c0 f i main_frame.obj
 0001:0001c6f0       ??0?$basic_string@DU?$char_traits@D@std@@V?$allocator@D@2@@std@@QAE@XZ 0041d6f0 f i main_frame.obj
 0001:0001c790       ??0?$vector@UFriendListItemInfo@DuiLib@@V?$allocator@UFriendListItemInfo@DuiLib@@@std@@@std@@QAE@XZ 0041d790 f i main_frame.obj
 0001:0001c7e0       ??1?$vector@UFriendListItemInfo@DuiLib@@V?$allocator@UFriendListItemInfo@DuiLib@@@std@@@std@@QAE@XZ 0041d7e0 f i main_frame.obj
 0001:0001c860       ?begin@?$vector@UFriendListItemInfo@DuiLib@@V?$allocator@UFriendListItemInfo@DuiLib@@@std@@@std@@QAE?AV?$_Vector_iterator@V?$_Vector_val@UFriendListItemInfo@DuiLib@@V?$allocator@UFriendListItemInfo@DuiLib@@@std@@@std@@@2@XZ 0041d860 f i main_frame.obj
 0001:0001c8c0       ?end@?$vector@UFriendListItemInfo@DuiLib@@V?$allocator@UFriendListItemInfo@DuiLib@@@std@@@std@@QAE?AV?$_Vector_iterator@V?$_Vector_val@UFriendListItemInfo@DuiLib@@V?$allocator@UFriendListItemInfo@DuiLib@@@std@@@std@@@2@XZ 0041d8c0 f i main_frame.obj
 0001:0001c920       ?empty@?$vector@UFriendListItemInfo@DuiLib@@V?$allocator@UFriendListItemInfo@DuiLib@@@std@@@std@@QBE_NXZ 0041d920 f i main_frame.obj
 0001:0001c950       ?push_back@?$vector@UFriendListItemInfo@DuiLib@@V?$allocator@UFriendListItemInfo@DuiLib@@@std@@@std@@QAEXABUFriendListItemInfo@DuiLib@@@Z 0041d950 f i main_frame.obj
 0001:0001cac0       ?clear@?$vector@UFriendListItemInfo@DuiLib@@V?$allocator@UFriendListItemInfo@DuiLib@@@std@@@std@@QAEXXZ 0041dac0 f i main_frame.obj
 0001:0001cbf0       ??0?$ObserverImpl@HUSkinChangedParam@@@@QAE@XZ 0041dbf0 f i main_frame.obj
 0001:0001cc50       ??1?$ObserverImpl@HUSkinChangedParam@@@@UAE@XZ 0041dc50 f i main_frame.obj
 0001:0001cc90       ?AddReceiver@?$ObserverImpl@HUSkinChangedParam@@@@UAEXPAV?$ReceiverImplBase@HUSkinChangedParam@@@@@Z 0041dc90 f i main_frame.obj
 0001:0001cd10       ?RemoveReceiver@?$ObserverImpl@HUSkinChangedParam@@@@UAEXPAV?$ReceiverImplBase@HUSkinChangedParam@@@@@Z 0041dd10 f i main_frame.obj
 0001:0001cea0       ?Broadcast@?$ObserverImpl@HUSkinChangedParam@@@@UAEHUSkinChangedParam@@@Z 0041dea0 f i main_frame.obj
 0001:0001d050       ?Notify@?$ObserverImpl@HUSkinChangedParam@@@@UAEHUSkinChangedParam@@@Z 0041e050 f i main_frame.obj
 0001:0001d200       ??D?$_Vector_const_iterator@V?$_Vector_val@UFriendListItemInfo@DuiLib@@V?$allocator@UFriendListItemInfo@DuiLib@@@std@@@std@@@std@@QBEABUFriendListItemInfo@DuiLib@@XZ 0041e200 f i main_frame.obj
 0001:0001d2f0       ??C?$_Vector_const_iterator@V?$_Vector_val@UFriendListItemInfo@DuiLib@@V?$allocator@UFriendListItemInfo@DuiLib@@@std@@@std@@@std@@QBEPBUFriendListItemInfo@DuiLib@@XZ 0041e2f0 f i main_frame.obj
 0001:0001d320       ??E?$_Vector_const_iterator@V?$_Vector_val@UFriendListItemInfo@DuiLib@@V?$allocator@UFriendListItemInfo@DuiLib@@@std@@@std@@@std@@QAEAAV01@XZ 0041e320 f i main_frame.obj
 0001:0001d400       ??9?$_Vector_const_iterator@V?$_Vector_val@UFriendListItemInfo@DuiLib@@V?$allocator@UFriendListItemInfo@DuiLib@@@std@@@std@@@std@@QBE_NABV01@@Z 0041e400 f i main_frame.obj
 0001:0001d450       ??_G?$ObserverImpl@HUSkinChangedParam@@@@UAEPAXI@Z 0041e450 f i main_frame.obj
 0001:0001d450       ??_E?$ObserverImpl@HUSkinChangedParam@@@@UAEPAXI@Z 0041e450 f i main_frame.obj
 0001:0001d4a0       ??0?$ObserverImplBase@HUSkinChangedParam@@@@QAE@XZ 0041e4a0 f i main_frame.obj
 0001:0001d4d0       ??1?$map@HPAV?$ReceiverImplBase@HUSkinChangedParam@@@@U?$less@H@std@@V?$allocator@U?$pair@$$CBHPAV?$ReceiverImplBase@HUSkinChangedParam@@@@@std@@@3@@std@@QAE@XZ 0041e4d0 f i main_frame.obj
 0001:0001d500       ??1?$_Tree_iterator@V?$_Tree_val@V?$_Tmap_traits@HPAV?$ReceiverImplBase@HUSkinChangedParam@@@@U?$less@H@std@@V?$allocator@U?$pair@$$CBHPAV?$ReceiverImplBase@HUSkinChangedParam@@@@@std@@@3@$0A@@std@@@std@@@std@@QAE@XZ 0041e500 f i main_frame.obj
 0001:0001d530       ??0?$_Tree_const_iterator@V?$_Tree_val@V?$_Tmap_traits@HPAV?$ReceiverImplBase@HUSkinChangedParam@@@@U?$less@H@std@@V?$allocator@U?$pair@$$CBHPAV?$ReceiverImplBase@HUSkinChangedParam@@@@@std@@@3@$0A@@std@@@std@@@std@@QAE@ABV01@@Z 0041e530 f i main_frame.obj
 0001:0001d570       ??1?$_Tree_const_iterator@V?$_Tree_val@V?$_Tmap_traits@HPAV?$ReceiverImplBase@HUSkinChangedParam@@@@U?$less@H@std@@V?$allocator@U?$pair@$$CBHPAV?$ReceiverImplBase@HUSkinChangedParam@@@@@std@@@3@$0A@@std@@@std@@@std@@QAE@XZ 0041e570 f i main_frame.obj
 0001:0001d5a0       ??0?$_Tree_unchecked_const_iterator@V?$_Tree_val@V?$_Tmap_traits@HPAV?$ReceiverImplBase@HUSkinChangedParam@@@@U?$less@H@std@@V?$allocator@U?$pair@$$CBHPAV?$ReceiverImplBase@HUSkinChangedParam@@@@@std@@@3@$0A@@std@@@std@@U_Iterator_base12@2@@std@@QAE@ABV01@@Z 0041e5a0 f i main_frame.obj
 0001:0001d5f0       ??1?$_Tree_unchecked_const_iterator@V?$_Tree_val@V?$_Tmap_traits@HPAV?$ReceiverImplBase@HUSkinChangedParam@@@@U?$less@H@std@@V?$allocator@U?$pair@$$CBHPAV?$ReceiverImplBase@HUSkinChangedParam@@@@@std@@@3@$0A@@std@@@std@@U_Iterator_base12@2@@std@@QAE@XZ 0041e5f0 f i main_frame.obj
 0001:0001d620       ??0?$_Iterator012@Ubidirectional_iterator_tag@std@@U?$pair@$$CBHPAV?$ReceiverImplBase@HUSkinChangedParam@@@@@2@HPBU32@ABU32@U_Iterator_base12@2@@std@@QAE@ABU01@@Z 0041e620 f i main_frame.obj
 0001:0001d660       ??1?$_Iterator012@Ubidirectional_iterator_tag@std@@U?$pair@$$CBHPAV?$ReceiverImplBase@HUSkinChangedParam@@@@@2@HPBU32@ABU32@U_Iterator_base12@2@@std@@QAE@XZ 0041e660 f i main_frame.obj
 0001:0001d690       ?erase@?$vector@UFriendListItemInfo@DuiLib@@V?$allocator@UFriendListItemInfo@DuiLib@@@std@@@std@@QAE?AV?$_Vector_iterator@V?$_Vector_val@UFriendListItemInfo@DuiLib@@V?$allocator@UFriendListItemInfo@DuiLib@@@std@@@std@@@2@V?$_Vector_const_iterator@V?$_Vector_val@UFriendListItemInfo@DuiLib@@V?$allocator@UFriendListItemInfo@DuiLib@@@std@@@std@@@2@0@Z 0041e690 f i main_frame.obj
 0001:0001d8f0       ?_Inside@?$vector@UFriendListItemInfo@DuiLib@@V?$allocator@UFriendListItemInfo@DuiLib@@@std@@@std@@IBE_NPBUFriendListItemInfo@DuiLib@@@Z 0041e8f0 f i main_frame.obj
 0001:0001d950       ?_Reserve@?$vector@UFriendListItemInfo@DuiLib@@V?$allocator@UFriendListItemInfo@DuiLib@@@std@@@std@@IAEXI@Z 0041e950 f i main_frame.obj
 0001:0001d9f0       ?_Tidy@?$vector@UFriendListItemInfo@DuiLib@@V?$allocator@UFriendListItemInfo@DuiLib@@@std@@@std@@IAEXXZ 0041e9f0 f i main_frame.obj
 0001:0001daa0       ?_Orphan_range@?$vector@UFriendListItemInfo@DuiLib@@V?$allocator@UFriendListItemInfo@DuiLib@@@std@@@std@@IBEXPAUFriendListItemInfo@DuiLib@@0@Z 0041eaa0 f i main_frame.obj
 0001:0001dbf0       ??0?$_Vector_val@UFriendListItemInfo@DuiLib@@V?$allocator@UFriendListItemInfo@DuiLib@@@std@@@std@@QAE@V?$allocator@UFriendListItemInfo@DuiLib@@@1@@Z 0041ebf0 f i main_frame.obj
 0001:0001dd50       ??1?$_Vector_val@UFriendListItemInfo@DuiLib@@V?$allocator@UFriendListItemInfo@DuiLib@@@std@@@std@@QAE@XZ 0041ed50 f i main_frame.obj
 0001:0001de60       ??0?$allocator@UFriendListItemInfo@DuiLib@@@std@@QAE@XZ 0041ee60 f i main_frame.obj
 0001:0001de80       ??0?$map@HPAV?$ReceiverImplBase@HUSkinChangedParam@@@@U?$less@H@std@@V?$allocator@U?$pair@$$CBHPAV?$ReceiverImplBase@HUSkinChangedParam@@@@@std@@@3@@std@@QAE@XZ 0041ee80 f i main_frame.obj
 0001:0001ded0       ??A?$map@HPAV?$ReceiverImplBase@HUSkinChangedParam@@@@U?$less@H@std@@V?$allocator@U?$pair@$$CBHPAV?$ReceiverImplBase@HUSkinChangedParam@@@@@std@@@3@@std@@QAEAAPAV?$ReceiverImplBase@HUSkinChangedParam@@@@ABH@Z 0041eed0 f i main_frame.obj
 0001:0001e0f0       ??1?$_Tree@V?$_Tmap_traits@HPAV?$ReceiverImplBase@HUSkinChangedParam@@@@U?$less@H@std@@V?$allocator@U?$pair@$$CBHPAV?$ReceiverImplBase@HUSkinChangedParam@@@@@std@@@3@$0A@@std@@@std@@QAE@XZ 0041f0f0 f i main_frame.obj
 0001:0001e170       ?begin@?$_Tree@V?$_Tmap_traits@HPAV?$ReceiverImplBase@HUSkinChangedParam@@@@U?$less@H@std@@V?$allocator@U?$pair@$$CBHPAV?$ReceiverImplBase@HUSkinChangedParam@@@@@std@@@3@$0A@@std@@@std@@QAE?AV?$_Tree_iterator@V?$_Tree_val@V?$_Tmap_traits@HPAV?$ReceiverImplBase@HUSkinChangedParam@@@@U?$less@H@std@@V?$allocator@U?$pair@$$CBHPAV?$ReceiverImplBase@HUSkinChangedParam@@@@@std@@@3@$0A@@std@@@std@@@2@XZ 0041f170 f i main_frame.obj
 0001:0001e1e0       ?end@?$_Tree@V?$_Tmap_traits@HPAV?$ReceiverImplBase@HUSkinChangedParam@@@@U?$less@H@std@@V?$allocator@U?$pair@$$CBHPAV?$ReceiverImplBase@HUSkinChangedParam@@@@@std@@@3@$0A@@std@@@std@@QAE?AV?$_Tree_iterator@V?$_Tree_val@V?$_Tmap_traits@HPAV?$ReceiverImplBase@HUSkinChangedParam@@@@U?$less@H@std@@V?$allocator@U?$pair@$$CBHPAV?$ReceiverImplBase@HUSkinChangedParam@@@@@std@@@3@$0A@@std@@@std@@@2@XZ 0041f1e0 f i main_frame.obj
 0001:0001e240       ?erase@?$_Tree@V?$_Tmap_traits@HPAV?$ReceiverImplBase@HUSkinChangedParam@@@@U?$less@H@std@@V?$allocator@U?$pair@$$CBHPAV?$ReceiverImplBase@HUSkinChangedParam@@@@@std@@@3@$0A@@std@@@std@@QAE?AV?$_Tree_iterator@V?$_Tree_val@V?$_Tmap_traits@HPAV?$ReceiverImplBase@HUSkinChangedParam@@@@U?$less@H@std@@V?$allocator@U?$pair@$$CBHPAV?$ReceiverImplBase@HUSkinChangedParam@@@@@std@@@3@$0A@@std@@@std@@@2@V?$_Tree_const_iterator@V?$_Tree_val@V?$_Tmap_traits@HPAV?$ReceiverImplBase@HUSkinChangedParam@@@@U?$less@H@std@@V?$allocator@U?$pair@$$CBHPAV?$ReceiverImplBase@HUSkinChangedParam@@@@@std@@@3@$0A@@std@@@std@@@2@@Z 0041f240 f i main_frame.obj
 0001:0001ec70       ??8?$_Vector_const_iterator@V?$_Vector_val@UFriendListItemInfo@DuiLib@@V?$allocator@UFriendListItemInfo@DuiLib@@@std@@@std@@@std@@QBE_NABV01@@Z 0041fc70 f i main_frame.obj
 0001:0001ecc0       ??0?$_Vector_iterator@V?$_Vector_val@UFriendListItemInfo@DuiLib@@V?$allocator@UFriendListItemInfo@DuiLib@@@std@@@std@@@std@@QAE@PAUFriendListItemInfo@DuiLib@@PBU_Container_base12@1@@Z 0041fcc0 f i main_frame.obj
 0001:0001ed00       ??C?$_Tree_iterator@V?$_Tree_val@V?$_Tmap_traits@HPAV?$ReceiverImplBase@HUSkinChangedParam@@@@U?$less@H@std@@V?$allocator@U?$pair@$$CBHPAV?$ReceiverImplBase@HUSkinChangedParam@@@@@std@@@3@$0A@@std@@@std@@@std@@QBEPAU?$pair@$$CBHPAV?$ReceiverImplBase@HUSkinChangedParam@@@@@1@XZ 0041fd00 f i main_frame.obj
 0001:0001ed30       ??E?$_Tree_iterator@V?$_Tree_val@V?$_Tmap_traits@HPAV?$ReceiverImplBase@HUSkinChangedParam@@@@U?$less@H@std@@V?$allocator@U?$pair@$$CBHPAV?$ReceiverImplBase@HUSkinChangedParam@@@@@std@@@3@$0A@@std@@@std@@@std@@QAEAAV01@XZ 0041fd30 f i main_frame.obj
 0001:0001ed60       ??9?$_Tree_const_iterator@V?$_Tree_val@V?$_Tmap_traits@HPAV?$ReceiverImplBase@HUSkinChangedParam@@@@U?$less@H@std@@V?$allocator@U?$pair@$$CBHPAV?$ReceiverImplBase@HUSkinChangedParam@@@@@std@@@3@$0A@@std@@@std@@@std@@QBE_NABV01@@Z 0041fd60 f i main_frame.obj
 0001:0001edb0       ??0?$_Vector_iterator@V?$_Vector_val@UFriendListItemInfo@DuiLib@@V?$allocator@UFriendListItemInfo@DuiLib@@@std@@@std@@@std@@QAE@ABV01@@Z 0041fdb0 f i main_frame.obj
 0001:0001edf0       ??4?$_Tree_iterator@V?$_Tree_val@V?$_Tmap_traits@HPAV?$ReceiverImplBase@HUSkinChangedParam@@@@U?$less@H@std@@V?$allocator@U?$pair@$$CBHPAV?$ReceiverImplBase@HUSkinChangedParam@@@@@std@@@3@$0A@@std@@@std@@@std@@QAEAAV01@ABV01@@Z 0041fdf0 f i main_frame.obj
 0001:0001ee30       ??4?$_Tree_const_iterator@V?$_Tree_val@V?$_Tmap_traits@HPAV?$ReceiverImplBase@HUSkinChangedParam@@@@U?$less@H@std@@V?$allocator@U?$pair@$$CBHPAV?$ReceiverImplBase@HUSkinChangedParam@@@@@std@@@3@$0A@@std@@@std@@@std@@QAEAAV01@ABV01@@Z 0041fe30 f i main_frame.obj
 0001:0001ee70       ??4?$_Tree_unchecked_const_iterator@V?$_Tree_val@V?$_Tmap_traits@HPAV?$ReceiverImplBase@HUSkinChangedParam@@@@U?$less@H@std@@V?$allocator@U?$pair@$$CBHPAV?$ReceiverImplBase@HUSkinChangedParam@@@@@std@@@3@$0A@@std@@@std@@U_Iterator_base12@2@@std@@QAEAAV01@ABV01@@Z 0041fe70 f i main_frame.obj
 0001:0001eec0       ??4?$_Iterator012@Ubidirectional_iterator_tag@std@@U?$pair@$$CBHPAV?$ReceiverImplBase@HUSkinChangedParam@@@@@2@HPBU32@ABU32@U_Iterator_base12@2@@std@@QAEAAU01@ABU01@@Z 0041fec0 f i main_frame.obj
 0001:0001ef00       ?reserve@?$vector@UFriendListItemInfo@DuiLib@@V?$allocator@UFriendListItemInfo@DuiLib@@@std@@@std@@QAEXI@Z 0041ff00 f i main_frame.obj
 0001:0001f0e0       ?capacity@?$vector@UFriendListItemInfo@DuiLib@@V?$allocator@UFriendListItemInfo@DuiLib@@@std@@@std@@QBEIXZ 004200e0 f i main_frame.obj
 0001:0001f110       ?_Make_iter@?$vector@UFriendListItemInfo@DuiLib@@V?$allocator@UFriendListItemInfo@DuiLib@@@std@@@std@@QBE?AV?$_Vector_iterator@V?$_Vector_val@UFriendListItemInfo@DuiLib@@V?$allocator@UFriendListItemInfo@DuiLib@@@std@@@std@@@2@V?$_Vector_const_iterator@V?$_Vector_val@UFriendListItemInfo@DuiLib@@V?$allocator@UFriendListItemInfo@DuiLib@@@std@@@std@@@2@@Z 00420110 f i main_frame.obj
 0001:0001f1c0       ?size@?$vector@UFriendListItemInfo@DuiLib@@V?$allocator@UFriendListItemInfo@DuiLib@@@std@@@std@@QBEIXZ 004201c0 f i main_frame.obj
 0001:0001f1f0       ?max_size@?$vector@UFriendListItemInfo@DuiLib@@V?$allocator@UFriendListItemInfo@DuiLib@@@std@@@std@@QBEIXZ 004201f0 f i main_frame.obj
 0001:0001f220       ?_Destroy@?$vector@UFriendListItemInfo@DuiLib@@V?$allocator@UFriendListItemInfo@DuiLib@@@std@@@std@@IAEXPAUFriendListItemInfo@DuiLib@@0@Z 00420220 f i main_frame.obj
 0001:0001f270       ?_Grow_to@?$vector@UFriendListItemInfo@DuiLib@@V?$allocator@UFriendListItemInfo@DuiLib@@@std@@@std@@IBEII@Z 00420270 f i main_frame.obj
 0001:0001f310       ?_Xlen@?$vector@UFriendListItemInfo@DuiLib@@V?$allocator@UFriendListItemInfo@DuiLib@@@std@@@std@@IBEXXZ 00420310 f i main_frame.obj
 0001:0001f340       ??0?$allocator@UFriendListItemInfo@DuiLib@@@std@@QAE@ABV01@@Z 00420340 f i main_frame.obj
 0001:0001f360       ?deallocate@?$allocator@UFriendListItemInfo@DuiLib@@@std@@QAEXPAUFriendListItemInfo@DuiLib@@I@Z 00420360 f i main_frame.obj
 0001:0001f3a0       ??0?$_Tree@V?$_Tmap_traits@HPAV?$ReceiverImplBase@HUSkinChangedParam@@@@U?$less@H@std@@V?$allocator@U?$pair@$$CBHPAV?$ReceiverImplBase@HUSkinChangedParam@@@@@std@@@3@$0A@@std@@@std@@QAE@ABU?$less@H@1@ABV?$allocator@U?$pair@$$CBHPAV?$ReceiverImplBase@HUSkinChangedParam@@@@@std@@@1@@Z 004203a0 f i main_frame.obj
 0001:0001f400       ?lower_bound@?$_Tree@V?$_Tmap_traits@HPAV?$ReceiverImplBase@HUSkinChangedParam@@@@U?$less@H@std@@V?$allocator@U?$pair@$$CBHPAV?$ReceiverImplBase@HUSkinChangedParam@@@@@std@@@3@$0A@@std@@@std@@QAE?AV?$_Tree_iterator@V?$_Tree_val@V?$_Tmap_traits@HPAV?$ReceiverImplBase@HUSkinChangedParam@@@@U?$less@H@std@@V?$allocator@U?$pair@$$CBHPAV?$ReceiverImplBase@HUSkinChangedParam@@@@@std@@@3@$0A@@std@@@std@@@2@ABH@Z 00420400 f i main_frame.obj
 0001:0001f470       ?_Lmost@?$_Tree@V?$_Tmap_traits@HPAV?$ReceiverImplBase@HUSkinChangedParam@@@@U?$less@H@std@@V?$allocator@U?$pair@$$CBHPAV?$ReceiverImplBase@HUSkinChangedParam@@@@@std@@@3@$0A@@std@@@std@@IBEAAPAU_Node@?$_Tree_nod@V?$_Tmap_traits@HPAV?$ReceiverImplBase@HUSkinChangedParam@@@@U?$less@H@std@@V?$allocator@U?$pair@$$CBHPAV?$ReceiverImplBase@HUSkinChangedParam@@@@@std@@@3@$0A@@std@@@2@XZ 00420470 f i main_frame.obj
 0001:0001f4b0       ?_Lrotate@?$_Tree@V?$_Tmap_traits@HPAV?$ReceiverImplBase@HUSkinChangedParam@@@@U?$less@H@std@@V?$allocator@U?$pair@$$CBHPAV?$ReceiverImplBase@HUSkinChangedParam@@@@@std@@@3@$0A@@std@@@std@@IAEXPAU_Node@?$_Tree_nod@V?$_Tmap_traits@HPAV?$ReceiverImplBase@HUSkinChangedParam@@@@U?$less@H@std@@V?$allocator@U?$pair@$$CBHPAV?$ReceiverImplBase@HUSkinChangedParam@@@@@std@@@3@$0A@@std@@@2@@Z 004204b0 f i main_frame.obj
 0001:0001f650       ?_Rmost@?$_Tree@V?$_Tmap_traits@HPAV?$ReceiverImplBase@HUSkinChangedParam@@@@U?$less@H@std@@V?$allocator@U?$pair@$$CBHPAV?$ReceiverImplBase@HUSkinChangedParam@@@@@std@@@3@$0A@@std@@@std@@IBEAAPAU_Node@?$_Tree_nod@V?$_Tmap_traits@HPAV?$ReceiverImplBase@HUSkinChangedParam@@@@U?$less@H@std@@V?$allocator@U?$pair@$$CBHPAV?$ReceiverImplBase@HUSkinChangedParam@@@@@std@@@3@$0A@@std@@@2@XZ 00420650 f i main_frame.obj
 0001:0001f690       ?_Root@?$_Tree@V?$_Tmap_traits@HPAV?$ReceiverImplBase@HUSkinChangedParam@@@@U?$less@H@std@@V?$allocator@U?$pair@$$CBHPAV?$ReceiverImplBase@HUSkinChangedParam@@@@@std@@@3@$0A@@std@@@std@@IBEAAPAU_Node@?$_Tree_nod@V?$_Tmap_traits@HPAV?$ReceiverImplBase@HUSkinChangedParam@@@@U?$less@H@std@@V?$allocator@U?$pair@$$CBHPAV?$ReceiverImplBase@HUSkinChangedParam@@@@@std@@@3@$0A@@std@@@2@XZ 00420690 f i main_frame.obj
 0001:0001f6d0       ?_Rrotate@?$_Tree@V?$_Tmap_traits@HPAV?$ReceiverImplBase@HUSkinChangedParam@@@@U?$less@H@std@@V?$allocator@U?$pair@$$CBHPAV?$ReceiverImplBase@HUSkinChangedParam@@@@@std@@@3@$0A@@std@@@std@@IAEXPAU_Node@?$_Tree_nod@V?$_Tmap_traits@HPAV?$ReceiverImplBase@HUSkinChangedParam@@@@U?$less@H@std@@V?$allocator@U?$pair@$$CBHPAV?$ReceiverImplBase@HUSkinChangedParam@@@@@std@@@3@$0A@@std@@@2@@Z 004206d0 f i main_frame.obj
 0001:0001f870       ?_Orphan_ptr@?$_Tree@V?$_Tmap_traits@HPAV?$ReceiverImplBase@HUSkinChangedParam@@@@U?$less@H@std@@V?$allocator@U?$pair@$$CBHPAV?$ReceiverImplBase@HUSkinChangedParam@@@@@std@@@3@$0A@@std@@@std@@IBEXAAV12@PAU_Node@?$_Tree_nod@V?$_Tmap_traits@HPAV?$ReceiverImplBase@HUSkinChangedParam@@@@U?$less@H@std@@V?$allocator@U?$pair@$$CBHPAV?$ReceiverImplBase@HUSkinChangedParam@@@@@std@@@3@$0A@@std@@@2@@Z 00420870 f i main_frame.obj
 0001:0001f9c0       ?_Tidy@?$_Tree@V?$_Tmap_traits@HPAV?$ReceiverImplBase@HUSkinChangedParam@@@@U?$less@H@std@@V?$allocator@U?$pair@$$CBHPAV?$ReceiverImplBase@HUSkinChangedParam@@@@@std@@@3@$0A@@std@@@std@@IAEXXZ 004209c0 f i main_frame.obj
 0001:0001faf0       ??1?$_Tree_val@V?$_Tmap_traits@HPAV?$ReceiverImplBase@HUSkinChangedParam@@@@U?$less@H@std@@V?$allocator@U?$pair@$$CBHPAV?$ReceiverImplBase@HUSkinChangedParam@@@@@std@@@3@$0A@@std@@@std@@QAE@XZ 00420af0 f i main_frame.obj
 0001:0001fb80       ?_Color@?$_Tree_val@V?$_Tmap_traits@HPAV?$ReceiverImplBase@HUSkinChangedParam@@@@U?$less@H@std@@V?$allocator@U?$pair@$$CBHPAV?$ReceiverImplBase@HUSkinChangedParam@@@@@std@@@3@$0A@@std@@@std@@SAAADPAU_Node@?$_Tree_nod@V?$_Tmap_traits@HPAV?$ReceiverImplBase@HUSkinChangedParam@@@@U?$less@H@std@@V?$allocator@U?$pair@$$CBHPAV?$ReceiverImplBase@HUSkinChangedParam@@@@@std@@@3@$0A@@std@@@2@@Z 00420b80 f i main_frame.obj
 0001:0001fb90       ?_Isnil@?$_Tree_val@V?$_Tmap_traits@HPAV?$ReceiverImplBase@HUSkinChangedParam@@@@U?$less@H@std@@V?$allocator@U?$pair@$$CBHPAV?$ReceiverImplBase@HUSkinChangedParam@@@@@std@@@3@$0A@@std@@@std@@SAAADPAU_Node@?$_Tree_nod@V?$_Tmap_traits@HPAV?$ReceiverImplBase@HUSkinChangedParam@@@@U?$less@H@std@@V?$allocator@U?$pair@$$CBHPAV?$ReceiverImplBase@HUSkinChangedParam@@@@@std@@@3@$0A@@std@@@2@@Z 00420b90 f i main_frame.obj
 0001:0001fba0       ?_Key@?$_Tree_val@V?$_Tmap_traits@HPAV?$ReceiverImplBase@HUSkinChangedParam@@@@U?$less@H@std@@V?$allocator@U?$pair@$$CBHPAV?$ReceiverImplBase@HUSkinChangedParam@@@@@std@@@3@$0A@@std@@@std@@SAAAHPAU_Node@?$_Tree_nod@V?$_Tmap_traits@HPAV?$ReceiverImplBase@HUSkinChangedParam@@@@U?$less@H@std@@V?$allocator@U?$pair@$$CBHPAV?$ReceiverImplBase@HUSkinChangedParam@@@@@std@@@3@$0A@@std@@@2@@Z 00420ba0 f i main_frame.obj
 0001:0001fbd0       ?_Left@?$_Tree_val@V?$_Tmap_traits@HPAV?$ReceiverImplBase@HUSkinChangedParam@@@@U?$less@H@std@@V?$allocator@U?$pair@$$CBHPAV?$ReceiverImplBase@HUSkinChangedParam@@@@@std@@@3@$0A@@std@@@std@@SAAAPAU_Node@?$_Tree_nod@V?$_Tmap_traits@HPAV?$ReceiverImplBase@HUSkinChangedParam@@@@U?$less@H@std@@V?$allocator@U?$pair@$$CBHPAV?$ReceiverImplBase@HUSkinChangedParam@@@@@std@@@3@$0A@@std@@@2@PAU342@@Z 00420bd0 f i main_frame.obj
 0001:0001fbe0       ?_Parent@?$_Tree_val@V?$_Tmap_traits@HPAV?$ReceiverImplBase@HUSkinChangedParam@@@@U?$less@H@std@@V?$allocator@U?$pair@$$CBHPAV?$ReceiverImplBase@HUSkinChangedParam@@@@@std@@@3@$0A@@std@@@std@@SAAAPAU_Node@?$_Tree_nod@V?$_Tmap_traits@HPAV?$ReceiverImplBase@HUSkinChangedParam@@@@U?$less@H@std@@V?$allocator@U?$pair@$$CBHPAV?$ReceiverImplBase@HUSkinChangedParam@@@@@std@@@3@$0A@@std@@@2@PAU342@@Z 00420be0 f i main_frame.obj
 0001:0001fbf0       ?_Right@?$_Tree_val@V?$_Tmap_traits@HPAV?$ReceiverImplBase@HUSkinChangedParam@@@@U?$less@H@std@@V?$allocator@U?$pair@$$CBHPAV?$ReceiverImplBase@HUSkinChangedParam@@@@@std@@@3@$0A@@std@@@std@@SAAAPAU_Node@?$_Tree_nod@V?$_Tmap_traits@HPAV?$ReceiverImplBase@HUSkinChangedParam@@@@U?$less@H@std@@V?$allocator@U?$pair@$$CBHPAV?$ReceiverImplBase@HUSkinChangedParam@@@@@std@@@3@$0A@@std@@@2@PAU342@@Z 00420bf0 f i main_frame.obj
 0001:0001fc00       ?_Myval@?$_Tree_val@V?$_Tmap_traits@HPAV?$ReceiverImplBase@HUSkinChangedParam@@@@U?$less@H@std@@V?$allocator@U?$pair@$$CBHPAV?$ReceiverImplBase@HUSkinChangedParam@@@@@std@@@3@$0A@@std@@@std@@SAAAU?$pair@$$CBHPAV?$ReceiverImplBase@HUSkinChangedParam@@@@@2@PAU_Node@?$_Tree_nod@V?$_Tmap_traits@HPAV?$ReceiverImplBase@HUSkinChangedParam@@@@U?$less@H@std@@V?$allocator@U?$pair@$$CBHPAV?$ReceiverImplBase@HUSkinChangedParam@@@@@std@@@3@$0A@@std@@@2@@Z 00420c00 f i main_frame.obj
 0001:0001fc10       ?_Max@?$_Tree_val@V?$_Tmap_traits@HPAV?$ReceiverImplBase@HUSkinChangedParam@@@@U?$less@H@std@@V?$allocator@U?$pair@$$CBHPAV?$ReceiverImplBase@HUSkinChangedParam@@@@@std@@@3@$0A@@std@@@std@@SAPAU_Node@?$_Tree_nod@V?$_Tmap_traits@HPAV?$ReceiverImplBase@HUSkinChangedParam@@@@U?$less@H@std@@V?$allocator@U?$pair@$$CBHPAV?$ReceiverImplBase@HUSkinChangedParam@@@@@std@@@3@$0A@@std@@@2@PAU342@@Z 00420c10 f i main_frame.obj
 0001:0001fc60       ?_Min@?$_Tree_val@V?$_Tmap_traits@HPAV?$ReceiverImplBase@HUSkinChangedParam@@@@U?$less@H@std@@V?$allocator@U?$pair@$$CBHPAV?$ReceiverImplBase@HUSkinChangedParam@@@@@std@@@3@$0A@@std@@@std@@SAPAU_Node@?$_Tree_nod@V?$_Tmap_traits@HPAV?$ReceiverImplBase@HUSkinChangedParam@@@@U?$less@H@std@@V?$allocator@U?$pair@$$CBHPAV?$ReceiverImplBase@HUSkinChangedParam@@@@@std@@@3@$0A@@std@@@2@PAU342@@Z 00420c60 f i main_frame.obj
 0001:0001fcb0       ??0?$allocator@U?$pair@$$CBHPAV?$ReceiverImplBase@HUSkinChangedParam@@@@@std@@@std@@QAE@XZ 00420cb0 f i main_frame.obj
 0001:0001fcd0       ?deallocate@?$allocator@U_Node@?$_Tree_nod@V?$_Tmap_traits@HPAV?$ReceiverImplBase@HUSkinChangedParam@@@@U?$less@H@std@@V?$allocator@U?$pair@$$CBHPAV?$ReceiverImplBase@HUSkinChangedParam@@@@@std@@@3@$0A@@std@@@std@@@std@@QAEXPAU_Node@?$_Tree_nod@V?$_Tmap_traits@HPAV?$ReceiverImplBase@HUSkinChangedParam@@@@U?$less@H@std@@V?$allocator@U?$pair@$$CBHPAV?$ReceiverImplBase@HUSkinChangedParam@@@@@std@@@3@$0A@@std@@@2@I@Z 00420cd0 f i main_frame.obj
 0001:0001fd10       ??0?$_Vector_const_iterator@V?$_Vector_val@UFriendListItemInfo@DuiLib@@V?$allocator@UFriendListItemInfo@DuiLib@@@std@@@std@@@std@@QAE@PAUFriendListItemInfo@DuiLib@@PBU_Container_base12@1@@Z 00420d10 f i main_frame.obj
 0001:0001fdb0       ??M?$_Vector_const_iterator@V?$_Vector_val@UFriendListItemInfo@DuiLib@@V?$allocator@UFriendListItemInfo@DuiLib@@@std@@@std@@@std@@QBE_NABV01@@Z 00420db0 f i main_frame.obj
 0001:0001fe00       ?_Compat@?$_Vector_const_iterator@V?$_Vector_val@UFriendListItemInfo@DuiLib@@V?$allocator@UFriendListItemInfo@DuiLib@@@std@@@std@@@std@@QBEXABV12@@Z 00420e00 f i main_frame.obj
 0001:0001fed0       ??0?$_Tree_iterator@V?$_Tree_val@V?$_Tmap_traits@HPAV?$ReceiverImplBase@HUSkinChangedParam@@@@U?$less@H@std@@V?$allocator@U?$pair@$$CBHPAV?$ReceiverImplBase@HUSkinChangedParam@@@@@std@@@3@$0A@@std@@@std@@@std@@QAE@PAU_Node@?$_Tree_nod@V?$_Tmap_traits@HPAV?$ReceiverImplBase@HUSkinChangedParam@@@@U?$less@H@std@@V?$allocator@U?$pair@$$CBHPAV?$ReceiverImplBase@HUSkinChangedParam@@@@@std@@@3@$0A@@std@@@1@PBV?$_Tree_val@V?$_Tmap_traits@HPAV?$ReceiverImplBase@HUSkinChangedParam@@@@U?$less@H@std@@V?$allocator@U?$pair@$$CBHPAV?$ReceiverImplBase@HUSkinChangedParam@@@@@std@@@3@$0A@@std@@@1@@Z 00420ed0 f i main_frame.obj
 0001:0001ff10       ??D?$_Tree_iterator@V?$_Tree_val@V?$_Tmap_traits@HPAV?$ReceiverImplBase@HUSkinChangedParam@@@@U?$less@H@std@@V?$allocator@U?$pair@$$CBHPAV?$ReceiverImplBase@HUSkinChangedParam@@@@@std@@@3@$0A@@std@@@std@@@std@@QBEAAU?$pair@$$CBHPAV?$ReceiverImplBase@HUSkinChangedParam@@@@@1@XZ 00420f10 f i main_frame.obj
 0001:0001ff40       ??E?$_Tree_const_iterator@V?$_Tree_val@V?$_Tmap_traits@HPAV?$ReceiverImplBase@HUSkinChangedParam@@@@U?$less@H@std@@V?$allocator@U?$pair@$$CBHPAV?$ReceiverImplBase@HUSkinChangedParam@@@@@std@@@3@$0A@@std@@@std@@@std@@QAEAAV01@XZ 00420f40 f i main_frame.obj
 0001:00020030       ??8?$_Tree_const_iterator@V?$_Tree_val@V?$_Tmap_traits@HPAV?$ReceiverImplBase@HUSkinChangedParam@@@@U?$less@H@std@@V?$allocator@U?$pair@$$CBHPAV?$ReceiverImplBase@HUSkinChangedParam@@@@@std@@@3@$0A@@std@@@std@@@std@@QBE_NABV01@@Z 00421030 f i main_frame.obj
 0001:00020120       ?_Mynode@?$_Tree_unchecked_const_iterator@V?$_Tree_val@V?$_Tmap_traits@HPAV?$ReceiverImplBase@HUSkinChangedParam@@@@U?$less@H@std@@V?$allocator@U?$pair@$$CBHPAV?$ReceiverImplBase@HUSkinChangedParam@@@@@std@@@3@$0A@@std@@@std@@U_Iterator_base12@2@@std@@QBEPAU_Node@?$_Tree_nod@V?$_Tmap_traits@HPAV?$ReceiverImplBase@HUSkinChangedParam@@@@U?$less@H@std@@V?$allocator@U?$pair@$$CBHPAV?$ReceiverImplBase@HUSkinChangedParam@@@@@std@@@3@$0A@@std@@@2@XZ 00421120 f i main_frame.obj
 0001:00020140       ??0?$pair@$$CBHPAV?$ReceiverImplBase@HUSkinChangedParam@@@@@std@@QAE@ABH$$QAPAV?$ReceiverImplBase@HUSkinChangedParam@@@@@Z 00421140 f i main_frame.obj
 0001:00020190       ??0?$_Iterator012@Urandom_access_iterator_tag@std@@UFriendListItemInfo@DuiLib@@HPBU34@ABU34@U_Iterator_base12@2@@std@@QAE@XZ 00421190 f i main_frame.obj
 0001:000201c0       ?allocate@?$allocator@UFriendListItemInfo@DuiLib@@@std@@QAEPAUFriendListItemInfo@DuiLib@@I@Z 004211c0 f i main_frame.obj
 0001:00020200       ?max_size@?$allocator@UFriendListItemInfo@DuiLib@@@std@@QBEIXZ 00421200 f i main_frame.obj
 0001:00020260       ?erase@?$_Tree@V?$_Tmap_traits@HPAV?$ReceiverImplBase@HUSkinChangedParam@@@@U?$less@H@std@@V?$allocator@U?$pair@$$CBHPAV?$ReceiverImplBase@HUSkinChangedParam@@@@@std@@@3@$0A@@std@@@std@@QAE?AV?$_Tree_iterator@V?$_Tree_val@V?$_Tmap_traits@HPAV?$ReceiverImplBase@HUSkinChangedParam@@@@U?$less@H@std@@V?$allocator@U?$pair@$$CBHPAV?$ReceiverImplBase@HUSkinChangedParam@@@@@std@@@3@$0A@@std@@@std@@@2@V?$_Tree_const_iterator@V?$_Tree_val@V?$_Tmap_traits@HPAV?$ReceiverImplBase@HUSkinChangedParam@@@@U?$less@H@std@@V?$allocator@U?$pair@$$CBHPAV?$ReceiverImplBase@HUSkinChangedParam@@@@@std@@@3@$0A@@std@@@std@@@2@0@Z 00421260 f i main_frame.obj
 0001:000204e0       ?_Lbound@?$_Tree@V?$_Tmap_traits@HPAV?$ReceiverImplBase@HUSkinChangedParam@@@@U?$less@H@std@@V?$allocator@U?$pair@$$CBHPAV?$ReceiverImplBase@HUSkinChangedParam@@@@@std@@@3@$0A@@std@@@std@@IAEPAU_Node@?$_Tree_nod@V?$_Tmap_traits@HPAV?$ReceiverImplBase@HUSkinChangedParam@@@@U?$less@H@std@@V?$allocator@U?$pair@$$CBHPAV?$ReceiverImplBase@HUSkinChangedParam@@@@@std@@@3@$0A@@std@@@2@ABH@Z 004214e0 f i main_frame.obj
 0001:000205d0       ??0?$_Tree_val@V?$_Tmap_traits@HPAV?$ReceiverImplBase@HUSkinChangedParam@@@@U?$less@H@std@@V?$allocator@U?$pair@$$CBHPAV?$ReceiverImplBase@HUSkinChangedParam@@@@@std@@@3@$0A@@std@@@std@@QAE@ABU?$less@H@1@V?$allocator@U?$pair@$$CBHPAV?$ReceiverImplBase@HUSkinChangedParam@@@@@std@@@1@@Z 004215d0 f i main_frame.obj
 0001:00020720       ??1?$_Tree_nod@V?$_Tmap_traits@HPAV?$ReceiverImplBase@HUSkinChangedParam@@@@U?$less@H@std@@V?$allocator@U?$pair@$$CBHPAV?$ReceiverImplBase@HUSkinChangedParam@@@@@std@@@3@$0A@@std@@@std@@QAE@XZ 00421720 f i main_frame.obj
 0001:00020830       ??0?$allocator@U?$pair@$$CBHPAV?$ReceiverImplBase@HUSkinChangedParam@@@@@std@@@std@@QAE@ABV01@@Z 00421830 f i main_frame.obj
 0001:00020850       ??0?$_Tree_const_iterator@V?$_Tree_val@V?$_Tmap_traits@HPAV?$ReceiverImplBase@HUSkinChangedParam@@@@U?$less@H@std@@V?$allocator@U?$pair@$$CBHPAV?$ReceiverImplBase@HUSkinChangedParam@@@@@std@@@3@$0A@@std@@@std@@@std@@QAE@PAU_Node@?$_Tree_nod@V?$_Tmap_traits@HPAV?$ReceiverImplBase@HUSkinChangedParam@@@@U?$less@H@std@@V?$allocator@U?$pair@$$CBHPAV?$ReceiverImplBase@HUSkinChangedParam@@@@@std@@@3@$0A@@std@@@1@PBV?$_Tree_val@V?$_Tmap_traits@HPAV?$ReceiverImplBase@HUSkinChangedParam@@@@U?$less@H@std@@V?$allocator@U?$pair@$$CBHPAV?$ReceiverImplBase@HUSkinChangedParam@@@@@std@@@3@$0A@@std@@@1@@Z 00421850 f i main_frame.obj
 0001:00020890       ??D?$_Tree_const_iterator@V?$_Tree_val@V?$_Tmap_traits@HPAV?$ReceiverImplBase@HUSkinChangedParam@@@@U?$less@H@std@@V?$allocator@U?$pair@$$CBHPAV?$ReceiverImplBase@HUSkinChangedParam@@@@@std@@@3@$0A@@std@@@std@@@std@@QBEABU?$pair@$$CBHPAV?$ReceiverImplBase@HUSkinChangedParam@@@@@1@XZ 00421890 f i main_frame.obj
 0001:00020980       ??E?$_Tree_unchecked_const_iterator@V?$_Tree_val@V?$_Tmap_traits@HPAV?$ReceiverImplBase@HUSkinChangedParam@@@@U?$less@H@std@@V?$allocator@U?$pair@$$CBHPAV?$ReceiverImplBase@HUSkinChangedParam@@@@@std@@@3@$0A@@std@@@std@@U_Iterator_base12@2@@std@@QAEAAV01@XZ 00421980 f i main_frame.obj
 0001:00020a90       ??0?$_Pair_base@$$CBHPAV?$ReceiverImplBase@HUSkinChangedParam@@@@@std@@QAE@ABH$$QAPAV?$ReceiverImplBase@HUSkinChangedParam@@@@@Z 00421a90 f i main_frame.obj
 0001:00020ae0       ??1?$_Tmap_traits@HPAV?$ReceiverImplBase@HUSkinChangedParam@@@@U?$less@H@std@@V?$allocator@U?$pair@$$CBHPAV?$ReceiverImplBase@HUSkinChangedParam@@@@@std@@@3@$0A@@std@@QAE@XZ 00421ae0 f i main_frame.obj
 0001:00020b10       ?clear@?$_Tree@V?$_Tmap_traits@HPAV?$ReceiverImplBase@HUSkinChangedParam@@@@U?$less@H@std@@V?$allocator@U?$pair@$$CBHPAV?$ReceiverImplBase@HUSkinChangedParam@@@@@std@@@3@$0A@@std@@@std@@QAEXXZ 00421b10 f i main_frame.obj
 0001:00020bb0       ??0?$_Tree_nod@V?$_Tmap_traits@HPAV?$ReceiverImplBase@HUSkinChangedParam@@@@U?$less@H@std@@V?$allocator@U?$pair@$$CBHPAV?$ReceiverImplBase@HUSkinChangedParam@@@@@std@@@3@$0A@@std@@@std@@QAE@ABU?$less@H@1@V?$allocator@U?$pair@$$CBHPAV?$ReceiverImplBase@HUSkinChangedParam@@@@@std@@@1@@Z 00421bb0 f i main_frame.obj
 0001:00020d00       ?allocate@?$allocator@U_Node@?$_Tree_nod@V?$_Tmap_traits@HPAV?$ReceiverImplBase@HUSkinChangedParam@@@@U?$less@H@std@@V?$allocator@U?$pair@$$CBHPAV?$ReceiverImplBase@HUSkinChangedParam@@@@@std@@@3@$0A@@std@@@std@@@std@@QAEPAU_Node@?$_Tree_nod@V?$_Tmap_traits@HPAV?$ReceiverImplBase@HUSkinChangedParam@@@@U?$less@H@std@@V?$allocator@U?$pair@$$CBHPAV?$ReceiverImplBase@HUSkinChangedParam@@@@@std@@@3@$0A@@std@@@2@I@Z 00421d00 f i main_frame.obj
 0001:00020d40       ??E?$_Tree_const_iterator@V?$_Tree_val@V?$_Tmap_traits@HPAV?$ReceiverImplBase@HUSkinChangedParam@@@@U?$less@H@std@@V?$allocator@U?$pair@$$CBHPAV?$ReceiverImplBase@HUSkinChangedParam@@@@@std@@@3@$0A@@std@@@std@@@std@@QAE?AV01@H@Z 00421d40 f i main_frame.obj
 0001:00020e40       ??0?$_Tree_unchecked_const_iterator@V?$_Tree_val@V?$_Tmap_traits@HPAV?$ReceiverImplBase@HUSkinChangedParam@@@@U?$less@H@std@@V?$allocator@U?$pair@$$CBHPAV?$ReceiverImplBase@HUSkinChangedParam@@@@@std@@@3@$0A@@std@@@std@@U_Iterator_base12@2@@std@@QAE@PAU_Node@?$_Tree_nod@V?$_Tmap_traits@HPAV?$ReceiverImplBase@HUSkinChangedParam@@@@U?$less@H@std@@V?$allocator@U?$pair@$$CBHPAV?$ReceiverImplBase@HUSkinChangedParam@@@@@std@@@3@$0A@@std@@@1@PBV?$_Tree_val@V?$_Tmap_traits@HPAV?$ReceiverImplBase@HUSkinChangedParam@@@@U?$less@H@std@@V?$allocator@U?$pair@$$CBHPAV?$ReceiverImplBase@HUSkinChangedParam@@@@@std@@@3@$0A@@std@@@1@@Z 00421e40 f i main_frame.obj
 0001:00020ee0       ??0?$_Iterator012@Ubidirectional_iterator_tag@std@@U?$pair@$$CBHPAV?$ReceiverImplBase@HUSkinChangedParam@@@@@2@HPBU32@ABU32@U_Iterator_base12@2@@std@@QAE@XZ 00421ee0 f i main_frame.obj
 0001:00020f10       ?_Erase@?$_Tree@V?$_Tmap_traits@HPAV?$ReceiverImplBase@HUSkinChangedParam@@@@U?$less@H@std@@V?$allocator@U?$pair@$$CBHPAV?$ReceiverImplBase@HUSkinChangedParam@@@@@std@@@3@$0A@@std@@@std@@IAEXPAU_Node@?$_Tree_nod@V?$_Tmap_traits@HPAV?$ReceiverImplBase@HUSkinChangedParam@@@@U?$less@H@std@@V?$allocator@U?$pair@$$CBHPAV?$ReceiverImplBase@HUSkinChangedParam@@@@@std@@@3@$0A@@std@@@2@@Z 00421f10 f i main_frame.obj
 0001:00020ff0       ??0?$_Tmap_traits@HPAV?$ReceiverImplBase@HUSkinChangedParam@@@@U?$less@H@std@@V?$allocator@U?$pair@$$CBHPAV?$ReceiverImplBase@HUSkinChangedParam@@@@@std@@@3@$0A@@std@@QAE@U?$less@H@1@@Z 00421ff0 f i main_frame.obj
 0001:00021030       ??$addressof@$$CBUFriendListItemInfo@DuiLib@@@std@@YAPBUFriendListItemInfo@DuiLib@@ABU12@@Z 00422030 f i main_frame.obj
 0001:00021040       ??$_Cons_val@V?$allocator@UFriendListItemInfo@DuiLib@@@std@@UFriendListItemInfo@DuiLib@@AAU34@@std@@YAXAAV?$allocator@UFriendListItemInfo@DuiLib@@@0@PAUFriendListItemInfo@DuiLib@@AAU23@@Z 00422040 f i main_frame.obj
 0001:00021070       ??$_Cons_val@V?$allocator@UFriendListItemInfo@DuiLib@@@std@@UFriendListItemInfo@DuiLib@@ABU34@@std@@YAXAAV?$allocator@UFriendListItemInfo@DuiLib@@@0@PAUFriendListItemInfo@DuiLib@@ABU23@@Z 00422070 f i main_frame.obj
 0001:000210a0       ??$_Move@PAUFriendListItemInfo@DuiLib@@PAU12@@std@@YAPAUFriendListItemInfo@DuiLib@@PAU12@00@Z 004220a0 f i main_frame.obj
 0001:00021100       ??$?0UFriendListItemInfo@DuiLib@@@?$allocator@U_Container_proxy@std@@@std@@QAE@ABV?$allocator@UFriendListItemInfo@DuiLib@@@1@@Z 00422100 f i main_frame.obj
 0001:00021120       ??$insert@U?$pair@$$CBHPAV?$ReceiverImplBase@HUSkinChangedParam@@@@@std@@@?$_Tree@V?$_Tmap_traits@HPAV?$ReceiverImplBase@HUSkinChangedParam@@@@U?$less@H@std@@V?$allocator@U?$pair@$$CBHPAV?$ReceiverImplBase@HUSkinChangedParam@@@@@std@@@3@$0A@@std@@@std@@QAE?AV?$_Tree_iterator@V?$_Tree_val@V?$_Tmap_traits@HPAV?$ReceiverImplBase@HUSkinChangedParam@@@@U?$less@H@std@@V?$allocator@U?$pair@$$CBHPAV?$ReceiverImplBase@HUSkinChangedParam@@@@@std@@@3@$0A@@std@@@std@@@1@V?$_Tree_const_iterator@V?$_Tree_val@V?$_Tmap_traits@HPAV?$ReceiverImplBase@HUSkinChangedParam@@@@U?$less@H@std@@V?$allocator@U?$pair@$$CBHPAV?$ReceiverImplBase@HUSkinChangedParam@@@@@std@@@3@$0A@@std@@@std@@@1@$$QAU?$pair@$$CBHPAV?$ReceiverImplBase@HUSkinChangedParam@@@@@1@@Z 00422120 f i main_frame.obj
 0001:00021210       ??$addressof@U?$pair@$$CBHPAV?$ReceiverImplBase@HUSkinChangedParam@@@@@std@@@std@@YAPAU?$pair@$$CBHPAV?$ReceiverImplBase@HUSkinChangedParam@@@@@0@AAU10@@Z 00422210 f i main_frame.obj
 0001:00021220       ??$_Dest_val@V?$allocator@U?$pair@$$CBHPAV?$ReceiverImplBase@HUSkinChangedParam@@@@@std@@@std@@U?$pair@$$CBHPAV?$ReceiverImplBase@HUSkinChangedParam@@@@@2@@std@@YAXAAV?$allocator@U?$pair@$$CBHPAV?$ReceiverImplBase@HUSkinChangedParam@@@@@std@@@0@PAU?$pair@$$CBHPAV?$ReceiverImplBase@HUSkinChangedParam@@@@@0@@Z 00422220 f i main_frame.obj
 0001:00021240       ??$_Umove@PAUFriendListItemInfo@DuiLib@@@?$vector@UFriendListItemInfo@DuiLib@@V?$allocator@UFriendListItemInfo@DuiLib@@@std@@@std@@IAEPAUFriendListItemInfo@DuiLib@@PAU23@00@Z 00422240 f i main_frame.obj
 0001:00021290       ??$_Destroy_range@V?$allocator@UFriendListItemInfo@DuiLib@@@std@@@std@@YAXPAUFriendListItemInfo@DuiLib@@0AAV?$allocator@UFriendListItemInfo@DuiLib@@@0@@Z 00422290 f i main_frame.obj
 0001:000212f0       ??$_Kfn@$$CBHPAV?$ReceiverImplBase@HUSkinChangedParam@@@@@?$_Tmap_traits@HPAV?$ReceiverImplBase@HUSkinChangedParam@@@@U?$less@H@std@@V?$allocator@U?$pair@$$CBHPAV?$ReceiverImplBase@HUSkinChangedParam@@@@@std@@@3@$0A@@std@@SAABHABU?$pair@$$CBHPAV?$ReceiverImplBase@HUSkinChangedParam@@@@@1@@Z 004222f0 f i main_frame.obj
 0001:00021300       ??$move@AAPAV?$ReceiverImplBase@HUSkinChangedParam@@@@@std@@YA$$QAPAV?$ReceiverImplBase@HUSkinChangedParam@@@@AAPAV1@@Z 00422300 f i main_frame.obj
 0001:00021310       ??$_Allocate@UFriendListItemInfo@DuiLib@@@std@@YAPAUFriendListItemInfo@DuiLib@@IPAU12@@Z 00422310 f i main_frame.obj
 0001:000213b0       ??$?0U_Node@?$_Tree_nod@V?$_Tmap_traits@HPAV?$ReceiverImplBase@HUSkinChangedParam@@@@U?$less@H@std@@V?$allocator@U?$pair@$$CBHPAV?$ReceiverImplBase@HUSkinChangedParam@@@@@std@@@3@$0A@@std@@@std@@@?$allocator@U_Container_proxy@std@@@std@@QAE@ABV?$allocator@U_Node@?$_Tree_nod@V?$_Tmap_traits@HPAV?$ReceiverImplBase@HUSkinChangedParam@@@@U?$less@H@std@@V?$allocator@U?$pair@$$CBHPAV?$ReceiverImplBase@HUSkinChangedParam@@@@@std@@@3@$0A@@std@@@std@@@1@@Z 004223b0 f i main_frame.obj
 0001:000213d0       ??$?0U?$pair@$$CBHPAV?$ReceiverImplBase@HUSkinChangedParam@@@@@std@@@?$allocator@U_Node@?$_Tree_nod@V?$_Tmap_traits@HPAV?$ReceiverImplBase@HUSkinChangedParam@@@@U?$less@H@std@@V?$allocator@U?$pair@$$CBHPAV?$ReceiverImplBase@HUSkinChangedParam@@@@@std@@@3@$0A@@std@@@std@@@std@@QAE@ABV?$allocator@U?$pair@$$CBHPAV?$ReceiverImplBase@HUSkinChangedParam@@@@@std@@@1@@Z 004223d0 f i main_frame.obj
 0001:000213f0       ??$_Allocate@U_Node@?$_Tree_nod@V?$_Tmap_traits@HPAV?$ReceiverImplBase@HUSkinChangedParam@@@@U?$less@H@std@@V?$allocator@U?$pair@$$CBHPAV?$ReceiverImplBase@HUSkinChangedParam@@@@@std@@@3@$0A@@std@@@std@@@std@@YAPAU_Node@?$_Tree_nod@V?$_Tmap_traits@HPAV?$ReceiverImplBase@HUSkinChangedParam@@@@U?$less@H@std@@V?$allocator@U?$pair@$$CBHPAV?$ReceiverImplBase@HUSkinChangedParam@@@@@std@@@3@$0A@@std@@@0@IPAU120@@Z 004223f0 f i main_frame.obj
 0001:00021490       ?construct@?$allocator@UFriendListItemInfo@DuiLib@@@std@@QAEXPAUFriendListItemInfo@DuiLib@@ABU34@@Z 00422490 f i main_frame.obj
 0001:000214d0       ?_Insert@?$_Tree@V?$_Tmap_traits@HPAV?$ReceiverImplBase@HUSkinChangedParam@@@@U?$less@H@std@@V?$allocator@U?$pair@$$CBHPAV?$ReceiverImplBase@HUSkinChangedParam@@@@@std@@@3@$0A@@std@@@std@@QAE?AV?$_Tree_iterator@V?$_Tree_val@V?$_Tmap_traits@HPAV?$ReceiverImplBase@HUSkinChangedParam@@@@U?$less@H@std@@V?$allocator@U?$pair@$$CBHPAV?$ReceiverImplBase@HUSkinChangedParam@@@@@std@@@3@$0A@@std@@@std@@@2@V?$_Tree_const_iterator@V?$_Tree_val@V?$_Tmap_traits@HPAV?$ReceiverImplBase@HUSkinChangedParam@@@@U?$less@H@std@@V?$allocator@U?$pair@$$CBHPAV?$ReceiverImplBase@HUSkinChangedParam@@@@@std@@@3@$0A@@std@@@std@@@2@PAU_Node@?$_Tree_nod@V?$_Tmap_traits@HPAV?$ReceiverImplBase@HUSkinChangedParam@@@@U?$less@H@std@@V?$allocator@U?$pair@$$CBHPAV?$ReceiverImplBase@HUSkinChangedParam@@@@@std@@@3@$0A@@std@@@2@@Z 004224d0 f i main_frame.obj
 0001:00022370       ?destroy@?$allocator@U?$pair@$$CBHPAV?$ReceiverImplBase@HUSkinChangedParam@@@@@std@@@std@@QAEXPAU?$pair@$$CBHPAV?$ReceiverImplBase@HUSkinChangedParam@@@@@2@@Z 00423370 f i main_frame.obj
 0001:000223b0       ??1?$pair@V?$_Tree_iterator@V?$_Tree_val@V?$_Tmap_traits@HPAV?$ReceiverImplBase@HUSkinChangedParam@@@@U?$less@H@std@@V?$allocator@U?$pair@$$CBHPAV?$ReceiverImplBase@HUSkinChangedParam@@@@@std@@@3@$0A@@std@@@std@@@std@@_N@std@@QAE@XZ 004233b0 f i main_frame.obj
 0001:000223e0       ??0?$_Tree_iterator@V?$_Tree_val@V?$_Tmap_traits@HPAV?$ReceiverImplBase@HUSkinChangedParam@@@@U?$less@H@std@@V?$allocator@U?$pair@$$CBHPAV?$ReceiverImplBase@HUSkinChangedParam@@@@@std@@@3@$0A@@std@@@std@@@std@@QAE@ABV01@@Z 004233e0 f i main_frame.obj
 0001:00022420       ??1?$_Pair_base@V?$_Tree_iterator@V?$_Tree_val@V?$_Tmap_traits@HPAV?$ReceiverImplBase@HUSkinChangedParam@@@@U?$less@H@std@@V?$allocator@U?$pair@$$CBHPAV?$ReceiverImplBase@HUSkinChangedParam@@@@@std@@@3@$0A@@std@@@std@@@std@@_N@std@@QAE@XZ 00423420 f i main_frame.obj
 0001:00022450       ?size@?$_Tree@V?$_Tmap_traits@HPAV?$ReceiverImplBase@HUSkinChangedParam@@@@U?$less@H@std@@V?$allocator@U?$pair@$$CBHPAV?$ReceiverImplBase@HUSkinChangedParam@@@@@std@@@3@$0A@@std@@@std@@QBEIXZ 00423450 f i main_frame.obj
 0001:00022470       ?_Linsert@?$_Tree@V?$_Tmap_traits@HPAV?$ReceiverImplBase@HUSkinChangedParam@@@@U?$less@H@std@@V?$allocator@U?$pair@$$CBHPAV?$ReceiverImplBase@HUSkinChangedParam@@@@@std@@@3@$0A@@std@@@std@@QAE?AU?$pair@V?$_Tree_iterator@V?$_Tree_val@V?$_Tmap_traits@HPAV?$ReceiverImplBase@HUSkinChangedParam@@@@U?$less@H@std@@V?$allocator@U?$pair@$$CBHPAV?$ReceiverImplBase@HUSkinChangedParam@@@@@std@@@3@$0A@@std@@@std@@@std@@_N@2@PAU_Node@?$_Tree_nod@V?$_Tmap_traits@HPAV?$ReceiverImplBase@HUSkinChangedParam@@@@U?$less@H@std@@V?$allocator@U?$pair@$$CBHPAV?$ReceiverImplBase@HUSkinChangedParam@@@@@std@@@3@$0A@@std@@@2@_N@Z 00423470 f i main_frame.obj
 0001:00022980       ?_Insert@?$_Tree@V?$_Tmap_traits@HPAV?$ReceiverImplBase@HUSkinChangedParam@@@@U?$less@H@std@@V?$allocator@U?$pair@$$CBHPAV?$ReceiverImplBase@HUSkinChangedParam@@@@@std@@@3@$0A@@std@@@std@@IAE?AV?$_Tree_iterator@V?$_Tree_val@V?$_Tmap_traits@HPAV?$ReceiverImplBase@HUSkinChangedParam@@@@U?$less@H@std@@V?$allocator@U?$pair@$$CBHPAV?$ReceiverImplBase@HUSkinChangedParam@@@@@std@@@3@$0A@@std@@@std@@@2@_NPAU_Node@?$_Tree_nod@V?$_Tmap_traits@HPAV?$ReceiverImplBase@HUSkinChangedParam@@@@U?$less@H@std@@V?$allocator@U?$pair@$$CBHPAV?$ReceiverImplBase@HUSkinChangedParam@@@@@std@@@3@$0A@@std@@@2@1@Z 00423980 f i main_frame.obj
 0001:00022f00       ??0?$_Tree_const_iterator@V?$_Tree_val@V?$_Tmap_traits@HPAV?$ReceiverImplBase@HUSkinChangedParam@@@@U?$less@H@std@@V?$allocator@U?$pair@$$CBHPAV?$ReceiverImplBase@HUSkinChangedParam@@@@@std@@@3@$0A@@std@@@std@@@std@@QAE@XZ 00423f00 f i main_frame.obj
 0001:00022f30       ??F?$_Tree_const_iterator@V?$_Tree_val@V?$_Tmap_traits@HPAV?$ReceiverImplBase@HUSkinChangedParam@@@@U?$less@H@std@@V?$allocator@U?$pair@$$CBHPAV?$ReceiverImplBase@HUSkinChangedParam@@@@@std@@@3@$0A@@std@@@std@@@std@@QAEAAV01@XZ 00423f30 f i main_frame.obj
 0001:000230a0       ?max_size@?$_Tree@V?$_Tmap_traits@HPAV?$ReceiverImplBase@HUSkinChangedParam@@@@U?$less@H@std@@V?$allocator@U?$pair@$$CBHPAV?$ReceiverImplBase@HUSkinChangedParam@@@@@std@@@3@$0A@@std@@@std@@QBEIXZ 004240a0 f i main_frame.obj
 0001:000230d0       ??F?$_Tree_iterator@V?$_Tree_val@V?$_Tmap_traits@HPAV?$ReceiverImplBase@HUSkinChangedParam@@@@U?$less@H@std@@V?$allocator@U?$pair@$$CBHPAV?$ReceiverImplBase@HUSkinChangedParam@@@@@std@@@3@$0A@@std@@@std@@@std@@QAEAAV01@XZ 004240d0 f i main_frame.obj
 0001:00023100       ??0?$_Tree_unchecked_const_iterator@V?$_Tree_val@V?$_Tmap_traits@HPAV?$ReceiverImplBase@HUSkinChangedParam@@@@U?$less@H@std@@V?$allocator@U?$pair@$$CBHPAV?$ReceiverImplBase@HUSkinChangedParam@@@@@std@@@3@$0A@@std@@@std@@U_Iterator_base12@2@@std@@QAE@XZ 00424100 f i main_frame.obj
 0001:00023140       ??F?$_Tree_unchecked_const_iterator@V?$_Tree_val@V?$_Tmap_traits@HPAV?$ReceiverImplBase@HUSkinChangedParam@@@@U?$less@H@std@@V?$allocator@U?$pair@$$CBHPAV?$ReceiverImplBase@HUSkinChangedParam@@@@@std@@@3@$0A@@std@@@std@@U_Iterator_base12@2@@std@@QAEAAV01@XZ 00424140 f i main_frame.obj
 0001:00023290       ??0?$pair@V?$_Tree_iterator@V?$_Tree_val@V?$_Tmap_traits@HPAV?$ReceiverImplBase@HUSkinChangedParam@@@@U?$less@H@std@@V?$allocator@U?$pair@$$CBHPAV?$ReceiverImplBase@HUSkinChangedParam@@@@@std@@@3@$0A@@std@@@std@@@std@@_N@std@@QAE@$$QAV?$_Tree_iterator@V?$_Tree_val@V?$_Tmap_traits@HPAV?$ReceiverImplBase@HUSkinChangedParam@@@@U?$less@H@std@@V?$allocator@U?$pair@$$CBHPAV?$ReceiverImplBase@HUSkinChangedParam@@@@@std@@@3@$0A@@std@@@std@@@1@$$QA_N@Z 00424290 f i main_frame.obj
 0001:000232f0       ?max_size@?$allocator@U?$pair@$$CBHPAV?$ReceiverImplBase@HUSkinChangedParam@@@@@std@@@std@@QBEIXZ 004242f0 f i main_frame.obj
 0001:00023350       ??0?$_Pair_base@V?$_Tree_iterator@V?$_Tree_val@V?$_Tmap_traits@HPAV?$ReceiverImplBase@HUSkinChangedParam@@@@U?$less@H@std@@V?$allocator@U?$pair@$$CBHPAV?$ReceiverImplBase@HUSkinChangedParam@@@@@std@@@3@$0A@@std@@@std@@@std@@_N@std@@QAE@$$QAV?$_Tree_iterator@V?$_Tree_val@V?$_Tmap_traits@HPAV?$ReceiverImplBase@HUSkinChangedParam@@@@U?$less@H@std@@V?$allocator@U?$pair@$$CBHPAV?$ReceiverImplBase@HUSkinChangedParam@@@@@std@@@3@$0A@@std@@@std@@@1@$$QA_N@Z 00424350 f i main_frame.obj
 0001:00023400       ??$forward@AAUFriendListItemInfo@DuiLib@@@std@@YAAAUFriendListItemInfo@DuiLib@@AAU12@@Z 00424400 f i main_frame.obj
 0001:00023410       ??$construct@AAUFriendListItemInfo@DuiLib@@@?$allocator@UFriendListItemInfo@DuiLib@@@std@@QAEXPAUFriendListItemInfo@DuiLib@@AAU23@@Z 00424410 f i main_frame.obj
 0001:000234e0       ??$forward@ABUFriendListItemInfo@DuiLib@@@std@@YAABUFriendListItemInfo@DuiLib@@ABU12@@Z 004244e0 f i main_frame.obj
 0001:000234f0       ??$_Ptr_cat@UFriendListItemInfo@DuiLib@@U12@@std@@YA?AU_Nonscalar_ptr_iterator_tag@0@PAUFriendListItemInfo@DuiLib@@0@Z 004244f0 f i main_frame.obj
 0001:00023550       ??$_Move@PAUFriendListItemInfo@DuiLib@@PAU12@@std@@YAPAUFriendListItemInfo@DuiLib@@PAU12@00U_Nonscalar_ptr_iterator_tag@0@@Z 00424550 f i main_frame.obj
 0001:000235b0       ??$forward@U?$pair@$$CBHPAV?$ReceiverImplBase@HUSkinChangedParam@@@@@std@@@std@@YA$$QAU?$pair@$$CBHPAV?$ReceiverImplBase@HUSkinChangedParam@@@@@0@AAU10@@Z 004245b0 f i main_frame.obj
 0001:000235c0       ??$_Buynode@U?$pair@$$CBHPAV?$ReceiverImplBase@HUSkinChangedParam@@@@@std@@@?$_Tree_val@V?$_Tmap_traits@HPAV?$ReceiverImplBase@HUSkinChangedParam@@@@U?$less@H@std@@V?$allocator@U?$pair@$$CBHPAV?$ReceiverImplBase@HUSkinChangedParam@@@@@std@@@3@$0A@@std@@@std@@QAEPAU_Node@?$_Tree_nod@V?$_Tmap_traits@HPAV?$ReceiverImplBase@HUSkinChangedParam@@@@U?$less@H@std@@V?$allocator@U?$pair@$$CBHPAV?$ReceiverImplBase@HUSkinChangedParam@@@@@std@@@3@$0A@@std@@@1@$$QAU?$pair@$$CBHPAV?$ReceiverImplBase@HUSkinChangedParam@@@@@1@@Z 004245c0 f i main_frame.obj
 0001:000236f0       ??$_Uninitialized_move@PAUFriendListItemInfo@DuiLib@@PAU12@V?$allocator@UFriendListItemInfo@DuiLib@@@std@@@std@@YAPAUFriendListItemInfo@DuiLib@@PAU12@00AAV?$allocator@UFriendListItemInfo@DuiLib@@@0@@Z 004246f0 f i main_frame.obj
 0001:00023760       ??$_Destroy_range@V?$allocator@UFriendListItemInfo@DuiLib@@@std@@@std@@YAXPAUFriendListItemInfo@DuiLib@@0AAV?$allocator@UFriendListItemInfo@DuiLib@@@0@U_Nonscalar_ptr_iterator_tag@0@@Z 00424760 f i main_frame.obj
 0001:000237a0       ??$_Construct@UFriendListItemInfo@DuiLib@@ABU12@@std@@YAXPAUFriendListItemInfo@DuiLib@@ABU12@@Z 004247a0 f i main_frame.obj
 0001:00023870       ??$_Destroy@U?$pair@$$CBHPAV?$ReceiverImplBase@HUSkinChangedParam@@@@@std@@@std@@YAXPAU?$pair@$$CBHPAV?$ReceiverImplBase@HUSkinChangedParam@@@@@0@@Z 00424870 f i main_frame.obj
 0001:00023880       ??$?0AAV?$_Tree_iterator@V?$_Tree_val@V?$_Tmap_traits@HPAV?$ReceiverImplBase@HUSkinChangedParam@@@@U?$less@H@std@@V?$allocator@U?$pair@$$CBHPAV?$ReceiverImplBase@HUSkinChangedParam@@@@@std@@@3@$0A@@std@@@std@@@std@@_N@?$pair@V?$_Tree_iterator@V?$_Tree_val@V?$_Tmap_traits@HPAV?$ReceiverImplBase@HUSkinChangedParam@@@@U?$less@H@std@@V?$allocator@U?$pair@$$CBHPAV?$ReceiverImplBase@HUSkinChangedParam@@@@@std@@@3@$0A@@std@@@std@@@std@@_N@std@@QAE@AAV?$_Tree_iterator@V?$_Tree_val@V?$_Tmap_traits@HPAV?$ReceiverImplBase@HUSkinChangedParam@@@@U?$less@H@std@@V?$allocator@U?$pair@$$CBHPAV?$ReceiverImplBase@HUSkinChangedParam@@@@@std@@@3@$0A@@std@@@std@@@1@$$QA_N@Z 00424880 f i main_frame.obj
 0001:000238e0       ??$move@AAV?$_Tree_iterator@V?$_Tree_val@V?$_Tmap_traits@HPAV?$ReceiverImplBase@HUSkinChangedParam@@@@U?$less@H@std@@V?$allocator@U?$pair@$$CBHPAV?$ReceiverImplBase@HUSkinChangedParam@@@@@std@@@3@$0A@@std@@@std@@@std@@@std@@YA$$QAV?$_Tree_iterator@V?$_Tree_val@V?$_Tmap_traits@HPAV?$ReceiverImplBase@HUSkinChangedParam@@@@U?$less@H@std@@V?$allocator@U?$pair@$$CBHPAV?$ReceiverImplBase@HUSkinChangedParam@@@@@std@@@3@$0A@@std@@@std@@@0@AAV10@@Z 004248e0 f i main_frame.obj
 0001:000238f0       ?_Buynode@?$_Tree_val@V?$_Tmap_traits@HPAV?$ReceiverImplBase@HUSkinChangedParam@@@@U?$less@H@std@@V?$allocator@U?$pair@$$CBHPAV?$ReceiverImplBase@HUSkinChangedParam@@@@@std@@@3@$0A@@std@@@std@@QAEPAU_Node@?$_Tree_nod@V?$_Tmap_traits@HPAV?$ReceiverImplBase@HUSkinChangedParam@@@@U?$less@H@std@@V?$allocator@U?$pair@$$CBHPAV?$ReceiverImplBase@HUSkinChangedParam@@@@@std@@@3@$0A@@std@@@2@XZ 004248f0 f i main_frame.obj
 0001:000239b0       ??$move@AAUFriendListItemInfo@DuiLib@@@std@@YA$$QAUFriendListItemInfo@DuiLib@@AAU12@@Z 004249b0 f i main_frame.obj
 0001:000239c0       ??$_Cons_val@V?$allocator@U?$pair@$$CBHPAV?$ReceiverImplBase@HUSkinChangedParam@@@@@std@@@std@@U?$pair@$$CBHPAV?$ReceiverImplBase@HUSkinChangedParam@@@@@2@U32@@std@@YAXAAV?$allocator@U?$pair@$$CBHPAV?$ReceiverImplBase@HUSkinChangedParam@@@@@std@@@0@PAU?$pair@$$CBHPAV?$ReceiverImplBase@HUSkinChangedParam@@@@@0@$$QAU20@@Z 004249c0 f i main_frame.obj
 0001:000239f0       ??$_Val_type@PAUFriendListItemInfo@DuiLib@@@std@@YAPAUFriendListItemInfo@DuiLib@@PAU12@@Z 004249f0 f i main_frame.obj
 0001:00023a00       ??$_Uninit_move@PAUFriendListItemInfo@DuiLib@@PAU12@V?$allocator@UFriendListItemInfo@DuiLib@@@std@@U12@@std@@YAPAUFriendListItemInfo@DuiLib@@PAU12@00AAV?$allocator@UFriendListItemInfo@DuiLib@@@0@0U_Nonscalar_ptr_iterator_tag@0@@Z 00424a00 f i main_frame.obj
 0001:00023b50       ??$_Dest_val@V?$allocator@UFriendListItemInfo@DuiLib@@@std@@UFriendListItemInfo@DuiLib@@@std@@YAXAAV?$allocator@UFriendListItemInfo@DuiLib@@@0@PAUFriendListItemInfo@DuiLib@@@Z 00424b50 f i main_frame.obj
 0001:00023b70       ??$forward@AAV?$_Tree_iterator@V?$_Tree_val@V?$_Tmap_traits@HPAV?$ReceiverImplBase@HUSkinChangedParam@@@@U?$less@H@std@@V?$allocator@U?$pair@$$CBHPAV?$ReceiverImplBase@HUSkinChangedParam@@@@@std@@@3@$0A@@std@@@std@@@std@@@std@@YAAAV?$_Tree_iterator@V?$_Tree_val@V?$_Tmap_traits@HPAV?$ReceiverImplBase@HUSkinChangedParam@@@@U?$less@H@std@@V?$allocator@U?$pair@$$CBHPAV?$ReceiverImplBase@HUSkinChangedParam@@@@@std@@@3@$0A@@std@@@std@@@0@AAV10@@Z 00424b70 f i main_frame.obj
 0001:00023b80       ??$?0AAV?$_Tree_iterator@V?$_Tree_val@V?$_Tmap_traits@HPAV?$ReceiverImplBase@HUSkinChangedParam@@@@U?$less@H@std@@V?$allocator@U?$pair@$$CBHPAV?$ReceiverImplBase@HUSkinChangedParam@@@@@std@@@3@$0A@@std@@@std@@@std@@_N@?$_Pair_base@V?$_Tree_iterator@V?$_Tree_val@V?$_Tmap_traits@HPAV?$ReceiverImplBase@HUSkinChangedParam@@@@U?$less@H@std@@V?$allocator@U?$pair@$$CBHPAV?$ReceiverImplBase@HUSkinChangedParam@@@@@std@@@3@$0A@@std@@@std@@@std@@_N@std@@QAE@AAV?$_Tree_iterator@V?$_Tree_val@V?$_Tmap_traits@HPAV?$ReceiverImplBase@HUSkinChangedParam@@@@U?$less@H@std@@V?$allocator@U?$pair@$$CBHPAV?$ReceiverImplBase@HUSkinChangedParam@@@@@std@@@3@$0A@@std@@@std@@@1@$$QA_N@Z 00424b80 f i main_frame.obj
 0001:00023c30       ?destroy@?$allocator@UFriendListItemInfo@DuiLib@@@std@@QAEXPAUFriendListItemInfo@DuiLib@@@Z 00424c30 f i main_frame.obj
 0001:00023c70       ?construct@?$allocator@U?$pair@$$CBHPAV?$ReceiverImplBase@HUSkinChangedParam@@@@@std@@@std@@QAEXPAU?$pair@$$CBHPAV?$ReceiverImplBase@HUSkinChangedParam@@@@@2@$$QAU32@@Z 00424c70 f i main_frame.obj
 0001:00023d40       ??$_Debug_range@PAUFriendListItemInfo@DuiLib@@@std@@YAXPAUFriendListItemInfo@DuiLib@@0PB_WI@Z 00424d40 f i main_frame.obj
 0001:00023da0       ??$_Debug_pointer@UFriendListItemInfo@DuiLib@@@std@@YAXPAUFriendListItemInfo@DuiLib@@PB_WI@Z 00424da0 f i main_frame.obj
 0001:00023dd0       ??$_Cons_val@V?$allocator@UFriendListItemInfo@DuiLib@@@std@@UFriendListItemInfo@DuiLib@@U34@@std@@YAXAAV?$allocator@UFriendListItemInfo@DuiLib@@@0@PAUFriendListItemInfo@DuiLib@@$$QAU23@@Z 00424dd0 f i main_frame.obj
 0001:00023e00       ??$_Destroy@UFriendListItemInfo@DuiLib@@@std@@YAXPAUFriendListItemInfo@DuiLib@@@Z 00424e00 f i main_frame.obj
 0001:00023e20       ??$?0$$CBHPAV?$ReceiverImplBase@HUSkinChangedParam@@@@@?$pair@$$CBHPAV?$ReceiverImplBase@HUSkinChangedParam@@@@@std@@QAE@$$QAU01@@Z 00424e20 f i main_frame.obj
 0001:00023e80       ??_GFriendListItemInfo@DuiLib@@QAEPAXI@Z 00424e80 f i main_frame.obj
 0001:00023ed0       ?construct@?$allocator@UFriendListItemInfo@DuiLib@@@std@@QAEXPAUFriendListItemInfo@DuiLib@@$$QAU34@@Z 00424ed0 f i main_frame.obj
 0001:00023fa0       ??0?$_Pair_base@$$CBHPAV?$ReceiverImplBase@HUSkinChangedParam@@@@@std@@QAE@$$QBH$$QAPAV?$ReceiverImplBase@HUSkinChangedParam@@@@@Z 00424fa0 f i main_frame.obj
 0001:00024000       ??$_Iter_cat@PAUFriendListItemInfo@DuiLib@@@std@@YA?AUrandom_access_iterator_tag@0@ABQAUFriendListItemInfo@DuiLib@@@Z 00425000 f i main_frame.obj
 0001:00024070       ??$_Debug_range2@PAUFriendListItemInfo@DuiLib@@@std@@YAXPAUFriendListItemInfo@DuiLib@@0PB_WIUrandom_access_iterator_tag@0@@Z 00425070 f i main_frame.obj
 0001:000240e0       ??$forward@UFriendListItemInfo@DuiLib@@@std@@YA$$QAUFriendListItemInfo@DuiLib@@AAU12@@Z 004250e0 f i main_frame.obj
 0001:000240f0       ??$forward@PAV?$ReceiverImplBase@HUSkinChangedParam@@@@@std@@YA$$QAPAV?$ReceiverImplBase@HUSkinChangedParam@@@@AAPAV1@@Z 004250f0 f i main_frame.obj
 0001:00024100       ??0CFriendsUI@DuiLib@@QAE@AAVCPaintManagerUI@1@@Z 00425100 f   UIFriends.obj
 0001:00024300       ??1CFriendsUI@DuiLib@@UAE@XZ 00425300 f   UIFriends.obj
 0001:00024420       ?Add@CFriendsUI@DuiLib@@UAE_NPAVCControlUI@2@@Z 00425420 f   UIFriends.obj
 0001:00024490       ?AddAt@CFriendsUI@DuiLib@@UAE_NPAVCControlUI@2@H@Z 00425490 f   UIFriends.obj
 0001:00024500       ?Remove@CFriendsUI@DuiLib@@UAE_NPAVCControlUI@2@@Z 00425500 f   UIFriends.obj
 0001:00024610       ?RemoveAt@CFriendsUI@DuiLib@@UAE_NH@Z 00425610 f   UIFriends.obj
 0001:00024730       ?RemoveAll@CFriendsUI@DuiLib@@UAEXXZ 00425730 f   UIFriends.obj
 0001:000248c0       ?DoEvent@CFriendsUI@DuiLib@@UAEXAAUtagTEventUI@2@@Z 004258c0 f   UIFriends.obj
 0001:00024ca0       ?GetRoot@CFriendsUI@DuiLib@@QAEPAVNode@2@XZ 00425ca0 f   UIFriends.obj
 0001:00024cc0       ?AddNode@CFriendsUI@DuiLib@@QAEPAVNode@2@ABUFriendListItemInfo@2@PAV32@@Z 00425cc0 f   UIFriends.obj
 0001:00025760       ?RemoveNode@CFriendsUI@DuiLib@@QAE_NPAVNode@2@@Z 00426760 f   UIFriends.obj
 0001:00025850       ?SetChildVisible@CFriendsUI@DuiLib@@QAEXPAVNode@2@_N@Z 00426850 f   UIFriends.obj
 0001:00025ce0       ?CanExpand@CFriendsUI@DuiLib@@QBE_NPAVNode@2@@Z 00426ce0 f   UIFriends.obj
 0001:00025d30       ?SelectItem@CFriendsUI@DuiLib@@UAE_NH_N@Z 00426d30 f   UIFriends.obj
 0001:00026740       ??_GCFriendsUI@DuiLib@@UAEPAXI@Z 00427740 f i UIFriends.obj
 0001:00026740       ??_ECFriendsUI@DuiLib@@UAEPAXI@Z 00427740 f i UIFriends.obj
 0001:00026790       ??_GNode@DuiLib@@QAEPAXI@Z 00427790 f i UIFriends.obj
 0001:000267e0       ?abs@@YAJJ@Z               004277e0 f i UIFriends.obj
 0001:00026800       ??0STRINGorID@DuiLib@@QAE@PBD@Z 00427800 f i UIFriends.obj
 0001:00026830       ??1CDelegateStatic@DuiLib@@UAE@XZ 00427830 f i UIFriends.obj
 0001:00026870       ?MakeDelegate@DuiLib@@YA?AVCDelegateStatic@1@P6A_NPAX@Z@Z 00427870 f i UIFriends.obj
 0001:000268c0       ??0CDelegateStatic@DuiLib@@QAE@P6A_NPAX@Z@Z 004278c0 f i UIFriends.obj
 0001:00026920       ?Copy@CDelegateStatic@DuiLib@@UAEPAVCDelegateBase@2@XZ 00427920 f i UIFriends.obj
 0001:000269e0       ??0CDelegateStatic@DuiLib@@QAE@ABV01@@Z 004279e0 f i UIFriends.obj
 0001:00026a40       ?Invoke@CDelegateStatic@DuiLib@@MAE_NPAX@Z 00427a40 f i UIFriends.obj
 0001:00026ab0       ??_GCDelegateStatic@DuiLib@@UAEPAXI@Z 00427ab0 f i UIFriends.obj
 0001:00026ab0       ??_ECDelegateStatic@DuiLib@@UAEPAXI@Z 00427ab0 f i UIFriends.obj
 0001:00026b00       ??Y?$basic_string@DU?$char_traits@D@std@@V?$allocator@D@2@@std@@QAEAAV01@ABV01@@Z 00427b00 f i UIFriends.obj
 0001:00026b40       ??Y?$basic_string@DU?$char_traits@D@std@@V?$allocator@D@2@@std@@QAEAAV01@PBD@Z 00427b40 f i UIFriends.obj
 0001:00026b80       ?append@?$basic_string@DU?$char_traits@D@std@@V?$allocator@D@2@@std@@QAEAAV12@ABV12@@Z 00427b80 f i UIFriends.obj
 0001:00026bc0       ?DoEvent@CFriendsUI@DuiLib@@WCJE@AEXAAUtagTEventUI@2@@Z 00427bc0 f i UIFriends.obj
 0001:00026bd0       ??0CGroupsUI@DuiLib@@QAE@AAVCPaintManagerUI@1@@Z 00427bd0 f   UIGroups.obj
 0001:00026dd0       ??1CGroupsUI@DuiLib@@UAE@XZ 00427dd0 f   UIGroups.obj
 0001:00026ef0       ?Add@CGroupsUI@DuiLib@@UAE_NPAVCControlUI@2@@Z 00427ef0 f   UIGroups.obj
 0001:00026f60       ?AddAt@CGroupsUI@DuiLib@@UAE_NPAVCControlUI@2@H@Z 00427f60 f   UIGroups.obj
 0001:00026fd0       ?Remove@CGroupsUI@DuiLib@@UAE_NPAVCControlUI@2@@Z 00427fd0 f   UIGroups.obj
 0001:000270e0       ?RemoveAt@CGroupsUI@DuiLib@@UAE_NH@Z 004280e0 f   UIGroups.obj
 0001:00027200       ?RemoveAll@CGroupsUI@DuiLib@@UAEXXZ 00428200 f   UIGroups.obj
 0001:00027390       ?DoEvent@CGroupsUI@DuiLib@@UAEXAAUtagTEventUI@2@@Z 00428390 f   UIGroups.obj
 0001:00027770       ?GetRoot@CGroupsUI@DuiLib@@QAEPAVNode@2@XZ 00428770 f   UIGroups.obj
 0001:00027790       ?AddNode@CGroupsUI@DuiLib@@QAEPAVNode@2@ABUGroupsListItemInfo@2@PAV32@@Z 00428790 f   UIGroups.obj
 0001:00028200       ?RemoveNode@CGroupsUI@DuiLib@@QAE_NPAVNode@2@@Z 00429200 f   UIGroups.obj
 0001:000282f0       ?SetChildVisible@CGroupsUI@DuiLib@@QAEXPAVNode@2@_N@Z 004292f0 f   UIGroups.obj
 0001:00028780       ?CanExpand@CGroupsUI@DuiLib@@QBE_NPAVNode@2@@Z 00429780 f   UIGroups.obj
 0001:00028ec0       ??_ECGroupsUI@DuiLib@@UAEPAXI@Z 00429ec0 f i UIGroups.obj
 0001:00028ec0       ??_GCGroupsUI@DuiLib@@UAEPAXI@Z 00429ec0 f i UIGroups.obj
 0001:00028f10       ?DoEvent@CGroupsUI@DuiLib@@WCJE@AEXAAUtagTEventUI@2@@Z 00429f10 f i UIGroups.obj
 0001:00028f20       ?CalculateDelay@DuiLib@@YANN@Z 00429f20 f   UIListCommonDefine.obj
 0001:00028f40       ?set_parent@Node@DuiLib@@AAEXPAV12@@Z 00429f40 f   UIListCommonDefine.obj
 0001:00028f60       ??0Node@DuiLib@@QAE@XZ     00429f60 f   UIListCommonDefine.obj
 0001:00028fe0       ??0Node@DuiLib@@QAE@UNodeData@1@@Z 00429fe0 f   UIListCommonDefine.obj
 0001:000290b0       ??0Node@DuiLib@@QAE@UNodeData@1@PAV01@@Z 0042a0b0 f   UIListCommonDefine.obj
 0001:00029180       ??1Node@DuiLib@@QAE@XZ     0042a180 f   UIListCommonDefine.obj
 0001:00029250       ?data@Node@DuiLib@@QAEAAUNodeData@2@XZ 0042a250 f   UIListCommonDefine.obj
 0001:00029270       ?num_children@Node@DuiLib@@QBEHXZ 0042a270 f   UIListCommonDefine.obj
 0001:000292a0       ?child@Node@DuiLib@@QAEPAV12@H@Z 0042a2a0 f   UIListCommonDefine.obj
 0001:000292d0       ?parent@Node@DuiLib@@QAEPAV12@XZ 0042a2d0 f   UIListCommonDefine.obj
 0001:000292f0       ?has_children@Node@DuiLib@@QBE_NXZ 0042a2f0 f   UIListCommonDefine.obj
 0001:00029320       ?folder@Node@DuiLib@@QBE_NXZ 0042a320 f   UIListCommonDefine.obj
 0001:00029340       ?add_child@Node@DuiLib@@QAEXPAV12@@Z 0042a340 f   UIListCommonDefine.obj
 0001:00029380       ?remove_child@Node@DuiLib@@QAEXPAV12@@Z 0042a380 f   UIListCommonDefine.obj
 0001:000294c0       ?get_last_child@Node@DuiLib@@QAEPAV12@XZ 0042a4c0 f   UIListCommonDefine.obj
 0001:00029690       ?pow@@YANNH@Z              0042a690 f i UIListCommonDefine.obj
 0001:000296c0       ??0NodeData@DuiLib@@QAE@XZ 0042a6c0 f i UIListCommonDefine.obj
 0001:00029750       ??1NodeData@DuiLib@@QAE@XZ 0042a750 f i UIListCommonDefine.obj
 0001:000297e0       ??0NodeData@DuiLib@@QAE@ABU01@@Z 0042a7e0 f i UIListCommonDefine.obj
 0001:000298d0       ??1?$_Vector_iterator@V?$_Vector_val@PAVNode@DuiLib@@V?$allocator@PAVNode@DuiLib@@@std@@@std@@@std@@QAE@XZ 0042a8d0 f i UIListCommonDefine.obj
 0001:00029900       ??0?$_Vector_const_iterator@V?$_Vector_val@PAVNode@DuiLib@@V?$allocator@PAVNode@DuiLib@@@std@@@std@@@std@@QAE@ABV01@@Z 0042a900 f i UIListCommonDefine.obj
 0001:00029950       ??1?$_Vector_const_iterator@V?$_Vector_val@PAVNode@DuiLib@@V?$allocator@PAVNode@DuiLib@@@std@@@std@@@std@@QAE@XZ 0042a950 f i UIListCommonDefine.obj
 0001:00029980       ??0?$_Iterator012@Urandom_access_iterator_tag@std@@PAVNode@DuiLib@@HPBQAV34@ABQAV34@U_Iterator_base12@2@@std@@QAE@ABU01@@Z 0042a980 f i UIListCommonDefine.obj
 0001:000299c0       ??1?$_Iterator012@Urandom_access_iterator_tag@std@@PAVNode@DuiLib@@HPBQAV34@ABQAV34@U_Iterator_base12@2@@std@@QAE@XZ 0042a9c0 f i UIListCommonDefine.obj
 0001:000299f0       ??0?$vector@PAVNode@DuiLib@@V?$allocator@PAVNode@DuiLib@@@std@@@std@@QAE@XZ 0042a9f0 f i UIListCommonDefine.obj
 0001:00029a40       ??1?$vector@PAVNode@DuiLib@@V?$allocator@PAVNode@DuiLib@@@std@@@std@@QAE@XZ 0042aa40 f i UIListCommonDefine.obj
 0001:00029ac0       ?begin@?$vector@PAVNode@DuiLib@@V?$allocator@PAVNode@DuiLib@@@std@@@std@@QAE?AV?$_Vector_iterator@V?$_Vector_val@PAVNode@DuiLib@@V?$allocator@PAVNode@DuiLib@@@std@@@std@@@2@XZ 0042aac0 f i UIListCommonDefine.obj
 0001:00029b20       ?end@?$vector@PAVNode@DuiLib@@V?$allocator@PAVNode@DuiLib@@@std@@@std@@QAE?AV?$_Vector_iterator@V?$_Vector_val@PAVNode@DuiLib@@V?$allocator@PAVNode@DuiLib@@@std@@@std@@@2@XZ 0042ab20 f i UIListCommonDefine.obj
 0001:00029b80       ?size@?$vector@PAVNode@DuiLib@@V?$allocator@PAVNode@DuiLib@@@std@@@std@@QBEIXZ 0042ab80 f i UIListCommonDefine.obj
 0001:00029bb0       ??A?$vector@PAVNode@DuiLib@@V?$allocator@PAVNode@DuiLib@@@std@@@std@@QAEAAPAVNode@DuiLib@@I@Z 0042abb0 f i UIListCommonDefine.obj
 0001:00029c70       ?push_back@?$vector@PAVNode@DuiLib@@V?$allocator@PAVNode@DuiLib@@@std@@@std@@QAEXABQAVNode@DuiLib@@@Z 0042ac70 f i UIListCommonDefine.obj
 0001:00029dd0       ?erase@?$vector@PAVNode@DuiLib@@V?$allocator@PAVNode@DuiLib@@@std@@@std@@QAE?AV?$_Vector_iterator@V?$_Vector_val@PAVNode@DuiLib@@V?$allocator@PAVNode@DuiLib@@@std@@@std@@@2@V?$_Vector_const_iterator@V?$_Vector_val@PAVNode@DuiLib@@V?$allocator@PAVNode@DuiLib@@@std@@@std@@@2@@Z 0042add0 f i UIListCommonDefine.obj
 0001:00029f50       ??D?$_Vector_iterator@V?$_Vector_val@PAVNode@DuiLib@@V?$allocator@PAVNode@DuiLib@@@std@@@std@@@std@@QBEAAPAVNode@DuiLib@@XZ 0042af50 f i UIListCommonDefine.obj
 0001:00029f80       ??E?$_Vector_iterator@V?$_Vector_val@PAVNode@DuiLib@@V?$allocator@PAVNode@DuiLib@@@std@@@std@@@std@@QAEAAV01@XZ 0042af80 f i UIListCommonDefine.obj
 0001:00029fb0       ??M?$_Vector_const_iterator@V?$_Vector_val@PAVNode@DuiLib@@V?$allocator@PAVNode@DuiLib@@@std@@@std@@@std@@QBE_NABV01@@Z 0042afb0 f i UIListCommonDefine.obj
 0001:0002a000       ?_Make_iter@?$vector@PAVNode@DuiLib@@V?$allocator@PAVNode@DuiLib@@@std@@@std@@QBE?AV?$_Vector_iterator@V?$_Vector_val@PAVNode@DuiLib@@V?$allocator@PAVNode@DuiLib@@@std@@@std@@@2@V?$_Vector_const_iterator@V?$_Vector_val@PAVNode@DuiLib@@V?$allocator@PAVNode@DuiLib@@@std@@@std@@@2@@Z 0042b000 f i UIListCommonDefine.obj
 0001:0002a0b0       ?_Destroy@?$vector@PAVNode@DuiLib@@V?$allocator@PAVNode@DuiLib@@@std@@@std@@IAEXPAPAVNode@DuiLib@@0@Z 0042b0b0 f i UIListCommonDefine.obj
 0001:0002a100       ?_Inside@?$vector@PAVNode@DuiLib@@V?$allocator@PAVNode@DuiLib@@@std@@@std@@IBE_NPBQAVNode@DuiLib@@@Z 0042b100 f i UIListCommonDefine.obj
 0001:0002a160       ?_Reserve@?$vector@PAVNode@DuiLib@@V?$allocator@PAVNode@DuiLib@@@std@@@std@@IAEXI@Z 0042b160 f i UIListCommonDefine.obj
 0001:0002a200       ?_Tidy@?$vector@PAVNode@DuiLib@@V?$allocator@PAVNode@DuiLib@@@std@@@std@@IAEXXZ 0042b200 f i UIListCommonDefine.obj
 0001:0002a2b0       ?_Orphan_range@?$vector@PAVNode@DuiLib@@V?$allocator@PAVNode@DuiLib@@@std@@@std@@IBEXPAPAVNode@DuiLib@@0@Z 0042b2b0 f i UIListCommonDefine.obj
 0001:0002a400       ??0?$_Vector_val@PAVNode@DuiLib@@V?$allocator@PAVNode@DuiLib@@@std@@@std@@QAE@V?$allocator@PAVNode@DuiLib@@@1@@Z 0042b400 f i UIListCommonDefine.obj
 0001:0002a560       ??1?$_Vector_val@PAVNode@DuiLib@@V?$allocator@PAVNode@DuiLib@@@std@@@std@@QAE@XZ 0042b560 f i UIListCommonDefine.obj
 0001:0002a670       ??0?$allocator@PAVNode@DuiLib@@@std@@QAE@XZ 0042b670 f i UIListCommonDefine.obj
 0001:0002a690       ??0?$_Vector_iterator@V?$_Vector_val@PAVNode@DuiLib@@V?$allocator@PAVNode@DuiLib@@@std@@@std@@@std@@QAE@PAPAVNode@DuiLib@@PBU_Container_base12@1@@Z 0042b690 f i UIListCommonDefine.obj
 0001:0002a6d0       ??D?$_Vector_const_iterator@V?$_Vector_val@PAVNode@DuiLib@@V?$allocator@PAVNode@DuiLib@@@std@@@std@@@std@@QBEABQAVNode@DuiLib@@XZ 0042b6d0 f i UIListCommonDefine.obj
 0001:0002a7c0       ??E?$_Vector_const_iterator@V?$_Vector_val@PAVNode@DuiLib@@V?$allocator@PAVNode@DuiLib@@@std@@@std@@@std@@QAEAAV01@XZ 0042b7c0 f i UIListCommonDefine.obj
 0001:0002a8a0       ?_Compat@?$_Vector_const_iterator@V?$_Vector_val@PAVNode@DuiLib@@V?$allocator@PAVNode@DuiLib@@@std@@@std@@@std@@QBEXABV12@@Z 0042b8a0 f i UIListCommonDefine.obj
 0001:0002a970       ?reserve@?$vector@PAVNode@DuiLib@@V?$allocator@PAVNode@DuiLib@@@std@@@std@@QAEXI@Z 0042b970 f i UIListCommonDefine.obj
 0001:0002ab40       ?capacity@?$vector@PAVNode@DuiLib@@V?$allocator@PAVNode@DuiLib@@@std@@@std@@QBEIXZ 0042bb40 f i UIListCommonDefine.obj
 0001:0002ab70       ?max_size@?$vector@PAVNode@DuiLib@@V?$allocator@PAVNode@DuiLib@@@std@@@std@@QBEIXZ 0042bb70 f i UIListCommonDefine.obj
 0001:0002aba0       ?_Grow_to@?$vector@PAVNode@DuiLib@@V?$allocator@PAVNode@DuiLib@@@std@@@std@@IBEII@Z 0042bba0 f i UIListCommonDefine.obj
 0001:0002ac40       ?_Xlen@?$vector@PAVNode@DuiLib@@V?$allocator@PAVNode@DuiLib@@@std@@@std@@IBEXXZ 0042bc40 f i UIListCommonDefine.obj
 0001:0002ac70       ??0?$allocator@PAVNode@DuiLib@@@std@@QAE@ABV01@@Z 0042bc70 f i UIListCommonDefine.obj
 0001:0002ac90       ?deallocate@?$allocator@PAVNode@DuiLib@@@std@@QAEXPAPAVNode@DuiLib@@I@Z 0042bc90 f i UIListCommonDefine.obj
 0001:0002acd0       ??0?$_Vector_const_iterator@V?$_Vector_val@PAVNode@DuiLib@@V?$allocator@PAVNode@DuiLib@@@std@@@std@@@std@@QAE@PAPAVNode@DuiLib@@PBU_Container_base12@1@@Z 0042bcd0 f i UIListCommonDefine.obj
 0001:0002ad70       ??0?$_Iterator012@Urandom_access_iterator_tag@std@@PAVNode@DuiLib@@HPBQAV34@ABQAV34@U_Iterator_base12@2@@std@@QAE@XZ 0042bd70 f i UIListCommonDefine.obj
 0001:0002ada0       ?allocate@?$allocator@PAVNode@DuiLib@@@std@@QAEPAPAVNode@DuiLib@@I@Z 0042bda0 f i UIListCommonDefine.obj
 0001:0002ade0       ?max_size@?$allocator@PAVNode@DuiLib@@@std@@QBEIXZ 0042bde0 f i UIListCommonDefine.obj
 0001:0002ae40       ??$_Pow_int@N@@YANNH@Z     0042be40 f i UIListCommonDefine.obj
 0001:0002aee0       ??$addressof@QAVNode@DuiLib@@@std@@YAPBQAVNode@DuiLib@@ABQAV12@@Z 0042bee0 f i UIListCommonDefine.obj
 0001:0002aef0       ??$_Cons_val@V?$allocator@PAVNode@DuiLib@@@std@@PAVNode@DuiLib@@AAPAV34@@std@@YAXAAV?$allocator@PAVNode@DuiLib@@@0@PAPAVNode@DuiLib@@AAPAV23@@Z 0042bef0 f i UIListCommonDefine.obj
 0001:0002af20       ??$_Cons_val@V?$allocator@PAVNode@DuiLib@@@std@@PAVNode@DuiLib@@ABQAV34@@std@@YAXAAV?$allocator@PAVNode@DuiLib@@@0@PAPAVNode@DuiLib@@ABQAV23@@Z 0042bf20 f i UIListCommonDefine.obj
 0001:0002af50       ??$_Move@PAPAVNode@DuiLib@@PAPAV12@@std@@YAPAPAVNode@DuiLib@@PAPAV12@00@Z 0042bf50 f i UIListCommonDefine.obj
 0001:0002afb0       ??$_Destroy_range@V?$allocator@PAVNode@DuiLib@@@std@@@std@@YAXPAPAVNode@DuiLib@@0AAV?$allocator@PAVNode@DuiLib@@@0@@Z 0042bfb0 f i UIListCommonDefine.obj
 0001:0002b010       ??$?0PAVNode@DuiLib@@@?$allocator@U_Container_proxy@std@@@std@@QAE@ABV?$allocator@PAVNode@DuiLib@@@1@@Z 0042c010 f i UIListCommonDefine.obj
 0001:0002b030       ??$_Umove@PAPAVNode@DuiLib@@@?$vector@PAVNode@DuiLib@@V?$allocator@PAVNode@DuiLib@@@std@@@std@@IAEPAPAVNode@DuiLib@@PAPAV23@00@Z 0042c030 f i UIListCommonDefine.obj
 0001:0002b080       ??$_Allocate@PAVNode@DuiLib@@@std@@YAPAPAVNode@DuiLib@@IPAPAV12@@Z 0042c080 f i UIListCommonDefine.obj
 0001:0002b120       ?construct@?$allocator@PAVNode@DuiLib@@@std@@QAEXPAPAVNode@DuiLib@@ABQAV34@@Z 0042c120 f i UIListCommonDefine.obj
 0001:0002b160       ??$forward@AAPAVNode@DuiLib@@@std@@YAAAPAVNode@DuiLib@@AAPAV12@@Z 0042c160 f i UIListCommonDefine.obj
 0001:0002b170       ??$construct@AAPAVNode@DuiLib@@@?$allocator@PAVNode@DuiLib@@@std@@QAEXPAPAVNode@DuiLib@@AAPAV23@@Z 0042c170 f i UIListCommonDefine.obj
 0001:0002b240       ??$forward@ABQAVNode@DuiLib@@@std@@YAABQAVNode@DuiLib@@ABQAV12@@Z 0042c240 f i UIListCommonDefine.obj
 0001:0002b250       ??$_Ptr_cat@PAVNode@DuiLib@@PAV12@@std@@YA?AU_Scalar_ptr_iterator_tag@0@PAPAVNode@DuiLib@@0@Z 0042c250 f i UIListCommonDefine.obj
 0001:0002b2b0       ??$_Move@PAPAVNode@DuiLib@@PAPAV12@@std@@YAPAPAVNode@DuiLib@@PAPAV12@00U_Scalar_ptr_iterator_tag@0@@Z 0042c2b0 f i UIListCommonDefine.obj
 0001:0002b310       ??$_Destroy_range@V?$allocator@PAVNode@DuiLib@@@std@@@std@@YAXPAPAVNode@DuiLib@@0AAV?$allocator@PAVNode@DuiLib@@@0@U_Scalar_ptr_iterator_tag@0@@Z 0042c310 f i UIListCommonDefine.obj
 0001:0002b320       ??$_Uninitialized_move@PAPAVNode@DuiLib@@PAPAV12@V?$allocator@PAVNode@DuiLib@@@std@@@std@@YAPAPAVNode@DuiLib@@PAPAV12@00AAV?$allocator@PAVNode@DuiLib@@@0@@Z 0042c320 f i UIListCommonDefine.obj
 0001:0002b390       ??$_Construct@PAVNode@DuiLib@@ABQAV12@@std@@YAXPAPAVNode@DuiLib@@ABQAV12@@Z 0042c390 f i UIListCommonDefine.obj
 0001:0002b460       ??$_Val_type@PAPAVNode@DuiLib@@@std@@YAPAPAVNode@DuiLib@@PAPAV12@@Z 0042c460 f i UIListCommonDefine.obj
 0001:0002b470       ??$_Uninit_move@PAVNode@DuiLib@@PAV12@PAV12@@std@@YAPAPAVNode@DuiLib@@PAPAV12@00AAV?$allocator@PAVNode@DuiLib@@@0@0U_Scalar_ptr_iterator_tag@0@@Z 0042c470 f i UIListCommonDefine.obj
 0001:0002b500       ??$_Debug_range@PAPAVNode@DuiLib@@@std@@YAXPAPAVNode@DuiLib@@0PB_WI@Z 0042c500 f i UIListCommonDefine.obj
 0001:0002b560       ??$_Debug_pointer@PAVNode@DuiLib@@@std@@YAXPAPAVNode@DuiLib@@PB_WI@Z 0042c560 f i UIListCommonDefine.obj
 0001:0002b590       ??$_Iter_cat@PAPAVNode@DuiLib@@@std@@YA?AUrandom_access_iterator_tag@0@ABQAPAVNode@DuiLib@@@Z 0042c590 f i UIListCommonDefine.obj
 0001:0002b600       ??$_Debug_range2@PAPAVNode@DuiLib@@@std@@YAXPAPAVNode@DuiLib@@0PB_WIUrandom_access_iterator_tag@0@@Z 0042c600 f i UIListCommonDefine.obj
 0001:0002b670       ??0CMicroBlogUI@DuiLib@@QAE@AAVCPaintManagerUI@1@@Z 0042c670 f   UIMicroBlog.obj
 0001:0002b6e0       ??1CMicroBlogUI@DuiLib@@UAE@XZ 0042c6e0 f   UIMicroBlog.obj
 0001:0002b770       ??_ECMicroBlogUI@DuiLib@@UAEPAXI@Z 0042c770 f i UIMicroBlog.obj
 0001:0002b770       ??_GCMicroBlogUI@DuiLib@@UAEPAXI@Z 0042c770 f i UIMicroBlog.obj
 0001:0002b7c0       ?DoEvent@CListUI@DuiLib@@WCJE@AEXAAUtagTEventUI@2@@Z 0042c7c0 f i UIMicroBlog.obj
 0001:0002b7d0       ??0WindowImplBase@@QAE@XZ  0042c7d0 f   win_impl_base.obj
 0001:0002b860       ??1WindowImplBase@@UAE@XZ  0042c860 f   win_impl_base.obj
 0001:0002b8c0       ?GetClassStyle@WindowImplBase@@UBEIXZ 0042c8c0 f   win_impl_base.obj
 0001:0002b8e0       ?CreateControl@WindowImplBase@@UAEPAVCControlUI@DuiLib@@PBD@Z 0042c8e0 f   win_impl_base.obj
 0001:0002b900       ?OnFinalMessage@WindowImplBase@@UAEXPAUHWND__@@@Z 0042c900 f   win_impl_base.obj
 0001:0002b9c0       ?Init@WindowImplBase@@UAEXXZ 0042c9c0 f   win_impl_base.obj
 0001:0002b9e0       ?OnClose@WindowImplBase@@UAEJIIJAAH@Z 0042c9e0 f   win_impl_base.obj
 0001:0002ba00       ?OnDestroy@WindowImplBase@@UAEJIIJAAH@Z 0042ca00 f   win_impl_base.obj
 0001:0002ba20       ?OnNcActivate@WindowImplBase@@UAEJIIJAAH@Z 0042ca20 f   win_impl_base.obj
 0001:0002ba80       ?OnNcCalcSize@WindowImplBase@@UAEJIIJAAH@Z 0042ca80 f   win_impl_base.obj
 0001:0002baa0       ?OnNcPaint@WindowImplBase@@UAEJIIJAAH@Z 0042caa0 f   win_impl_base.obj
 0001:0002bac0       ?OnNcHitTest@WindowImplBase@@UAEJIIJAAH@Z 0042cac0 f   win_impl_base.obj
 0001:0002bdc0       ?OnGetMinMaxInfo@WindowImplBase@@UAEJIIJAAH@Z 0042cdc0 f   win_impl_base.obj
 0001:0002bf10       ?OnMouseWheel@WindowImplBase@@UAEJIIJAAH@Z 0042cf10 f   win_impl_base.obj
 0001:0002bf30       ?OnSetFocus@WindowImplBase@@UAEJIIJAAH@Z 0042cf30 f   win_impl_base.obj
 0001:0002bf50       ?OnLButtonDown@WindowImplBase@@UAEJIIJAAH@Z 0042cf50 f   win_impl_base.obj
 0001:0002bf70       ?OnMouseMove@WindowImplBase@@UAEJIIJAAH@Z 0042cf70 f   win_impl_base.obj
 0001:0002bf90       ?OnLButtonUp@WindowImplBase@@UAEJIIJAAH@Z 0042cf90 f   win_impl_base.obj
 0001:0002bfb0       ?OnKeyDown@WindowImplBase@@UAEJIIJAAH@Z 0042cfb0 f   win_impl_base.obj
 0001:0002bfd0       ?OnKillFocus@WindowImplBase@@UAEJIIJAAH@Z 0042cfd0 f   win_impl_base.obj
 0001:0002bff0       ?OnSize@WindowImplBase@@UAEJIIJAAH@Z 0042cff0 f   win_impl_base.obj
 0001:0002c1b0       ?OnSysCommand@WindowImplBase@@UAEJIIJAAH@Z 0042d1b0 f   win_impl_base.obj
 0001:0002c270       ?GetSkinFolder@WindowImplBase@@MAE?AV?$basic_string@DU?$char_traits@D@std@@V?$allocator@D@2@@std@@XZ 0042d270 f   win_impl_base.obj
 0001:0002c390       ?OnCreate@WindowImplBase@@UAEJIIJAAH@Z 0042d390 f   win_impl_base.obj
 0001:0002c960       ?HandleCustomMessage@WindowImplBase@@UAEJIIJAAH@Z 0042d960 f   win_impl_base.obj
 0001:0002c980       ?HandleMessage@WindowImplBase@@UAEJIIJ@Z 0042d980 f   win_impl_base.obj
 0001:0002cfe0       ?MessageHandler@WindowImplBase@@UAEJIIJAA_N@Z 0042dfe0 f   win_impl_base.obj
 0001:0002d050       ?ResponseDefaultKeyEvent@WindowImplBase@@MAEJI@Z 0042e050 f   win_impl_base.obj
 0001:0002d0a0       ?Cleanup@WindowImplBase@@SAXXZ 0042e0a0 f   win_impl_base.obj
 0001:0002d730       ??_EWindowImplBase@@UAEPAXI@Z 0042e730 f i win_impl_base.obj
 0001:0002d730       ??_GWindowImplBase@@UAEPAXI@Z 0042e730 f i win_impl_base.obj
 0001:0002d780       ??0INotifyUI@DuiLib@@QAE@XZ 0042e780 f i win_impl_base.obj
 0001:0002d7b0       ??0IMessageFilterUI@DuiLib@@QAE@XZ 0042e7b0 f i win_impl_base.obj
 0001:0002d7e0       ??0IDialogBuilderCallback@DuiLib@@QAE@XZ 0042e7e0 f i win_impl_base.obj
 0001:0002d810       ?inflate_flush@@YAHPAUinflate_blocks_state@@PAUz_stream_s@@H@Z 0042e810 f   XUnzip.obj
 0001:0002da30       ?inflate_codes_new@@YAPAUinflate_codes_state@@IIPBUinflate_huft_s@@0PAUz_stream_s@@@Z 0042ea30 f   XUnzip.obj
 0001:0002dab0       ?inflate_codes@@YAHPAUinflate_blocks_state@@PAUz_stream_s@@H@Z 0042eab0 f   XUnzip.obj
 0001:0002e7e0       ?inflate_codes_free@@YAXPAUinflate_codes_state@@PAUz_stream_s@@@Z 0042f7e0 f   XUnzip.obj
 0001:0002e810       ?inflate_blocks_reset@@YAXPAUinflate_blocks_state@@PAUz_stream_s@@PAK@Z 0042f810 f   XUnzip.obj
 0001:0002e900       ?inflate_blocks_new@@YAPAUinflate_blocks_state@@PAUz_stream_s@@P6AKKPBEI@ZI@Z 0042f900 f   XUnzip.obj
 0001:0002ea70       ?inflate_blocks@@YAHPAUinflate_blocks_state@@PAUz_stream_s@@H@Z 0042fa70 f   XUnzip.obj
 0001:0002ff00       ?inflate_blocks_free@@YAHPAUinflate_blocks_state@@PAUz_stream_s@@@Z 00430f00 f   XUnzip.obj
 0001:0002ff90       ?huft_build@@YAHPAIIIPBI1PAPAUinflate_huft_s@@0PAU1@00@Z 00430f90 f   XUnzip.obj
 0001:00030770       ?inflate_trees_bits@@YAHPAI0PAPAUinflate_huft_s@@PAU1@PAUz_stream_s@@@Z 00431770 f   XUnzip.obj
 0001:00030880       ?inflate_trees_dynamic@@YAHIIPAI00PAPAUinflate_huft_s@@1PAU1@PAUz_stream_s@@@Z 00431880 f   XUnzip.obj
 0001:00030a80       ?inflate_trees_fixed@@YAHPAI0PAPBUinflate_huft_s@@1PAUz_stream_s@@@Z 00431a80 f   XUnzip.obj
 0001:00030ab0       ?inflate_fast@@YAHIIPBUinflate_huft_s@@0PAUinflate_blocks_state@@PAUz_stream_s@@@Z 00431ab0 f   XUnzip.obj
 0001:00031170       ?get_crc_table@@YAPBKXZ    00432170 f   XUnzip.obj
 0001:00031180       ?ucrc32@@YAKKPBEI@Z        00432180 f   XUnzip.obj
 0001:00031330       ?adler32@@YAKKPBEI@Z       00432330 f   XUnzip.obj
 0001:00031590       ?zlibVersion@@YAPBDXZ      00432590 f   XUnzip.obj
 0001:000315a0       ?zError@@YAPBDH@Z          004325a0 f   XUnzip.obj
 0001:000315c0       ?zcalloc@@YAPAXPAXII@Z     004325c0 f   XUnzip.obj
 0001:000315f0       ?zcfree@@YAXPAX0@Z         004325f0 f   XUnzip.obj
 0001:00031610       ?inflateReset@@YAHPAUz_stream_s@@@Z 00432610 f   XUnzip.obj
 0001:00031690       ?inflateEnd@@YAHPAUz_stream_s@@@Z 00432690 f   XUnzip.obj
 0001:00031710       ?inflateInit2@@YAHPAUz_stream_s@@@Z 00432710 f   XUnzip.obj
 0001:000318c0       ?inflate@@YAHPAUz_stream_s@@H@Z 004328c0 f   XUnzip.obj
 0001:00031fb0       ?lufopen@@YAPAULUFILE@@PAXIKPAK@Z 00432fb0 f   XUnzip.obj
 0001:000321d0       ?lufclose@@YAHPAULUFILE@@@Z 004331d0 f   XUnzip.obj
 0001:00032230       ?luferror@@YAHPAULUFILE@@@Z 00433230 f   XUnzip.obj
 0001:00032260       ?luftell@@YAJPAULUFILE@@@Z 00433260 f   XUnzip.obj
 0001:000322c0       ?lufseek@@YAHPAULUFILE@@JH@Z 004332c0 f   XUnzip.obj
 0001:000323d0       ?lufread@@YAIPAXIIPAULUFILE@@@Z 004333d0 f   XUnzip.obj
 0001:000324e0       ?unzlocal_getByte@@YAHPAULUFILE@@PAH@Z 004334e0 f   XUnzip.obj
 0001:00032580       ?unzlocal_getShort@@YAHPAULUFILE@@PAK@Z 00433580 f   XUnzip.obj
 0001:00032630       ?unzlocal_getLong@@YAHPAULUFILE@@PAK@Z 00433630 f   XUnzip.obj
 0001:00032730       ?strcmpcasenosensitive_internal@@YAHPBD0@Z 00433730 f   XUnzip.obj
 0001:000327f0       ?unzStringFileNameCompare@@YAHPBD0H@Z 004337f0 f   XUnzip.obj
 0001:00032830       ?unzlocal_SearchCentralDir@@YAKPAULUFILE@@@Z 00433830 f   XUnzip.obj
 0001:000329f0       ?unzOpenInternal@@YAPAUunz_s@@PAULUFILE@@@Z 004339f0 f   XUnzip.obj
 0001:00032d20       ?unzClose@@YAHPAUunz_s@@@Z 00433d20 f   XUnzip.obj
 0001:00032d90       ?unzGetGlobalInfo@@YAHPAUunz_s@@PAUunz_global_info_s@@@Z 00433d90 f   XUnzip.obj
 0001:00032dd0       ?unzlocal_DosDateToTmuDate@@YAXKPAUtm_unz_s@@@Z 00433dd0 f   XUnzip.obj
 0001:00032e50       ?unzlocal_GetCurrentFileInfoInternal@@YAHPAUunz_s@@PAUunz_file_info_s@@PAUunz_file_info_internal_s@@PADKPAXK3K@Z 00433e50 f   XUnzip.obj
 0001:00033320       ?unzGetCurrentFileInfo@@YAHPAUunz_s@@PAUunz_file_info_s@@PADKPAXK2K@Z 00434320 f   XUnzip.obj
 0001:00033360       ?unzGoToFirstFile@@YAHPAUunz_s@@@Z 00434360 f   XUnzip.obj
 0001:000333f0       ?unzGoToNextFile@@YAHPAUunz_s@@@Z 004343f0 f   XUnzip.obj
 0001:000334c0       ?unzLocateFile@@YAHPAUunz_s@@PBDH@Z 004344c0 f   XUnzip.obj
 0001:00033640       ?unzlocal_CheckCurrentFileCoherencyHeader@@YAHPAUunz_s@@PAIPAK1@Z 00434640 f   XUnzip.obj
 0001:00033970       ?unzOpenCurrentFile@@YAHPAUunz_s@@@Z 00434970 f   XUnzip.obj
 0001:00033bc0       ?unzReadCurrentFile@@YAHPAUunz_s@@PAXI@Z 00434bc0 f   XUnzip.obj
 0001:00033ee0       ?unztell@@YAJPAUunz_s@@@Z  00434ee0 f   XUnzip.obj
 0001:00033f30       ?unzeof@@YAHPAUunz_s@@@Z   00434f30 f   XUnzip.obj
 0001:00033f90       ?unzGetLocalExtrafield@@YAHPAUunz_s@@PAXI@Z 00434f90 f   XUnzip.obj
 0001:00034070       ?unzCloseCurrentFile@@YAHPAUunz_s@@@Z 00435070 f   XUnzip.obj
 0001:00034160       ?unzGetGlobalComment@@YAHPAUunz_s@@PADK@Z 00435160 f   XUnzip.obj
 0001:00034230       ?timet2filetime@@YA?AU_FILETIME@@_J@Z 00435230 f   XUnzip.obj
 0001:00034340       ?Open@TUnzip@@QAEKPAXIK@Z  00435340 f   XUnzip.obj
 0001:00034450       ?Get@TUnzip@@QAEKHPAUZIPENTRY@@@Z 00435450 f   XUnzip.obj
 0001:00034c40       ?Find@TUnzip@@QAEKPBD_NPAHPAUZIPENTRY@@@Z 00435c40 f   XUnzip.obj
 0001:00034d30       ?EnsureDirectory@@YAXPBD0@Z 00435d30 f   XUnzip.obj
 0001:00034e90       ?Unzip@TUnzip@@QAEKHPAXIK@Z 00435e90 f   XUnzip.obj
 0001:000353e0       ?Close@TUnzip@@QAEKXZ      004363e0 f   XUnzip.obj
 0001:00035440       ?FormatZipMessageU@@YAIKPADI@Z 00436440 f   XUnzip.obj
 0001:00035720       ?OpenZipU@@YAPAUHZIP__@@PAXIK@Z 00436720 f   XUnzip.obj
 0001:00035820       ?GetZipItemA@@YAKPAUHZIP__@@HPAUZIPENTRY@@@Z 00436820 f   XUnzip.obj
 0001:000358a0       ?GetZipItemW@@YAKPAUHZIP__@@HPAUZIPENTRYW@@@Z 004368a0 f   XUnzip.obj
 0001:00035a00       ?FindZipItemA@@YAKPAUHZIP__@@PBD_NPAHPAUZIPENTRY@@@Z 00436a00 f   XUnzip.obj
 0001:00035a90       ?FindZipItemW@@YAKPAUHZIP__@@PBD_NPAHPAUZIPENTRYW@@@Z 00436a90 f   XUnzip.obj
 0001:00035c00       ?UnzipItem@@YAKPAUHZIP__@@HPAXIK@Z 00436c00 f   XUnzip.obj
 0001:00035c90       ?CloseZipU@@YAKPAUHZIP__@@@Z 00436c90 f   XUnzip.obj
 0001:00035d30       ?IsZipHandleU@@YA_NPAUHZIP__@@@Z 00436d30 f   XUnzip.obj
 0001:00037eb0       __tcsncpy                  00438eb0 f i XUnzip.obj
 0001:00037ee0       ??0TUnzip@@QAE@XZ          00438ee0 f i XUnzip.obj
 0001:00037f30       ??0ColorSkinWindow@@QAE@PAVMainFrame@@UtagRECT@@@Z 00438f30 f   color_skin.obj
 0001:00038070       ?GetWindowClassName@ColorSkinWindow@@UBEPBDXZ 00439070 f   color_skin.obj
 0001:00038090       ?OnFinalMessage@ColorSkinWindow@@UAEXPAUHWND__@@@Z 00439090 f   color_skin.obj
 0001:00038100       ?Notify@ColorSkinWindow@@UAEXAAUtagTNotifyUI@DuiLib@@@Z 00439100 f   color_skin.obj
 0001:000389f0       ?Init@ColorSkinWindow@@UAEXXZ 004399f0 f   color_skin.obj
 0001:00038aa0       ?GetSkinFile@ColorSkinWindow@@UAE?AV?$basic_string@DU?$char_traits@D@std@@V?$allocator@D@2@@std@@XZ 00439aa0 f   color_skin.obj
 0001:00038af0       ?GetSkinFolder@ColorSkinWindow@@UAE?AV?$basic_string@DU?$char_traits@D@std@@V?$allocator@D@2@@std@@XZ 00439af0 f   color_skin.obj
 0001:00038c10       ?OnKillFocus@ColorSkinWindow@@UAEJIIJAAH@Z 00439c10 f   color_skin.obj
 0001:00038f90       ??_GColorSkinWindow@@UAEPAXI@Z 00439f90 f i color_skin.obj
 0001:00038f90       ??_EColorSkinWindow@@UAEPAXI@Z 00439f90 f i color_skin.obj
 0001:00038fe0       ??1ColorSkinWindow@@UAE@XZ 00439fe0 f i color_skin.obj
 0001:0003900e       _GetLocalTime@4            0043a00e f   kernel32:KERNEL32.dll
 0001:00039014       _Sleep@4                   0043a014 f   kernel32:KERNEL32.dll
 0001:0003901a       _InitializeCriticalSection@4 0043a01a f   kernel32:KERNEL32.dll
 0001:00039020       _GetVersionExA@4           0043a020 f   kernel32:KERNEL32.dll
 0001:00039026       _DeleteCriticalSection@4   0043a026 f   kernel32:KERNEL32.dll
 0001:0003902c       _EnterCriticalSection@4    0043a02c f   kernel32:KERNEL32.dll
 0001:00039032       _LeaveCriticalSection@4    0043a032 f   kernel32:KERNEL32.dll
 0001:00039038       _OutputDebugStringA@4      0043a038 f   kernel32:KERNEL32.dll
 0001:0003903e       _GetTickCount@0            0043a03e f   kernel32:KERNEL32.dll
 0001:00039044       _FreeLibrary@4             0043a044 f   kernel32:KERNEL32.dll
 0001:0003904a       _LoadLibraryA@4            0043a04a f   kernel32:KERNEL32.dll
 0001:00039050       _RaiseException@16         0043a050 f   kernel32:KERNEL32.dll
 0001:00039056       _InterlockedIncrement@4    0043a056 f   kernel32:KERNEL32.dll
 0001:0003905c       _InterlockedDecrement@4    0043a05c f   kernel32:KERNEL32.dll
 0001:00039062       _GetModuleHandleA@4        0043a062 f   kernel32:KERNEL32.dll
 0001:00039068       _lstrlenA@4                0043a068 f   kernel32:KERNEL32.dll
 0001:0003906e       _GetModuleFileNameA@12     0043a06e f   kernel32:KERNEL32.dll
 0001:00039074       _MultiByteToWideChar@24    0043a074 f   kernel32:KERNEL32.dll
 0001:0003907a       _lstrlenW@4                0043a07a f   kernel32:KERNEL32.dll
 0001:00039080       _GetLastError@0            0043a080 f   kernel32:KERNEL32.dll
 0001:00039086       _InitializeCriticalSectionAndSpinCount@8 0043a086 f   kernel32:KERNEL32.dll
 0001:0003908c       _WideCharToMultiByte@32    0043a08c f   kernel32:KERNEL32.dll
 0001:00039092       _SizeofResource@8          0043a092 f   kernel32:KERNEL32.dll
 0001:00039098       _LoadResource@8            0043a098 f   kernel32:KERNEL32.dll
 0001:0003909e       _FindResourceA@12          0043a09e f   kernel32:KERNEL32.dll
 0001:000390a4       _LoadLibraryExA@12         0043a0a4 f   kernel32:KERNEL32.dll
 0001:000390aa       _lstrcmpiA@8               0043a0aa f   kernel32:KERNEL32.dll
 0001:000390b0       _GetProcAddress@8          0043a0b0 f   kernel32:KERNEL32.dll
 0001:000390b6       _IsDBCSLeadByte@4          0043a0b6 f   kernel32:KERNEL32.dll
 0001:000390bc       _LockResource@4            0043a0bc f   kernel32:KERNEL32.dll
 0001:000390c2       _FreeResource@4            0043a0c2 f   kernel32:KERNEL32.dll
 0001:000390c8       _SetFilePointer@16         0043a0c8 f   kernel32:KERNEL32.dll
 0001:000390ce       _GetFileType@4             0043a0ce f   kernel32:KERNEL32.dll
 0001:000390d4       _CreateFileA@28            0043a0d4 f   kernel32:KERNEL32.dll
 0001:000390da       _DuplicateHandle@28        0043a0da f   kernel32:KERNEL32.dll
 0001:000390e0       _GetCurrentProcess@0       0043a0e0 f   kernel32:KERNEL32.dll
 0001:000390e6       _CloseHandle@4             0043a0e6 f   kernel32:KERNEL32.dll
 0001:000390ec       _ReadFile@20               0043a0ec f   kernel32:KERNEL32.dll
 0001:000390f2       _SystemTimeToFileTime@8    0043a0f2 f   kernel32:KERNEL32.dll
 0001:000390f8       _GetCurrentDirectoryA@8    0043a0f8 f   kernel32:KERNEL32.dll
 0001:000390fe       _DosDateTimeToFileTime@12  0043a0fe f   kernel32:KERNEL32.dll
 0001:00039104       _CreateDirectoryA@8        0043a104 f   kernel32:KERNEL32.dll
 0001:0003910a       _SetFileTime@16            0043a10a f   kernel32:KERNEL32.dll
 0001:00039110       _WriteFile@20              0043a110 f   kernel32:KERNEL32.dll
 0001:00039116       _IsZoomed@4                0043a116 f   user32:USER32.dll
 0001:0003911c       _GetWindowRect@8           0043a11c f   user32:USER32.dll
 0001:00039122       _UpdateWindow@4            0043a122 f   user32:USER32.dll
 0001:00039128       _MoveWindow@24             0043a128 f   user32:USER32.dll
 0001:0003912e       _ShowWindow@8              0043a12e f   user32:USER32.dll
 0001:00039134       _UnregisterClassA@8        0043a134 f   user32:USER32.dll
 0001:0003913a       _CharNextA@4               0043a13a f   user32:USER32.dll
 0001:00039140       _PostQuitMessage@4         0043a140 f   user32:USER32.dll
 0001:00039146       _IsIconic@4                0043a146 f   user32:USER32.dll
 0001:0003914c       _GetClientRect@8           0043a14c f   user32:USER32.dll
 0001:00039152       _ScreenToClient@8          0043a152 f   user32:USER32.dll
 0001:00039158       _GetMonitorInfoA@8         0043a158 f   user32:USER32.dll
 0001:0003915e       _MonitorFromWindow@8       0043a15e f   user32:USER32.dll
 0001:00039164       _SetWindowRgn@12           0043a164 f   user32:USER32.dll
 0001:0003916a       _SetWindowPos@28           0043a16a f   user32:USER32.dll
 0001:00039170       _SetWindowLongA@12         0043a170 f   user32:USER32.dll
 0001:00039176       _GetWindowLongA@8          0043a176 f   user32:USER32.dll
 0001:0003917c       _DeleteObject@4            0043a17c f   gdi32:GDI32.dll
 0001:00039182       _CreateRoundRectRgn@24     0043a182 f   gdi32:GDI32.dll
 0001:00039188       _RegDeleteKeyA@8           0043a188 f   advapi32:ADVAPI32.dll
 0001:0003918e       _RegDeleteValueA@8         0043a18e f   advapi32:ADVAPI32.dll
 0001:00039194       _RegCloseKey@4             0043a194 f   advapi32:ADVAPI32.dll
 0001:0003919a       _RegCreateKeyExA@36        0043a19a f   advapi32:ADVAPI32.dll
 0001:000391a0       _RegOpenKeyExA@20          0043a1a0 f   advapi32:ADVAPI32.dll
 0001:000391a6       _RegEnumKeyExA@32          0043a1a6 f   advapi32:ADVAPI32.dll
 0001:000391ac       _RegSetValueExA@24         0043a1ac f   advapi32:ADVAPI32.dll
 0001:000391b2       _RegQueryInfoKeyW@48       0043a1b2 f   advapi32:ADVAPI32.dll
 0001:000391b8       _CoUninitialize@0          0043a1b8 f   ole32:ole32.dll
 0001:000391be       _OleUninitialize@0         0043a1be f   ole32:ole32.dll
 0001:000391c4       _OleInitialize@4           0043a1c4 f   ole32:ole32.dll
 0001:000391ca       _CoInitialize@4            0043a1ca f   ole32:ole32.dll
 0001:000391d0       _CoCreateInstance@20       0043a1d0 f   ole32:ole32.dll
 0001:000391d6       _CoTaskMemFree@4           0043a1d6 f   ole32:ole32.dll
 0001:000391dc       _CoTaskMemAlloc@4          0043a1dc f   ole32:ole32.dll
 0001:000391e2       _CoTaskMemRealloc@8        0043a1e2 f   ole32:ole32.dll
 0001:000391e8       _SysFreeString@4           0043a1e8 f   oleaut32:OLEAUT32.dll
 0001:000391ee       _VarUI4FromStr@16          0043a1ee f   oleaut32:OLEAUT32.dll
 0001:000391f4       ?GetSuperClassName@CWindowWnd@DuiLib@@MBEPBDXZ 0043a1f4 f   DuiLib_d:DuiLib_d.dll
 0001:000391fa       ?SetBkColor@CControlUI@DuiLib@@QAEXK@Z 0043a1fa f   DuiLib_d:DuiLib_d.dll
 0001:00039200       ?SetBkImage@CControlUI@DuiLib@@QAEXPBD@Z 0043a200 f   DuiLib_d:DuiLib_d.dll
 0001:00039206       ?FindControl@CPaintManagerUI@DuiLib@@QBEPAVCControlUI@2@PBD@Z 0043a206 f   DuiLib_d:DuiLib_d.dll
 0001:0003920c       ??1CStdString@DuiLib@@QAE@XZ 0043a20c f   DuiLib_d:DuiLib_d.dll
 0001:00039212       ??BCStdString@DuiLib@@QBEPBDXZ 0043a212 f   DuiLib_d:DuiLib_d.dll
 0001:00039218       ?GetInstancePath@CPaintManagerUI@DuiLib@@SA?AVCStdString@2@XZ 0043a218 f   DuiLib_d:DuiLib_d.dll
 0001:0003921e       ?HandleMessage@CWindowWnd@DuiLib@@MAEJIIJ@Z 0043a21e f   DuiLib_d:DuiLib_d.dll
 0001:00039224       ?Close@CWindowWnd@DuiLib@@QAEXI@Z 0043a224 f   DuiLib_d:DuiLib_d.dll
 0001:0003922a       ?SetNormalImage@CButtonUI@DuiLib@@QAEXPBD@Z 0043a22a f   DuiLib_d:DuiLib_d.dll
 0001:00039230       ?GetData@CStdString@DuiLib@@QAEPBDXZ 0043a230 f   DuiLib_d:DuiLib_d.dll
 0001:00039236       ?SetParaFormat@CRichEditUI@DuiLib@@QAE_NAAUPARAFORMAT2@@@Z 0043a236 f   DuiLib_d:DuiLib_d.dll
 0001:0003923c       ?SetSelectionCharFormat@CRichEditUI@DuiLib@@QAE_NAAUCHARFORMAT2A@@@Z 0043a23c f   DuiLib_d:DuiLib_d.dll
 0001:00039242       ?ReplaceSel@CRichEditUI@DuiLib@@QAEXPBD_N@Z 0043a242 f   DuiLib_d:DuiLib_d.dll
 0001:00039248       ?SetSel@CRichEditUI@DuiLib@@QAEHJJ@Z 0043a248 f   DuiLib_d:DuiLib_d.dll
 0001:0003924e       ?IsEmpty@CStdString@DuiLib@@QBE_NXZ 0043a24e f   DuiLib_d:DuiLib_d.dll
 0001:00039254       ?GetTextRange@CRichEditUI@DuiLib@@QBE?AVCStdString@2@JJ@Z 0043a254 f   DuiLib_d:DuiLib_d.dll
 0001:0003925a       ?GetTextLength@CRichEditUI@DuiLib@@QBEJK@Z 0043a25a f   DuiLib_d:DuiLib_d.dll
 0001:00039260       ?IsSelected@COptionUI@DuiLib@@QBE_NXZ 0043a260 f   DuiLib_d:DuiLib_d.dll
 0001:00039266       ??0CRect@DuiLib@@QAE@XZ    0043a266 f   DuiLib_d:DuiLib_d.dll
 0001:0003926c       ??0CRect@DuiLib@@QAE@ABUtagRECT@@@Z 0043a26c f   DuiLib_d:DuiLib_d.dll
 0001:00039272       ?SendMessageA@CWindowWnd@DuiLib@@QAEJIIJ@Z 0043a272 f   DuiLib_d:DuiLib_d.dll
 0001:00039278       ?Selected@COptionUI@DuiLib@@QAEX_N@Z 0043a278 f   DuiLib_d:DuiLib_d.dll
 0001:0003927e       ?ShowWindow@CWindowWnd@DuiLib@@QAEX_N0@Z 0043a27e f   DuiLib_d:DuiLib_d.dll
 0001:00039284       ?Create@CWindowWnd@DuiLib@@QAEPAUHWND__@@PAU3@PBDKKHHHHPAUHMENU__@@@Z 0043a284 f   DuiLib_d:DuiLib_d.dll
 0001:0003928a       ?GetBkColor@CControlUI@DuiLib@@QBEKXZ 0043a28a f   DuiLib_d:DuiLib_d.dll
 0001:00039290       ?FindControl@CPaintManagerUI@DuiLib@@QBEPAVCControlUI@2@UtagPOINT@@@Z 0043a290 f   DuiLib_d:DuiLib_d.dll
 0001:00039296       ?GetInitSize@CPaintManagerUI@DuiLib@@QAE?AUtagSIZE@@XZ 0043a296 f   DuiLib_d:DuiLib_d.dll
 0001:0003929c       ??0CControlUI@DuiLib@@QAE@XZ 0043a29c f   DuiLib_d:DuiLib_d.dll
 0001:000392a2       ?ApplyAttributeList@CControlUI@DuiLib@@QAEPAV12@PBD@Z 0043a2a2 f   DuiLib_d:DuiLib_d.dll
 0001:000392a8       ??0CButtonUI@DuiLib@@QAE@XZ 0043a2a8 f   DuiLib_d:DuiLib_d.dll
 0001:000392ae       ??0CHorizontalLayoutUI@DuiLib@@QAE@XZ 0043a2ae f   DuiLib_d:DuiLib_d.dll
 0001:000392b4       ?GetName@CControlUI@DuiLib@@UBE?AVCStdString@2@XZ 0043a2b4 f   DuiLib_d:DuiLib_d.dll
 0001:000392ba       ?SetName@CControlUI@DuiLib@@UAEXPBD@Z 0043a2ba f   DuiLib_d:DuiLib_d.dll
 0001:000392c0       ?GetClass@CHorizontalLayoutUI@DuiLib@@UBEPBDXZ 0043a2c0 f   DuiLib_d:DuiLib_d.dll
 0001:000392c6       ?GetInterface@CHorizontalLayoutUI@DuiLib@@UAEPAXPBD@Z 0043a2c6 f   DuiLib_d:DuiLib_d.dll
 0001:000392cc       ?GetControlFlags@CHorizontalLayoutUI@DuiLib@@UBEIXZ 0043a2cc f   DuiLib_d:DuiLib_d.dll
 0001:000392d2       ?Activate@CControlUI@DuiLib@@UAE_NXZ 0043a2d2 f   DuiLib_d:DuiLib_d.dll
 0001:000392d8       ?GetManager@CControlUI@DuiLib@@UBEPAVCPaintManagerUI@2@XZ 0043a2d8 f   DuiLib_d:DuiLib_d.dll
 0001:000392de       ?SetManager@CContainerUI@DuiLib@@UAEXPAVCPaintManagerUI@2@PAVCControlUI@2@_N@Z 0043a2de f   DuiLib_d:DuiLib_d.dll
 0001:000392e4       ?GetParent@CControlUI@DuiLib@@UBEPAV12@XZ 0043a2e4 f   DuiLib_d:DuiLib_d.dll
 0001:000392ea       ?GetText@CControlUI@DuiLib@@UBE?AVCStdString@2@XZ 0043a2ea f   DuiLib_d:DuiLib_d.dll
 0001:000392f0       ?SetText@CControlUI@DuiLib@@UAEXPBD@Z 0043a2f0 f   DuiLib_d:DuiLib_d.dll
 0001:000392f6       ?GetPos@CControlUI@DuiLib@@UBEABUtagRECT@@XZ 0043a2f6 f   DuiLib_d:DuiLib_d.dll
 0001:000392fc       ?SetPos@CHorizontalLayoutUI@DuiLib@@UAEXUtagRECT@@@Z 0043a2fc f   DuiLib_d:DuiLib_d.dll
 0001:00039302       ?GetWidth@CControlUI@DuiLib@@UBEHXZ 0043a302 f   DuiLib_d:DuiLib_d.dll
 0001:00039308       ?GetHeight@CControlUI@DuiLib@@UBEHXZ 0043a308 f   DuiLib_d:DuiLib_d.dll
 0001:0003930e       ?GetX@CControlUI@DuiLib@@UBEHXZ 0043a30e f   DuiLib_d:DuiLib_d.dll
 0001:00039314       ?GetY@CControlUI@DuiLib@@UBEHXZ 0043a314 f   DuiLib_d:DuiLib_d.dll
 0001:0003931a       ?GetPadding@CControlUI@DuiLib@@UBE?AUtagRECT@@XZ 0043a31a f   DuiLib_d:DuiLib_d.dll
 0001:00039320       ?SetPadding@CControlUI@DuiLib@@UAEXUtagRECT@@@Z 0043a320 f   DuiLib_d:DuiLib_d.dll
 0001:00039326       ?GetFixedXY@CControlUI@DuiLib@@UBE?AUtagSIZE@@XZ 0043a326 f   DuiLib_d:DuiLib_d.dll
 0001:0003932c       ?SetFixedXY@CControlUI@DuiLib@@UAEXUtagSIZE@@@Z 0043a32c f   DuiLib_d:DuiLib_d.dll
 0001:00039332       ?GetFixedWidth@CControlUI@DuiLib@@UBEHXZ 0043a332 f   DuiLib_d:DuiLib_d.dll
 0001:00039338       ?SetFixedWidth@CControlUI@DuiLib@@UAEXH@Z 0043a338 f   DuiLib_d:DuiLib_d.dll
 0001:0003933e       ?GetFixedHeight@CControlUI@DuiLib@@UBEHXZ 0043a33e f   DuiLib_d:DuiLib_d.dll
 0001:00039344       ?SetFixedHeight@CControlUI@DuiLib@@UAEXH@Z 0043a344 f   DuiLib_d:DuiLib_d.dll
 0001:0003934a       ?GetMinWidth@CControlUI@DuiLib@@UBEHXZ 0043a34a f   DuiLib_d:DuiLib_d.dll
 0001:00039350       ?SetMinWidth@CControlUI@DuiLib@@UAEXH@Z 0043a350 f   DuiLib_d:DuiLib_d.dll
 0001:00039356       ?GetMaxWidth@CControlUI@DuiLib@@UBEHXZ 0043a356 f   DuiLib_d:DuiLib_d.dll
 0001:0003935c       ?SetMaxWidth@CControlUI@DuiLib@@UAEXH@Z 0043a35c f   DuiLib_d:DuiLib_d.dll
 0001:00039362       ?GetMinHeight@CControlUI@DuiLib@@UBEHXZ 0043a362 f   DuiLib_d:DuiLib_d.dll
 0001:00039368       ?SetMinHeight@CControlUI@DuiLib@@UAEXH@Z 0043a368 f   DuiLib_d:DuiLib_d.dll
 0001:0003936e       ?GetMaxHeight@CControlUI@DuiLib@@UBEHXZ 0043a36e f   DuiLib_d:DuiLib_d.dll
 0001:00039374       ?SetMaxHeight@CControlUI@DuiLib@@UAEXH@Z 0043a374 f   DuiLib_d:DuiLib_d.dll
 0001:0003937a       ?SetRelativePos@CControlUI@DuiLib@@UAEXUtagSIZE@@0@Z 0043a37a f   DuiLib_d:DuiLib_d.dll
 0001:00039380       ?SetRelativeParentSize@CControlUI@DuiLib@@UAEXUtagSIZE@@@Z 0043a380 f   DuiLib_d:DuiLib_d.dll
 0001:00039386       ?GetRelativePos@CControlUI@DuiLib@@UBE?AUtagTRelativePosUI@2@XZ 0043a386 f   DuiLib_d:DuiLib_d.dll
 0001:0003938c       ?IsRelativePos@CControlUI@DuiLib@@UBE_NXZ 0043a38c f   DuiLib_d:DuiLib_d.dll
 0001:00039392       ?GetToolTip@CControlUI@DuiLib@@UBE?AVCStdString@2@XZ 0043a392 f   DuiLib_d:DuiLib_d.dll
 0001:00039398       ?SetToolTip@CControlUI@DuiLib@@UAEXPBD@Z 0043a398 f   DuiLib_d:DuiLib_d.dll
 0001:0003939e       ?GetShortcut@CControlUI@DuiLib@@UBEDXZ 0043a39e f   DuiLib_d:DuiLib_d.dll
 0001:000393a4       ?SetShortcut@CControlUI@DuiLib@@UAEXD@Z 0043a3a4 f   DuiLib_d:DuiLib_d.dll
 0001:000393aa       ?IsContextMenuUsed@CControlUI@DuiLib@@UBE_NXZ 0043a3aa f   DuiLib_d:DuiLib_d.dll
 0001:000393b0       ?SetContextMenuUsed@CControlUI@DuiLib@@UAEX_N@Z 0043a3b0 f   DuiLib_d:DuiLib_d.dll
 0001:000393b6       ?GetUserData@CControlUI@DuiLib@@UAEABVCStdString@2@XZ 0043a3b6 f   DuiLib_d:DuiLib_d.dll
 0001:000393bc       ?SetUserData@CControlUI@DuiLib@@UAEXPBD@Z 0043a3bc f   DuiLib_d:DuiLib_d.dll
 0001:000393c2       ?GetTag@CControlUI@DuiLib@@UBEIXZ 0043a3c2 f   DuiLib_d:DuiLib_d.dll
 0001:000393c8       ?SetTag@CControlUI@DuiLib@@UAEXI@Z 0043a3c8 f   DuiLib_d:DuiLib_d.dll
 0001:000393ce       ?IsVisible@CControlUI@DuiLib@@UBE_NXZ 0043a3ce f   DuiLib_d:DuiLib_d.dll
 0001:000393d4       ?SetVisible@CContainerUI@DuiLib@@UAEX_N@Z 0043a3d4 f   DuiLib_d:DuiLib_d.dll
 0001:000393da       ?SetInternVisible@CContainerUI@DuiLib@@UAEX_N@Z 0043a3da f   DuiLib_d:DuiLib_d.dll
 0001:000393e0       ?IsEnabled@CControlUI@DuiLib@@UBE_NXZ 0043a3e0 f   DuiLib_d:DuiLib_d.dll
 0001:000393e6       ?SetEnabled@CControlUI@DuiLib@@UAEX_N@Z 0043a3e6 f   DuiLib_d:DuiLib_d.dll
 0001:000393ec       ?IsMouseEnabled@CControlUI@DuiLib@@UBE_NXZ 0043a3ec f   DuiLib_d:DuiLib_d.dll
 0001:000393f2       ?SetMouseEnabled@CContainerUI@DuiLib@@UAEX_N@Z 0043a3f2 f   DuiLib_d:DuiLib_d.dll
 0001:000393f8       ?IsKeyboardEnabled@CControlUI@DuiLib@@UBE_NXZ 0043a3f8 f   DuiLib_d:DuiLib_d.dll
 0001:000393fe       ?SetKeyboardEnabled@CControlUI@DuiLib@@UAEX_N@Z 0043a3fe f   DuiLib_d:DuiLib_d.dll
 0001:00039404       ?IsFocused@CControlUI@DuiLib@@UBE_NXZ 0043a404 f   DuiLib_d:DuiLib_d.dll
 0001:0003940a       ?SetFocus@CControlUI@DuiLib@@UAEXXZ 0043a40a f   DuiLib_d:DuiLib_d.dll
 0001:00039410       ?IsFloat@CControlUI@DuiLib@@UBE_NXZ 0043a410 f   DuiLib_d:DuiLib_d.dll
 0001:00039416       ?SetFloat@CControlUI@DuiLib@@UAEX_N@Z 0043a416 f   DuiLib_d:DuiLib_d.dll
 0001:0003941c       ?FindControl@CContainerUI@DuiLib@@UAEPAVCControlUI@2@P6GPAV32@PAV32@PAX@Z1I@Z 0043a41c f   DuiLib_d:DuiLib_d.dll
 0001:00039422       ?Init@CControlUI@DuiLib@@UAEXXZ 0043a422 f   DuiLib_d:DuiLib_d.dll
 0001:00039428       ?DoInit@CControlUI@DuiLib@@UAEXXZ 0043a428 f   DuiLib_d:DuiLib_d.dll
 0001:0003942e       ?Event@CControlUI@DuiLib@@UAEXAAUtagTEventUI@2@@Z 0043a42e f   DuiLib_d:DuiLib_d.dll
 0001:00039434       ?DoEvent@CHorizontalLayoutUI@DuiLib@@UAEXAAUtagTEventUI@2@@Z 0043a434 f   DuiLib_d:DuiLib_d.dll
 0001:0003943a       ?SetAttribute@CHorizontalLayoutUI@DuiLib@@UAEXPBD0@Z 0043a43a f   DuiLib_d:DuiLib_d.dll
 0001:00039440       ?EstimateSize@CControlUI@DuiLib@@UAE?AUtagSIZE@@U3@@Z 0043a440 f   DuiLib_d:DuiLib_d.dll
 0001:00039446       ?DoPaint@CContainerUI@DuiLib@@UAEXPAUHDC__@@ABUtagRECT@@@Z 0043a446 f   DuiLib_d:DuiLib_d.dll
 0001:0003944c       ?PaintBkColor@CControlUI@DuiLib@@UAEXPAUHDC__@@@Z 0043a44c f   DuiLib_d:DuiLib_d.dll
 0001:00039452       ?PaintBkImage@CControlUI@DuiLib@@UAEXPAUHDC__@@@Z 0043a452 f   DuiLib_d:DuiLib_d.dll
 0001:00039458       ?PaintStatusImage@CControlUI@DuiLib@@UAEXPAUHDC__@@@Z 0043a458 f   DuiLib_d:DuiLib_d.dll
 0001:0003945e       ?PaintText@CControlUI@DuiLib@@UAEXPAUHDC__@@@Z 0043a45e f   DuiLib_d:DuiLib_d.dll
 0001:00039464       ?PaintBorder@CControlUI@DuiLib@@UAEXPAUHDC__@@@Z 0043a464 f   DuiLib_d:DuiLib_d.dll
 0001:0003946a       ?DoPostPaint@CHorizontalLayoutUI@DuiLib@@UAEXPAUHDC__@@ABUtagRECT@@@Z 0043a46a f   DuiLib_d:DuiLib_d.dll
 0001:00039470       ?GetInset@CContainerUI@DuiLib@@UBE?AUtagRECT@@XZ 0043a470 f   DuiLib_d:DuiLib_d.dll
 0001:00039476       ?SetInset@CContainerUI@DuiLib@@UAEXUtagRECT@@@Z 0043a476 f   DuiLib_d:DuiLib_d.dll
 0001:0003947c       ?GetChildPadding@CContainerUI@DuiLib@@UBEHXZ 0043a47c f   DuiLib_d:DuiLib_d.dll
 0001:00039482       ?SetChildPadding@CContainerUI@DuiLib@@UAEXH@Z 0043a482 f   DuiLib_d:DuiLib_d.dll
 0001:00039488       ?IsAutoDestroy@CContainerUI@DuiLib@@UBE_NXZ 0043a488 f   DuiLib_d:DuiLib_d.dll
 0001:0003948e       ?SetAutoDestroy@CContainerUI@DuiLib@@UAEX_N@Z 0043a48e f   DuiLib_d:DuiLib_d.dll
 0001:00039494       ?IsDelayedDestroy@CContainerUI@DuiLib@@UBE_NXZ 0043a494 f   DuiLib_d:DuiLib_d.dll
 0001:0003949a       ?SetDelayedDestroy@CContainerUI@DuiLib@@UAEX_N@Z 0043a49a f   DuiLib_d:DuiLib_d.dll
 0001:000394a0       ?IsMouseChildEnabled@CContainerUI@DuiLib@@UBE_NXZ 0043a4a0 f   DuiLib_d:DuiLib_d.dll
 0001:000394a6       ?SetMouseChildEnabled@CContainerUI@DuiLib@@UAEX_N@Z 0043a4a6 f   DuiLib_d:DuiLib_d.dll
 0001:000394ac       ?FindSelectable@CContainerUI@DuiLib@@UBEHH_N@Z 0043a4ac f   DuiLib_d:DuiLib_d.dll
 0001:000394b2       ?GetScrollPos@CContainerUI@DuiLib@@UBE?AUtagSIZE@@XZ 0043a4b2 f   DuiLib_d:DuiLib_d.dll
 0001:000394b8       ?GetScrollRange@CContainerUI@DuiLib@@UBE?AUtagSIZE@@XZ 0043a4b8 f   DuiLib_d:DuiLib_d.dll
 0001:000394be       ?SetScrollPos@CContainerUI@DuiLib@@UAEXUtagSIZE@@@Z 0043a4be f   DuiLib_d:DuiLib_d.dll
 0001:000394c4       ?LineUp@CContainerUI@DuiLib@@UAEXXZ 0043a4c4 f   DuiLib_d:DuiLib_d.dll
 0001:000394ca       ?LineDown@CContainerUI@DuiLib@@UAEXXZ 0043a4ca f   DuiLib_d:DuiLib_d.dll
 0001:000394d0       ?PageUp@CContainerUI@DuiLib@@UAEXXZ 0043a4d0 f   DuiLib_d:DuiLib_d.dll
 0001:000394d6       ?PageDown@CContainerUI@DuiLib@@UAEXXZ 0043a4d6 f   DuiLib_d:DuiLib_d.dll
 0001:000394dc       ?HomeUp@CContainerUI@DuiLib@@UAEXXZ 0043a4dc f   DuiLib_d:DuiLib_d.dll
 0001:000394e2       ?EndDown@CContainerUI@DuiLib@@UAEXXZ 0043a4e2 f   DuiLib_d:DuiLib_d.dll
 0001:000394e8       ?LineLeft@CContainerUI@DuiLib@@UAEXXZ 0043a4e8 f   DuiLib_d:DuiLib_d.dll
 0001:000394ee       ?LineRight@CContainerUI@DuiLib@@UAEXXZ 0043a4ee f   DuiLib_d:DuiLib_d.dll
 0001:000394f4       ?PageLeft@CContainerUI@DuiLib@@UAEXXZ 0043a4f4 f   DuiLib_d:DuiLib_d.dll
 0001:000394fa       ?PageRight@CContainerUI@DuiLib@@UAEXXZ 0043a4fa f   DuiLib_d:DuiLib_d.dll
 0001:00039500       ?HomeLeft@CContainerUI@DuiLib@@UAEXXZ 0043a500 f   DuiLib_d:DuiLib_d.dll
 0001:00039506       ?EndRight@CContainerUI@DuiLib@@UAEXXZ 0043a506 f   DuiLib_d:DuiLib_d.dll
 0001:0003950c       ?EnableScrollBar@CContainerUI@DuiLib@@UAEX_N0@Z 0043a50c f   DuiLib_d:DuiLib_d.dll
 0001:00039512       ?GetVerticalScrollBar@CContainerUI@DuiLib@@UBEPAVCScrollBarUI@2@XZ 0043a512 f   DuiLib_d:DuiLib_d.dll
 0001:00039518       ?GetHorizontalScrollBar@CContainerUI@DuiLib@@UBEPAVCScrollBarUI@2@XZ 0043a518 f   DuiLib_d:DuiLib_d.dll
 0001:0003951e       ?SetFloatPos@CContainerUI@DuiLib@@MAEXH@Z 0043a51e f   DuiLib_d:DuiLib_d.dll
 0001:00039524       ?ProcessScrollBar@CContainerUI@DuiLib@@MAEXUtagRECT@@HH@Z 0043a524 f   DuiLib_d:DuiLib_d.dll
 0001:0003952a       ?GetClass@CButtonUI@DuiLib@@UBEPBDXZ 0043a52a f   DuiLib_d:DuiLib_d.dll
 0001:00039530       ?GetInterface@CButtonUI@DuiLib@@UAEPAXPBD@Z 0043a530 f   DuiLib_d:DuiLib_d.dll
 0001:00039536       ?GetControlFlags@CButtonUI@DuiLib@@UBEIXZ 0043a536 f   DuiLib_d:DuiLib_d.dll
 0001:0003953c       ?Activate@CButtonUI@DuiLib@@UAE_NXZ 0043a53c f   DuiLib_d:DuiLib_d.dll
 0001:00039542       ?SetManager@CControlUI@DuiLib@@UAEXPAVCPaintManagerUI@2@PAV12@_N@Z 0043a542 f   DuiLib_d:DuiLib_d.dll
 0001:00039548       ?SetPos@CControlUI@DuiLib@@UAEXUtagRECT@@@Z 0043a548 f   DuiLib_d:DuiLib_d.dll
 0001:0003954e       ?SetVisible@CControlUI@DuiLib@@UAEX_N@Z 0043a54e f   DuiLib_d:DuiLib_d.dll
 0001:00039554       ?SetInternVisible@CControlUI@DuiLib@@UAEX_N@Z 0043a554 f   DuiLib_d:DuiLib_d.dll
 0001:0003955a       ?SetEnabled@CButtonUI@DuiLib@@UAEX_N@Z 0043a55a f   DuiLib_d:DuiLib_d.dll
 0001:00039560       ?SetMouseEnabled@CControlUI@DuiLib@@UAEX_N@Z 0043a560 f   DuiLib_d:DuiLib_d.dll
 0001:00039566       ?FindControl@CControlUI@DuiLib@@UAEPAV12@P6GPAV12@PAV12@PAX@Z1I@Z 0043a566 f   DuiLib_d:DuiLib_d.dll
 0001:0003956c       ?DoEvent@CButtonUI@DuiLib@@UAEXAAUtagTEventUI@2@@Z 0043a56c f   DuiLib_d:DuiLib_d.dll
 0001:00039572       ?SetAttribute@CButtonUI@DuiLib@@UAEXPBD0@Z 0043a572 f   DuiLib_d:DuiLib_d.dll
 0001:00039578       ?EstimateSize@CButtonUI@DuiLib@@UAE?AUtagSIZE@@U3@@Z 0043a578 f   DuiLib_d:DuiLib_d.dll
 0001:0003957e       ?DoPaint@CControlUI@DuiLib@@UAEXPAUHDC__@@ABUtagRECT@@@Z 0043a57e f   DuiLib_d:DuiLib_d.dll
 0001:00039584       ?PaintStatusImage@CButtonUI@DuiLib@@UAEXPAUHDC__@@@Z 0043a584 f   DuiLib_d:DuiLib_d.dll
 0001:0003958a       ?PaintText@CButtonUI@DuiLib@@UAEXPAUHDC__@@@Z 0043a58a f   DuiLib_d:DuiLib_d.dll
 0001:00039590       ?DoPostPaint@CControlUI@DuiLib@@UAEXPAUHDC__@@ABUtagRECT@@@Z 0043a590 f   DuiLib_d:DuiLib_d.dll
 0001:00039596       ?GetClass@CControlUI@DuiLib@@UBEPBDXZ 0043a596 f   DuiLib_d:DuiLib_d.dll
 0001:0003959c       ?GetInterface@CControlUI@DuiLib@@UAEPAXPBD@Z 0043a59c f   DuiLib_d:DuiLib_d.dll
 0001:000395a2       ?GetControlFlags@CControlUI@DuiLib@@UBEIXZ 0043a5a2 f   DuiLib_d:DuiLib_d.dll
 0001:000395a8       ?DoEvent@CControlUI@DuiLib@@UAEXAAUtagTEventUI@2@@Z 0043a5a8 f   DuiLib_d:DuiLib_d.dll
 0001:000395ae       ?SetAttribute@CControlUI@DuiLib@@UAEXPBD0@Z 0043a5ae f   DuiLib_d:DuiLib_d.dll
 0001:000395b4       ??1CHorizontalLayoutUI@DuiLib@@UAE@XZ 0043a5b4 f   DuiLib_d:DuiLib_d.dll
 0001:000395ba       ??1CButtonUI@DuiLib@@UAE@XZ 0043a5ba f   DuiLib_d:DuiLib_d.dll
 0001:000395c0       ??1CControlUI@DuiLib@@UAE@XZ 0043a5c0 f   DuiLib_d:DuiLib_d.dll
 0001:000395c6       ?Term@CPaintManagerUI@DuiLib@@SAXXZ 0043a5c6 f   DuiLib_d:DuiLib_d.dll
 0001:000395cc       ?MessageLoop@CPaintManagerUI@DuiLib@@SAXXZ 0043a5cc f   DuiLib_d:DuiLib_d.dll
 0001:000395d2       ??BCWindowWnd@DuiLib@@QBEPAUHWND__@@XZ 0043a5d2 f   DuiLib_d:DuiLib_d.dll
 0001:000395d8       ?CenterWindow@CWindowWnd@DuiLib@@QAEXXZ 0043a5d8 f   DuiLib_d:DuiLib_d.dll
 0001:000395de       ?SetResourcePath@CPaintManagerUI@DuiLib@@SAXPBD@Z 0043a5de f   DuiLib_d:DuiLib_d.dll
 0001:000395e4       ?SetInstance@CPaintManagerUI@DuiLib@@SAXPAUHINSTANCE__@@@Z 0043a5e4 f   DuiLib_d:DuiLib_d.dll
 0001:000395ea       ?GetBkImage@CControlUI@DuiLib@@QAEPBDXZ 0043a5ea f   DuiLib_d:DuiLib_d.dll
 0001:000395f0       ?NeedUpdate@CControlUI@DuiLib@@QAEXXZ 0043a5f0 f   DuiLib_d:DuiLib_d.dll
 0001:000395f6       ?SelectItem@CTabLayoutUI@DuiLib@@QAE_NH@Z 0043a5f6 f   DuiLib_d:DuiLib_d.dll
 0001:000395fc       ?GetCurSel@CTabLayoutUI@DuiLib@@QBEHXZ 0043a5fc f   DuiLib_d:DuiLib_d.dll
 0001:00039602       ??1CDialogBuilder@DuiLib@@QAE@XZ 0043a602 f   DuiLib_d:DuiLib_d.dll
 0001:00039608       ??1CListUI@DuiLib@@UAE@XZ  0043a608 f   DuiLib_d:DuiLib_d.dll
 0001:0003960e       ?SetItemShowHtml@CListUI@DuiLib@@QAEX_N@Z 0043a60e f   DuiLib_d:DuiLib_d.dll
 0001:00039614       ??0CDialogBuilder@DuiLib@@QAE@XZ 0043a614 f   DuiLib_d:DuiLib_d.dll
 0001:0003961a       ??0CRect@DuiLib@@QAE@HHHH@Z 0043a61a f   DuiLib_d:DuiLib_d.dll
 0001:00039620       ??0CListUI@DuiLib@@QAE@XZ  0043a620 f   DuiLib_d:DuiLib_d.dll
 0001:00039626       ?GetClass@CListUI@DuiLib@@UBEPBDXZ 0043a626 f   DuiLib_d:DuiLib_d.dll
 0001:0003962c       ?GetInterface@CListUI@DuiLib@@UAEPAXPBD@Z 0043a62c f   DuiLib_d:DuiLib_d.dll
 0001:00039632       ?GetControlFlags@CListUI@DuiLib@@UBEIXZ 0043a632 f   DuiLib_d:DuiLib_d.dll
 0001:00039638       ?SetPos@CListUI@DuiLib@@UAEXUtagRECT@@@Z 0043a638 f   DuiLib_d:DuiLib_d.dll
 0001:0003963e       ?SetAttribute@CListUI@DuiLib@@UAEXPBD0@Z 0043a63e f   DuiLib_d:DuiLib_d.dll
 0001:00039644       ?DoPostPaint@CVerticalLayoutUI@DuiLib@@UAEXPAUHDC__@@ABUtagRECT@@@Z 0043a644 f   DuiLib_d:DuiLib_d.dll
 0001:0003964a       ?GetChildPadding@CListUI@DuiLib@@UBEHXZ 0043a64a f   DuiLib_d:DuiLib_d.dll
 0001:00039650       ?SetChildPadding@CListUI@DuiLib@@UAEXH@Z 0043a650 f   DuiLib_d:DuiLib_d.dll
 0001:00039656       ?GetScrollPos@CListUI@DuiLib@@UBE?AUtagSIZE@@XZ 0043a656 f   DuiLib_d:DuiLib_d.dll
 0001:0003965c       ?GetScrollRange@CListUI@DuiLib@@UBE?AUtagSIZE@@XZ 0043a65c f   DuiLib_d:DuiLib_d.dll
 0001:00039662       ?SetScrollPos@CListUI@DuiLib@@UAEXUtagSIZE@@@Z 0043a662 f   DuiLib_d:DuiLib_d.dll
 0001:00039668       ?LineUp@CListUI@DuiLib@@UAEXXZ 0043a668 f   DuiLib_d:DuiLib_d.dll
 0001:0003966e       ?LineDown@CListUI@DuiLib@@UAEXXZ 0043a66e f   DuiLib_d:DuiLib_d.dll
 0001:00039674       ?PageUp@CListUI@DuiLib@@UAEXXZ 0043a674 f   DuiLib_d:DuiLib_d.dll
 0001:0003967a       ?PageDown@CListUI@DuiLib@@UAEXXZ 0043a67a f   DuiLib_d:DuiLib_d.dll
 0001:00039680       ?HomeUp@CListUI@DuiLib@@UAEXXZ 0043a680 f   DuiLib_d:DuiLib_d.dll
 0001:00039686       ?EndDown@CListUI@DuiLib@@UAEXXZ 0043a686 f   DuiLib_d:DuiLib_d.dll
 0001:0003968c       ?LineLeft@CListUI@DuiLib@@UAEXXZ 0043a68c f   DuiLib_d:DuiLib_d.dll
 0001:00039692       ?LineRight@CListUI@DuiLib@@UAEXXZ 0043a692 f   DuiLib_d:DuiLib_d.dll
 0001:00039698       ?PageLeft@CListUI@DuiLib@@UAEXXZ 0043a698 f   DuiLib_d:DuiLib_d.dll
 0001:0003969e       ?PageRight@CListUI@DuiLib@@UAEXXZ 0043a69e f   DuiLib_d:DuiLib_d.dll
 0001:000396a4       ?HomeLeft@CListUI@DuiLib@@UAEXXZ 0043a6a4 f   DuiLib_d:DuiLib_d.dll
 0001:000396aa       ?EndRight@CListUI@DuiLib@@UAEXXZ 0043a6aa f   DuiLib_d:DuiLib_d.dll
 0001:000396b0       ?EnableScrollBar@CListUI@DuiLib@@UAEX_N0@Z 0043a6b0 f   DuiLib_d:DuiLib_d.dll
 0001:000396b6       ?GetVerticalScrollBar@CListUI@DuiLib@@UBEPAVCScrollBarUI@2@XZ 0043a6b6 f   DuiLib_d:DuiLib_d.dll
 0001:000396bc       ?GetHorizontalScrollBar@CListUI@DuiLib@@UBEPAVCScrollBarUI@2@XZ 0043a6bc f   DuiLib_d:DuiLib_d.dll
 0001:000396c2       ?GetItemAt@CListUI@DuiLib@@UBEPAVCControlUI@2@H@Z 0043a6c2 f   DuiLib_d:DuiLib_d.dll
 0001:000396c8       ?GetItemIndex@CListUI@DuiLib@@UBEHPAVCControlUI@2@@Z 0043a6c8 f   DuiLib_d:DuiLib_d.dll
 0001:000396ce       ?SetItemIndex@CListUI@DuiLib@@UAE_NPAVCControlUI@2@H@Z 0043a6ce f   DuiLib_d:DuiLib_d.dll
 0001:000396d4       ?GetCount@CListUI@DuiLib@@UBEHXZ 0043a6d4 f   DuiLib_d:DuiLib_d.dll
 0001:000396da       ?GetListInfo@CListUI@DuiLib@@UAEPAUtagTListInfoUI@2@XZ 0043a6da f   DuiLib_d:DuiLib_d.dll
 0001:000396e0       ?GetCurSel@CListUI@DuiLib@@UBEHXZ 0043a6e0 f   DuiLib_d:DuiLib_d.dll
 0001:000396e6       ?GetHeader@CListUI@DuiLib@@UBEPAVCListHeaderUI@2@XZ 0043a6e6 f   DuiLib_d:DuiLib_d.dll
 0001:000396ec       ?GetList@CListUI@DuiLib@@UBEPAVCContainerUI@2@XZ 0043a6ec f   DuiLib_d:DuiLib_d.dll
 0001:000396f2       ?GetTextCallback@CListUI@DuiLib@@UBEPAVIListCallbackUI@2@XZ 0043a6f2 f   DuiLib_d:DuiLib_d.dll
 0001:000396f8       ?SetTextCallback@CListUI@DuiLib@@UAEXPAVIListCallbackUI@2@@Z 0043a6f8 f   DuiLib_d:DuiLib_d.dll
 0001:000396fe       ?ExpandItem@CListUI@DuiLib@@UAE_NH_N@Z 0043a6fe f   DuiLib_d:DuiLib_d.dll
 0001:00039704       ?GetExpandedItem@CListUI@DuiLib@@UBEHXZ 0043a704 f   DuiLib_d:DuiLib_d.dll
 0001:0003970a       ?Add@CListUI@DuiLib@@UAE_NPAVCControlUI@2@@Z 0043a70a f   DuiLib_d:DuiLib_d.dll
 0001:00039710       ?AddAt@CListUI@DuiLib@@UAE_NPAVCControlUI@2@H@Z 0043a710 f   DuiLib_d:DuiLib_d.dll
 0001:00039716       ?Remove@CListUI@DuiLib@@UAE_NPAVCControlUI@2@@Z 0043a716 f   DuiLib_d:DuiLib_d.dll
 0001:0003971c       ?RemoveAt@CListUI@DuiLib@@UAE_NH@Z 0043a71c f   DuiLib_d:DuiLib_d.dll
 0001:00039722       ?RemoveAll@CListUI@DuiLib@@UAEXXZ 0043a722 f   DuiLib_d:DuiLib_d.dll
 0001:00039728       ?DoEvent@CListUI@DuiLib@@UAEXAAUtagTEventUI@2@@Z 0043a728 f   DuiLib_d:DuiLib_d.dll
 0001:0003972e       ?SetTimer@CPaintManagerUI@DuiLib@@QAE_NPAVCControlUI@2@II@Z 0043a72e f   DuiLib_d:DuiLib_d.dll
 0001:00039734       ?KillTimer@CPaintManagerUI@DuiLib@@QAE_NPAVCControlUI@2@I@Z 0043a734 f   DuiLib_d:DuiLib_d.dll
 0001:0003973a       ?DoEvent@CVerticalLayoutUI@DuiLib@@UAEXAAUtagTEventUI@2@@Z 0043a73a f   DuiLib_d:DuiLib_d.dll
 0001:00039740       ?SetShowHtml@CLabelUI@DuiLib@@QAEX_N@Z 0043a740 f   DuiLib_d:DuiLib_d.dll
 0001:00039746       ??YCEventSource@DuiLib@@QAEXAAVCDelegateBase@1@@Z 0043a746 f   DuiLib_d:DuiLib_d.dll
 0001:0003974c       ?FindSubControlByName@CPaintManagerUI@DuiLib@@QBEPAVCControlUI@2@PAV32@PBD@Z 0043a74c f   DuiLib_d:DuiLib_d.dll
 0001:00039752       ?Create@CDialogBuilder@DuiLib@@QAEPAVCControlUI@2@PAVIDialogBuilderCallback@2@PAVCPaintManagerUI@2@PAV32@@Z 0043a752 f   DuiLib_d:DuiLib_d.dll
 0001:00039758       ?Create@CDialogBuilder@DuiLib@@QAEPAVCControlUI@2@VSTRINGorID@2@PBDPAVIDialogBuilderCallback@2@PAVCPaintManagerUI@2@PAV32@@Z 0043a758 f   DuiLib_d:DuiLib_d.dll
 0001:0003975e       ?IsValid@CMarkup@DuiLib@@QBE_NXZ 0043a75e f   DuiLib_d:DuiLib_d.dll
 0001:00039764       ?GetMarkup@CDialogBuilder@DuiLib@@QAEPAVCMarkup@2@XZ 0043a764 f   DuiLib_d:DuiLib_d.dll
 0001:0003976a       ??1CDelegateBase@DuiLib@@UAE@XZ 0043a76a f   DuiLib_d:DuiLib_d.dll
 0001:00039770       ??0CDelegateBase@DuiLib@@QAE@PAX0@Z 0043a770 f   DuiLib_d:DuiLib_d.dll
 0001:00039776       ??0CDelegateBase@DuiLib@@QAE@ABV01@@Z 0043a776 f   DuiLib_d:DuiLib_d.dll
 0001:0003977c       ?GetFn@CDelegateBase@DuiLib@@IAEPAXXZ 0043a77c f   DuiLib_d:DuiLib_d.dll
 0001:00039782       ?SelectItem@CListUI@DuiLib@@UAE_NH_N@Z 0043a782 f   DuiLib_d:DuiLib_d.dll
 0001:00039788       ??0CPaintManagerUI@DuiLib@@QAE@XZ 0043a788 f   DuiLib_d:DuiLib_d.dll
 0001:0003978e       ??0CWindowWnd@DuiLib@@QAE@XZ 0043a78e f   DuiLib_d:DuiLib_d.dll
 0001:00039794       ??1CPaintManagerUI@DuiLib@@QAE@XZ 0043a794 f   DuiLib_d:DuiLib_d.dll
 0001:0003979a       ?ReapObjects@CPaintManagerUI@DuiLib@@QAEXPAVCControlUI@2@@Z 0043a79a f   DuiLib_d:DuiLib_d.dll
 0001:000397a0       ?GetRoot@CPaintManagerUI@DuiLib@@QBEPAVCControlUI@2@XZ 0043a7a0 f   DuiLib_d:DuiLib_d.dll
 0001:000397a6       ?RemoveNotifier@CPaintManagerUI@DuiLib@@QAE_NPAVINotifyUI@2@@Z 0043a7a6 f   DuiLib_d:DuiLib_d.dll
 0001:000397ac       ?RemovePreMessageFilter@CPaintManagerUI@DuiLib@@QAE_NPAVIMessageFilterUI@2@@Z 0043a7ac f   DuiLib_d:DuiLib_d.dll
 0001:000397b2       ?GetCaptionRect@CPaintManagerUI@DuiLib@@QAEAAUtagRECT@@XZ 0043a7b2 f   DuiLib_d:DuiLib_d.dll
 0001:000397b8       ?GetSizeBox@CPaintManagerUI@DuiLib@@QAEAAUtagRECT@@XZ 0043a7b8 f   DuiLib_d:DuiLib_d.dll
 0001:000397be       ?Offset@CRect@DuiLib@@QAEXHH@Z 0043a7be f   DuiLib_d:DuiLib_d.dll
 0001:000397c4       ?GetRoundCorner@CPaintManagerUI@DuiLib@@QBE?AUtagSIZE@@XZ 0043a7c4 f   DuiLib_d:DuiLib_d.dll
 0001:000397ca       ?AddNotifier@CPaintManagerUI@DuiLib@@QAE_NPAVINotifyUI@2@@Z 0043a7ca f   DuiLib_d:DuiLib_d.dll
 0001:000397d0       ?AttachDialog@CPaintManagerUI@DuiLib@@QAE_NPAVCControlUI@2@@Z 0043a7d0 f   DuiLib_d:DuiLib_d.dll
 0001:000397d6       ?SetResourceZip@CPaintManagerUI@DuiLib@@SAXPAXI@Z 0043a7d6 f   DuiLib_d:DuiLib_d.dll
 0001:000397dc       ?GetResourceDll@CPaintManagerUI@DuiLib@@SAPAUHINSTANCE__@@XZ 0043a7dc f   DuiLib_d:DuiLib_d.dll
 0001:000397e2       ?GetResourceZip@CPaintManagerUI@DuiLib@@SAABVCStdString@2@XZ 0043a7e2 f   DuiLib_d:DuiLib_d.dll
 0001:000397e8       ?AddPreMessageFilter@CPaintManagerUI@DuiLib@@QAE_NPAVIMessageFilterUI@2@@Z 0043a7e8 f   DuiLib_d:DuiLib_d.dll
 0001:000397ee       ?Init@CPaintManagerUI@DuiLib@@QAEXPAUHWND__@@@Z 0043a7ee f   DuiLib_d:DuiLib_d.dll
 0001:000397f4       ?MessageHandler@CPaintManagerUI@DuiLib@@QAE_NIIJAAJ@Z 0043a7f4 f   DuiLib_d:DuiLib_d.dll
 0001:000397fa       ?GetValue@CProgressUI@DuiLib@@QBEHXZ 0043a7fa f   DuiLib_d:DuiLib_d.dll
 0001:00039800       ?SetValue@CProgressUI@DuiLib@@QAEXH@Z 0043a800 f   DuiLib_d:DuiLib_d.dll
 0001:00039810       ??0_Init_locks@std@@QAE@XZ 0043a810 f   libcpmtd:xlock.obj
 0001:00039860       ??1_Init_locks@std@@QAE@XZ 0043a860 f   libcpmtd:xlock.obj
 0001:000398b0       ?_Init_locks_ctor@_Init_locks@std@@CAXPAV12@@Z 0043a8b0 f   libcpmtd:xlock.obj
 0001:00039900       ?_Init_locks_dtor@_Init_locks@std@@CAXPAV12@@Z 0043a900 f   libcpmtd:xlock.obj
 0001:00039950       ??0_Lockit@std@@QAE@XZ     0043a950 f   libcpmtd:xlock.obj
 0001:00039980       ??0_Lockit@std@@QAE@H@Z    0043a980 f   libcpmtd:xlock.obj
 0001:000399c0       ??1_Lockit@std@@QAE@XZ     0043a9c0 f   libcpmtd:xlock.obj
 0001:000399f0       ?_Lockit_ctor@_Lockit@std@@CAXPAV12@@Z 0043a9f0 f   libcpmtd:xlock.obj
 0001:00039a10       ?_Lockit_ctor@_Lockit@std@@CAXPAV12@H@Z 0043aa10 f   libcpmtd:xlock.obj
 0001:00039a40       ?_Lockit_dtor@_Lockit@std@@CAXPAV12@@Z 0043aa40 f   libcpmtd:xlock.obj
 0001:00039a60       ?_Lockit_ctor@_Lockit@std@@SAXH@Z 0043aa60 f   libcpmtd:xlock.obj
 0001:00039a80       ?_Lockit_dtor@_Lockit@std@@SAXH@Z 0043aa80 f   libcpmtd:xlock.obj
 0001:00039aa0       ?_Debug_message@std@@YAXPB_W0I@Z 0043aaa0 f   libcpmtd:stdthrow.obj
 0001:00039ad0       ?_Debug_message@std@@YAXPBG0I@Z 0043aad0 f   libcpmtd:stdthrow.obj
 0001:00039af0       ?_Xinvalid_argument@std@@YAXPBD@Z 0043aaf0 f   libcpmtd:xthrow.obj
 0001:00039b20       ??0invalid_argument@std@@QAE@PBD@Z 0043ab20 f i libcpmtd:xthrow.obj
 0001:00039b50       ??0logic_error@std@@QAE@PBD@Z 0043ab50 f i libcpmtd:xthrow.obj
 0001:00039b80       ??_Elogic_error@std@@UAEPAXI@Z 0043ab80 f i libcpmtd:xthrow.obj
 0001:00039b80       ??_Glogic_error@std@@UAEPAXI@Z 0043ab80 f i libcpmtd:xthrow.obj
 0001:00039bb0       ??1logic_error@std@@UAE@XZ 0043abb0 f i libcpmtd:xthrow.obj
 0001:00039bd0       ??_Einvalid_argument@std@@UAEPAXI@Z 0043abd0 f i libcpmtd:xthrow.obj
 0001:00039bd0       ??_Ginvalid_argument@std@@UAEPAXI@Z 0043abd0 f i libcpmtd:xthrow.obj
 0001:00039c00       ??1invalid_argument@std@@UAE@XZ 0043ac00 f i libcpmtd:xthrow.obj
 0001:00039c20       ??0invalid_argument@std@@QAE@ABV01@@Z 0043ac20 f i libcpmtd:xthrow.obj
 0001:00039c50       ??0logic_error@std@@QAE@ABV01@@Z 0043ac50 f i libcpmtd:xthrow.obj
 0001:00039c80       ?_Xlength_error@std@@YAXPBD@Z 0043ac80 f   libcpmtd:xthrow.obj
 0001:00039cb0       ??0length_error@std@@QAE@PBD@Z 0043acb0 f i libcpmtd:xthrow.obj
 0001:00039ce0       ??_Glength_error@std@@UAEPAXI@Z 0043ace0 f i libcpmtd:xthrow.obj
 0001:00039ce0       ??_Elength_error@std@@UAEPAXI@Z 0043ace0 f i libcpmtd:xthrow.obj
 0001:00039d10       ??1length_error@std@@UAE@XZ 0043ad10 f i libcpmtd:xthrow.obj
 0001:00039d30       ??0length_error@std@@QAE@ABV01@@Z 0043ad30 f i libcpmtd:xthrow.obj
 0001:00039d60       ?_Xout_of_range@std@@YAXPBD@Z 0043ad60 f   libcpmtd:xthrow.obj
 0001:00039d90       ??0out_of_range@std@@QAE@PBD@Z 0043ad90 f i libcpmtd:xthrow.obj
 0001:00039dc0       ??_Gout_of_range@std@@UAEPAXI@Z 0043adc0 f i libcpmtd:xthrow.obj
 0001:00039dc0       ??_Eout_of_range@std@@UAEPAXI@Z 0043adc0 f i libcpmtd:xthrow.obj
 0001:00039df0       ??1out_of_range@std@@UAE@XZ 0043adf0 f i libcpmtd:xthrow.obj
 0001:00039e10       ??0out_of_range@std@@QAE@ABV01@@Z 0043ae10 f i libcpmtd:xthrow.obj
 0001:00039e40       ?_Xoverflow_error@std@@YAXPBD@Z 0043ae40 f   libcpmtd:xthrow.obj
 0001:00039e70       ??0overflow_error@std@@QAE@PBD@Z 0043ae70 f i libcpmtd:xthrow.obj
 0001:00039ea0       ??0runtime_error@std@@QAE@PBD@Z 0043aea0 f i libcpmtd:xthrow.obj
 0001:00039ed0       ??_Gruntime_error@std@@UAEPAXI@Z 0043aed0 f i libcpmtd:xthrow.obj
 0001:00039ed0       ??_Eruntime_error@std@@UAEPAXI@Z 0043aed0 f i libcpmtd:xthrow.obj
 0001:00039f00       ??1runtime_error@std@@UAE@XZ 0043af00 f i libcpmtd:xthrow.obj
 0001:00039f20       ??_Goverflow_error@std@@UAEPAXI@Z 0043af20 f i libcpmtd:xthrow.obj
 0001:00039f20       ??_Eoverflow_error@std@@UAEPAXI@Z 0043af20 f i libcpmtd:xthrow.obj
 0001:00039f50       ??1overflow_error@std@@UAE@XZ 0043af50 f i libcpmtd:xthrow.obj
 0001:00039f70       ??0overflow_error@std@@QAE@ABV01@@Z 0043af70 f i libcpmtd:xthrow.obj
 0001:00039fa0       ??0runtime_error@std@@QAE@ABV01@@Z 0043afa0 f i libcpmtd:xthrow.obj
 0001:00039fd0       ?_Xruntime_error@std@@YAXPBD@Z 0043afd0 f   libcpmtd:xthrow.obj
 0001:0003a000       ??_U@YAPAXI@Z              0043b000 f   libcpmtd:newaop.obj
 0001:0003a020       __Once                     0043b020 f   libcpmtd:xmtx.obj
 0001:0003a080       __Mtxinit                  0043b080 f   libcpmtd:xmtx.obj
 0001:0003a0a0       __Mtxdst                   0043b0a0 f   libcpmtd:xmtx.obj
 0001:0003a0c0       __Mtxlock                  0043b0c0 f   libcpmtd:xmtx.obj
 0001:0003a0e0       __Mtxunlock                0043b0e0 f   libcpmtd:xmtx.obj
 0001:0003a100       ?_JumpToContinuation@@YGXPAXPAUEHRegistrationNode@@@Z 0043b100 f   LIBCMTD:_trnsctrl_.obj
 0001:0003a140       ?_CallMemberFunction0@@YGXPAX0@Z 0043b140 f   LIBCMTD:_trnsctrl_.obj
 0001:0003a150       ?_CallMemberFunction1@@YGXPAX00@Z 0043b150 f   LIBCMTD:_trnsctrl_.obj
 0001:0003a160       ?_CallMemberFunction2@@YGXPAX00H@Z 0043b160 f   LIBCMTD:_trnsctrl_.obj
 0001:0003a170       ?_UnwindNestedFrames@@YGXPAUEHRegistrationNode@@PAUEHExceptionRecord@@@Z 0043b170 f   LIBCMTD:_trnsctrl_.obj
 0001:0003a1d0       ___CxxFrameHandler         0043b1d0 f   LIBCMTD:_trnsctrl_.obj
 0001:0003a210       ___CxxFrameHandler3        0043b210 f   LIBCMTD:_trnsctrl_.obj
 0001:0003a250       ___CxxFrameHandler2        0043b250 f   LIBCMTD:_trnsctrl_.obj
 0001:0003a290       ___CxxLongjmpUnwind@4      0043b290 f   LIBCMTD:_trnsctrl_.obj
 0001:0003a2c0       ?_CallCatchBlock2@@YAPAXPAUEHRegistrationNode@@PBU_s_FuncInfo@@PAXHK@Z 0043b2c0 f   LIBCMTD:_trnsctrl_.obj
 0001:0003a380       ?_CallSETranslator@@YAHPAUEHExceptionRecord@@PAUEHRegistrationNode@@PAX2PBU_s_FuncInfo@@H1@Z 0043b380 f   LIBCMTD:_trnsctrl_.obj
 0001:0003a520       ?_GetRangeOfTrysToCheck@@YAPBU_s_TryBlockMapEntry@@PBU_s_FuncInfo@@HHPAI1@Z 0043b520 f   LIBCMTD:_trnsctrl_.obj
 0001:0003a5a0       __CreateFrameInfo          0043b5a0 f   LIBCMTD:_trnsctrl_.obj
 0001:0003a5d0       __IsExceptionObjectToBeDestroyed 0043b5d0 f   LIBCMTD:_trnsctrl_.obj
 0001:0003a600       __FindAndUnlinkFrame       0043b600 f   LIBCMTD:_trnsctrl_.obj
 0001:0003a660       @__security_check_cookie@4 0043b660 f   LIBCMTD:secchk.obj
 0001:0003a670       __RTC_CheckEsp             0043b670 f   LIBCMTD:_stack_.obj
 0001:0003a6a0       @_RTC_CheckStackVars@8     0043b6a0 f   LIBCMTD:_stack_.obj
 0001:0003a710       @_RTC_AllocaHelper@12      0043b710 f   LIBCMTD:_stack_.obj
 0001:0003a750       @_RTC_CheckStackVars2@12   0043b750 f   LIBCMTD:_stack_.obj
 0001:0003a830       __RTC_InitBase             0043b830 f   LIBCMTD:_init_.obj
 0001:0003a860       __RTC_Shutdown             0043b860 f   LIBCMTD:_init_.obj
 0001:0003a880       ?name@type_info@@QBEPBDPAU__type_info_node@@@Z 0043b880 f   LIBCMTD:typinfo.obj
 0001:0003a8a0       ??1type_info@@UAE@XZ       0043b8a0 f   LIBCMTD:typinfo.obj
 0001:0003a8d0       ??_Gtype_info@@UAEPAXI@Z   0043b8d0 f i LIBCMTD:typinfo.obj
 0001:0003a8d0       ??_Etype_info@@UAEPAXI@Z   0043b8d0 f i LIBCMTD:typinfo.obj
 0001:0003a900       ?_name_internal_method@type_info@@QBEPBDPAU__type_info_node@@@Z 0043b900 f   LIBCMTD:typinfo.obj
 0001:0003a920       ?_type_info_dtor_internal_method@type_info@@QAEXXZ 0043b920 f   LIBCMTD:typinfo.obj
 0001:0003a940       ??8type_info@@QBE_NABV0@@Z 0043b940 f   LIBCMTD:typinfo.obj
 0001:0003a970       ??9type_info@@QBE_NABV0@@Z 0043b970 f   LIBCMTD:typinfo.obj
 0001:0003a9a0       ?before@type_info@@QBEHABV1@@Z 0043b9a0 f   LIBCMTD:typinfo.obj
 0001:0003a9d0       ?raw_name@type_info@@QBEPBDXZ 0043b9d0 f   LIBCMTD:typinfo.obj
 0001:0003a9f0       ??0type_info@@AAE@ABV0@@Z  0043b9f0 f   LIBCMTD:typinfo.obj
 0001:0003aa10       ??4type_info@@AAEAAV0@ABV0@@Z 0043ba10 f   LIBCMTD:typinfo.obj
 0001:0003aa30       ??3@YAXPAX@Z               0043ba30 f   LIBCMTD:dbgdel.obj
 0001:0003ab20       _sprintf                   0043bb20 f   LIBCMTD:sprintf.obj
 0001:0003acc0       __sprintf_l                0043bcc0 f   LIBCMTD:sprintf.obj
 0001:0003acf0       _sprintf_s                 0043bcf0 f   LIBCMTD:sprintf.obj
 0001:0003ad20       __sprintf_s_l              0043bd20 f   LIBCMTD:sprintf.obj
 0001:0003ad50       __snprintf_s               0043bd50 f   LIBCMTD:sprintf.obj
 0001:0003ad80       __snprintf_s_l             0043bd80 f   LIBCMTD:sprintf.obj
 0001:0003adb0       __sprintf_p                0043bdb0 f   LIBCMTD:sprintf.obj
 0001:0003ade0       __sprintf_p_l              0043bde0 f   LIBCMTD:sprintf.obj
 0001:0003ae10       __scprintf                 0043be10 f   LIBCMTD:sprintf.obj
 0001:0003ae30       __scprintf_p               0043be30 f   LIBCMTD:sprintf.obj
 0001:0003ae50       __scprintf_l               0043be50 f   LIBCMTD:sprintf.obj
 0001:0003ae80       __scprintf_p_l             0043be80 f   LIBCMTD:sprintf.obj
 0001:0003aeb0       _memset                    0043beb0 f   LIBCMTD:memset.obj
 0001:0003af30       _atol                      0043bf30 f   LIBCMTD:atox.obj
 0001:0003af50       __atol_l                   0043bf50 f   LIBCMTD:atox.obj
 0001:0003af70       _atoi                      0043bf70 f   LIBCMTD:atox.obj
 0001:0003af90       __atoi_l                   0043bf90 f   LIBCMTD:atox.obj
 0001:0003afb0       __atoi64                   0043bfb0 f   LIBCMTD:atox.obj
 0001:0003afd0       __atoi64_l                 0043bfd0 f   LIBCMTD:atox.obj
 0001:0003aff0       ??2@YAPAXI@Z               0043bff0 f   LIBCMTD:new.obj
 0001:0003b070       ??0bad_alloc@std@@QAE@XZ   0043c070 f i LIBCMTD:new.obj
 0001:0003b0a0       __mbsicmp_l                0043c0a0 f   LIBCMTD:mbsicmp.obj
 0001:0003b490       ??0_LocaleUpdate@@QAE@PAUlocaleinfo_struct@@@Z 0043c490 f i LIBCMTD:mbsicmp.obj
 0001:0003b570       ??1_LocaleUpdate@@QAE@XZ   0043c570 f i LIBCMTD:mbsicmp.obj
 0001:0003b5a0       ?GetLocaleT@_LocaleUpdate@@QAEPAUlocaleinfo_struct@@XZ 0043c5a0 f i LIBCMTD:mbsicmp.obj
 0001:0003b5b0       __mbsicmp                  0043c5b0 f   LIBCMTD:mbsicmp.obj
 0001:0003b5d0       __purecall                 0043c5d0 f   LIBCMTD:purevirt.obj
 0001:0003b610       __set_purecall_handler     0043c610 f   LIBCMTD:purevirt.obj
 0001:0003b650       __get_purecall_handler     0043c650 f   LIBCMTD:purevirt.obj
 0001:0003b670       _memcpy                    0043c670 f   LIBCMTD:memcpy.obj
 0001:0003b9e0       _strlen                    0043c9e0 f   LIBCMTD:strlen.obj
 0001:0003ba70       _memmove                   0043ca70 f   LIBCMTD:memmove.obj
 0001:0003bde0       __initp_misc_invarg        0043cde0 f   LIBCMTD:invarg.obj
 0001:0003bdf0       __invalid_parameter        0043cdf0 f   LIBCMTD:invarg.obj
 0001:0003be50       __invoke_watson            0043ce50 f   LIBCMTD:invarg.obj
 0001:0003be80       __call_reportfault         0043ce80 f   LIBCMTD:invarg.obj
 0001:0003bfd0       __set_invalid_parameter_handler 0043cfd0 f   LIBCMTD:invarg.obj
 0001:0003c010       __get_invalid_parameter_handler 0043d010 f   LIBCMTD:invarg.obj
 0001:0003c040       ?_invalid_parameter@@YAXPBG00II@Z 0043d040 f   LIBCMTD:invarg.obj
 0001:0003c070       ?_invoke_watson@@YAXPBG00II@Z 0043d070 f   LIBCMTD:invarg.obj
 0001:0003c090       __CrtSetReportHookW2       0043d090 f   LIBCMTD:dbgrptw.obj
 0001:0003c3c0       __CrtDbgReportW            0043d3c0 f   LIBCMTD:dbgrptw.obj
 0001:0003c400       __CrtDbgReportWV           0043d400 f i LIBCMTD:dbgrptw.obj
 0001:0003c430       ___crtMessageWindowW       0043d430 f   LIBCMTD:dbgrptw.obj
 0001:0003c830       __invoke_watson_if_error   0043d830 f i LIBCMTD:dbgrptw.obj
 0001:0003c860       __invoke_watson_if_oneof   0043d860 f i LIBCMTD:dbgrptw.obj
 0001:0003c8a0       ?_CrtDbgReportW@@YAHHPBGH00ZZ 0043d8a0 f   LIBCMTD:dbgrptw.obj
 0001:0003c8e0       __CxxThrowException@8      0043d8e0 f   LIBCMTD:throw.obj
 0001:0003c940       ??0exception@std@@QAE@XZ   0043d940 f   LIBCMTD:stdexcpt.obj
 0001:0003c970       ??_Eexception@std@@UAEPAXI@Z 0043d970 f i LIBCMTD:stdexcpt.obj
 0001:0003c970       ??_Gexception@std@@UAEPAXI@Z 0043d970 f i LIBCMTD:stdexcpt.obj
 0001:0003c9a0       ??0exception@std@@QAE@ABQBD@Z 0043d9a0 f   LIBCMTD:stdexcpt.obj
 0001:0003c9e0       ??0exception@std@@QAE@ABQBDH@Z 0043d9e0 f   LIBCMTD:stdexcpt.obj
 0001:0003ca10       ??0exception@std@@QAE@ABV01@@Z 0043da10 f   LIBCMTD:stdexcpt.obj
 0001:0003ca50       ??4exception@std@@QAEAAV01@ABV01@@Z 0043da50 f   LIBCMTD:stdexcpt.obj
 0001:0003caa0       ??1exception@std@@UAE@XZ   0043daa0 f   LIBCMTD:stdexcpt.obj
 0001:0003cac0       ?what@exception@std@@UBEPBDXZ 0043dac0 f   LIBCMTD:stdexcpt.obj
 0001:0003caf0       ?_Copy_str@exception@std@@AAEXPBD@Z 0043daf0 f   LIBCMTD:stdexcpt.obj
 0001:0003cb60       ?_Tidy@exception@std@@AAEXXZ 0043db60 f   LIBCMTD:stdexcpt.obj
 0001:0003cba0       ??0bad_cast@std@@QAE@PBD@Z 0043dba0 f   LIBCMTD:stdexcpt.obj
 0001:0003cbd0       ??_Gbad_cast@std@@UAEPAXI@Z 0043dbd0 f i LIBCMTD:stdexcpt.obj
 0001:0003cbd0       ??_Ebad_cast@std@@UAEPAXI@Z 0043dbd0 f i LIBCMTD:stdexcpt.obj
 0001:0003cc00       ??0bad_cast@std@@QAE@ABV01@@Z 0043dc00 f   LIBCMTD:stdexcpt.obj
 0001:0003cc30       ??1bad_cast@std@@UAE@XZ    0043dc30 f   LIBCMTD:stdexcpt.obj
 0001:0003cc50       ??0bad_typeid@std@@QAE@PBD@Z 0043dc50 f   LIBCMTD:stdexcpt.obj
 0001:0003cc80       ??_Ebad_typeid@std@@UAEPAXI@Z 0043dc80 f i LIBCMTD:stdexcpt.obj
 0001:0003cc80       ??_Gbad_typeid@std@@UAEPAXI@Z 0043dc80 f i LIBCMTD:stdexcpt.obj
 0001:0003ccb0       ??0bad_typeid@std@@QAE@ABV01@@Z 0043dcb0 f   LIBCMTD:stdexcpt.obj
 0001:0003cce0       ??1bad_typeid@std@@UAE@XZ  0043dce0 f   LIBCMTD:stdexcpt.obj
 0001:0003cd00       ??0__non_rtti_object@std@@QAE@PBD@Z 0043dd00 f   LIBCMTD:stdexcpt.obj
 0001:0003cd30       ??_E__non_rtti_object@std@@UAEPAXI@Z 0043dd30 f i LIBCMTD:stdexcpt.obj
 0001:0003cd30       ??_G__non_rtti_object@std@@UAEPAXI@Z 0043dd30 f i LIBCMTD:stdexcpt.obj
 0001:0003cd60       ??0__non_rtti_object@std@@QAE@ABV01@@Z 0043dd60 f   LIBCMTD:stdexcpt.obj
 0001:0003cd90       ??1__non_rtti_object@std@@UAE@XZ 0043dd90 f   LIBCMTD:stdexcpt.obj
 0001:0003cdb0       __vsnprintf_helper         0043ddb0 f   LIBCMTD:vsnprnc.obj
 0001:0003cfa0       __vsnprintf_c              0043dfa0 f   LIBCMTD:vsnprnc.obj
 0001:0003cff0       __vsnprintf_c_l            0043dff0 f   LIBCMTD:vsnprnc.obj
 0001:0003d040       __vsprintf_s_l             0043e040 f   LIBCMTD:vsnprnc.obj
 0001:0003d2b0       _vsprintf_s                0043e2b0 f   LIBCMTD:vsnprnc.obj
 0001:0003d2e0       __vsnprintf_s_l            0043e2e0 f   LIBCMTD:vsnprnc.obj
 0001:0003d680       __vsnprintf_s              0043e680 f   LIBCMTD:vsnprnc.obj
 0001:0003d6b0       __vsprintf_p               0043e6b0 f   LIBCMTD:vsnprnc.obj
 0001:0003d700       __vsprintf_p_l             0043e700 f   LIBCMTD:vsnprnc.obj
 0001:0003d750       _fflush                    0043e750 f   LIBCMTD:fflush.obj
 0001:0003d7f0       __fflush_nolock            0043e7f0 f   LIBCMTD:fflush.obj
 0001:0003d850       __flush                    0043e850 f   LIBCMTD:fflush.obj
 0001:0003d910       __flushall                 0043e910 f   LIBCMTD:fflush.obj
 0001:0003dae0       _vfprintf_helper           0043eae0 f   LIBCMTD:vfprintf.obj
 0001:0003dd80       __vfprintf_l               0043ed80 f   LIBCMTD:vfprintf.obj
 0001:0003ddb0       __vfprintf_s_l             0043edb0 f   LIBCMTD:vfprintf.obj
 0001:0003dde0       __vfprintf_p_l             0043ede0 f   LIBCMTD:vfprintf.obj
 0001:0003de10       _vfprintf                  0043ee10 f   LIBCMTD:vfprintf.obj
 0001:0003de40       _vfprintf_s                0043ee40 f   LIBCMTD:vfprintf.obj
 0001:0003de70       __vfprintf_p               0043ee70 f   LIBCMTD:vfprintf.obj
 0001:0003dea0       _fclose                    0043eea0 f   LIBCMTD:fclose.obj
 0001:0003dfb0       __fclose_nolock            0043efb0 f   LIBCMTD:fclose.obj
 0001:0003e0b0       _ftell                     0043f0b0 f   LIBCMTD:ftell.obj
 0001:0003e1a0       __ftell_nolock             0043f1a0 f   LIBCMTD:ftell.obj
 0001:0003e470       _fseek                     0043f470 f   LIBCMTD:fseek.obj
 0001:0003e5e0       __fseek_nolock             0043f5e0 f   LIBCMTD:fseek.obj
 0001:0003e6c0       __fsopen                   0043f6c0 f   LIBCMTD:fopen.obj
 0001:0003e8d0       _fopen                     0043f8d0 f   LIBCMTD:fopen.obj
 0001:0003e8f0       _fopen_s                   0043f8f0 f   LIBCMTD:fopen.obj
 0001:0003e990       __onexit                   0043f990 f   LIBCMTD:onexit.obj
 0001:0003eb60       _atexit                    0043fb60 f   LIBCMTD:onexit.obj
 0001:0003eb80       ___onexitinit              0043fb80 f   LIBCMTD:onexit.obj
 0001:0003ebe0       ??_V@YAXPAX@Z              0043fbe0 f   LIBCMTD:delete2.obj
 0001:0003ec00       ??_M@YGXPAXIHP6EX0@Z@Z     0043fc00 f   LIBCMTD:ehvecdtr.obj
 0001:0003ecc0       ?__ArrayUnwind@@YGXPAXIHP6EX0@Z@Z 0043fcc0 f   LIBCMTD:ehvecdtr.obj
 0001:0003ed80       _free                      0043fd80 f   LIBCMTD:dbgfree.obj
 0001:0003eda0       __alloca_probe_16          0043fda0 f   LIBCMTD:alloca16.obj
 0001:0003edb6       __alloca_probe_8           0043fdb6     LIBCMTD:alloca16.obj
 0001:0003edd0       __allmul                   0043fdd0 f   LIBCMTD:llmul.obj
 0001:0003ee10       __resetstkoflw             0043fe10 f   LIBCMTD:resetstk.obj
 0001:0003ef70       __except_handler4          0043ff70 f   LIBCMTD:chandler4.obj
 0001:0003f190       _memcpy_s                  00440190 f   LIBCMTD:memcpy_s.obj
 0001:0003f320       __chkstk                   00440320 f   LIBCMTD:chkstk.obj
 0001:0003f320       __alloca_probe             00440320     LIBCMTD:chkstk.obj
 0001:0003f350       __mbsstr_l                 00440350 f   LIBCMTD:mbsstr.obj
 0001:0003f5a0       __mbsstr                   004405a0 f   LIBCMTD:mbsstr.obj
 0001:0003f5c0       __mbsnbcpy_s               004405c0 f   LIBCMTD:mbsnbcpy_s.obj
 0001:0003f5f0       _malloc                    004405f0 f   LIBCMTD:dbgmalloc.obj
 0001:0003f620       __malloc_dbg               00440620 f   LIBCMTD:dbgheap.obj
 0001:0003f650       __nh_malloc                00440650 f   LIBCMTD:dbgheap.obj
 0001:0003f670       __nh_malloc_dbg            00440670 f   LIBCMTD:dbgheap.obj
 0001:0003f750       __heap_alloc               00440750 f   LIBCMTD:dbgheap.obj
 0001:0003fb30       __heap_alloc_dbg           00440b30 f   LIBCMTD:dbgheap.obj
 0001:0003fb90       __calloc_dbg_impl          00440b90 f   LIBCMTD:dbgheap.obj
 0001:0003fc10       __calloc_dbg               00440c10 f   LIBCMTD:dbgheap.obj
 0001:0003fc70       __recalloc                 00440c70 f   LIBCMTD:dbgheap.obj
 0001:0003fca0       __realloc_dbg              00440ca0 f   LIBCMTD:dbgheap.obj
 0001:00040340       __recalloc_dbg             00441340 f   LIBCMTD:dbgheap.obj
 0001:000403f0       __expand                   004413f0 f   LIBCMTD:dbgheap.obj
 0001:00040420       __expand_dbg               00441420 f   LIBCMTD:dbgheap.obj
 0001:00040530       __free_nolock              00441530 f   LIBCMTD:dbgheap.obj
 0001:00040550       __free_dbg                 00441550 f   LIBCMTD:dbgheap.obj
 0001:000405d0       __free_dbg_nolock          004415d0 f   LIBCMTD:dbgheap.obj
 0001:00040ab0       __msize                    00441ab0 f   LIBCMTD:dbgheap.obj
 0001:00040ad0       __msize_dbg                00441ad0 f   LIBCMTD:dbgheap.obj
 0001:00040cc0       __CrtSetBreakAlloc         00441cc0 f   LIBCMTD:dbgheap.obj
 0001:00040ce0       __CrtSetDbgBlockType       00441ce0 f   LIBCMTD:dbgheap.obj
 0001:00040dd0       __CrtSetAllocHook          00441dd0 f   LIBCMTD:dbgheap.obj
 0001:00040df0       __CrtGetAllocHook          00441df0 f   LIBCMTD:dbgheap.obj
 0001:00040e40       __CrtCheckMemory           00441e40 f   LIBCMTD:dbgheap.obj
 0001:000412a0       __CrtSetDbgFlag            004422a0 f   LIBCMTD:dbgheap.obj
 0001:000413f0       __CrtDoForAllClientObjects 004423f0 f   LIBCMTD:dbgheap.obj
 0001:00041510       __CrtIsValidPointer        00442510 f   LIBCMTD:dbgheap.obj
 0001:00041520       __CrtIsValidHeapPointer    00442520 f   LIBCMTD:dbgheap.obj
 0001:00041570       __CrtIsMemoryBlock         00442570 f   LIBCMTD:dbgheap.obj
 0001:000416e0       __CrtReportBlockType       004426e0 f   LIBCMTD:dbgheap.obj
 0001:00041710       __CrtSetDumpClient         00442710 f   LIBCMTD:dbgheap.obj
 0001:00041730       __CrtGetDumpClient         00442730 f   LIBCMTD:dbgheap.obj
 0001:00041740       __CrtMemCheckpoint         00442740 f   LIBCMTD:dbgheap.obj
 0001:00041960       __CrtMemDifference         00442960 f   LIBCMTD:dbgheap.obj
 0001:00041b80       __CrtMemDumpAllObjectsSince 00442b80 f   LIBCMTD:dbgheap.obj
 0001:00042070       __CrtDumpMemoryLeaks       00443070 f   LIBCMTD:dbgheap.obj
 0001:000420f0       __CrtMemDumpStatistics     004430f0 f   LIBCMTD:dbgheap.obj
 0001:00042200       __aligned_malloc           00443200 f   LIBCMTD:dbgheap.obj
 0001:00042220       __aligned_malloc_dbg       00443220 f   LIBCMTD:dbgheap.obj
 0001:00042250       __aligned_realloc          00443250 f   LIBCMTD:dbgheap.obj
 0001:00042280       __aligned_recalloc         00443280 f   LIBCMTD:dbgheap.obj
 0001:000422b0       __aligned_realloc_dbg      004432b0 f   LIBCMTD:dbgheap.obj
 0001:000422e0       __aligned_recalloc_dbg     004432e0 f   LIBCMTD:dbgheap.obj
 0001:00042310       __aligned_offset_malloc    00443310 f   LIBCMTD:dbgheap.obj
 0001:00042330       __aligned_offset_malloc_dbg 00443330 f   LIBCMTD:dbgheap.obj
 0001:000424f0       __aligned_offset_realloc   004434f0 f   LIBCMTD:dbgheap.obj
 0001:00042520       __aligned_offset_recalloc  00443520 f   LIBCMTD:dbgheap.obj
 0001:00042550       __aligned_offset_realloc_dbg 00443550 f   LIBCMTD:dbgheap.obj
 0001:00042840       __aligned_offset_recalloc_dbg 00443840 f   LIBCMTD:dbgheap.obj
 0001:00042900       __aligned_free             00443900 f   LIBCMTD:dbgheap.obj
 0001:00042920       __aligned_free_dbg         00443920 f   LIBCMTD:dbgheap.obj
 0001:000429d0       __CrtSetDebugFillThreshold 004439d0 f   LIBCMTD:dbgheap.obj
 0001:000429f0       __CrtSetCheckCount         004439f0 f   LIBCMTD:dbgheap.obj
 0001:00042a10       __CrtGetCheckCount         00443a10 f   LIBCMTD:dbgheap.obj
 0001:00042a20       __aligned_msize            00443a20 f   LIBCMTD:dbgheap.obj
 0001:00042a40       __aligned_msize_dbg        00443a40 f   LIBCMTD:dbgheap.obj
 0001:00042b50       __CIsqrt                   00443b50 f   LIBCMTD:_sqrt_.obj
 0001:00042b64       _sqrt                      00443b64     LIBCMTD:_sqrt_.obj
 0001:00042c10       __fpmath                   00443c10 f   LIBCMTD:_fpinit_.obj
 0001:00042c30       __cfltcvt_init             00443c30 f   LIBCMTD:_fpinit_.obj
 0001:00042ca0       ___setfflag                00443ca0 f   LIBCMTD:_fpinit_.obj
 0001:00042cc0       __ftol2_sse                00443cc0 f   LIBCMTD:ftol2.obj
 0001:00042cc9       __ftol2_pentium4           00443cc9 f   LIBCMTD:ftol2.obj
 0001:00042cdc       __ftol2_sse_excpt          00443cdc f   LIBCMTD:ftol2.obj
 0001:00042cf6       __ftol2                    00443cf6 f   LIBCMTD:ftol2.obj
 0001:00042d70       _labs                      00443d70 f   LIBCMTD:labs.obj
 0001:00042da0       ??2@YAPAXIHPBDH@Z          00443da0 f   LIBCMTD:dbgnew.obj
 0001:00042e20       ??_U@YAPAXIHPBDH@Z         00443e20 f   LIBCMTD:dbgnew.obj
 0001:00042e50       _calloc                    00443e50 f   LIBCMTD:dbgcalloc.obj
 0001:00042e80       _strcmp                    00443e80 f   LIBCMTD:strcmp.obj
 0001:00042f10       _strcpy                    00443f10 f   LIBCMTD:strcat.obj
 0001:00042f20       _strcat                    00443f20 f   LIBCMTD:strcat.obj
 0001:00043010       __gmtime64_s               00444010 f   LIBCMTD:gmtime64.obj
 0001:00043410       __gmtime64                 00444410 f   LIBCMTD:gmtime64.obj
 0001:00043450       __mbsnbcpy_l               00444450 f   LIBCMTD:mbsnbcpy.obj
 0001:000436b0       __mbsnbcpy                 004446b0 f   LIBCMTD:mbsnbcpy.obj
 0001:000436d0       _strncpy                   004446d0 f   LIBCMTD:strncpy.obj
 0001:00043800       _strtol                    00444800 f   LIBCMTD:strtol.obj
 0001:00043d30       __strtol_l                 00444d30 f   LIBCMTD:strtol.obj
 0001:00043d60       _strtoul                   00444d60 f   LIBCMTD:strtol.obj
 0001:00043db0       __strtoul_l                00444db0 f   LIBCMTD:strtol.obj
 0001:00043de0       _WinMainCRTStartup         00444de0 f   LIBCMTD:wincrt0.obj
 0001:00044060       ___InternalCxxFrameHandler 00445060 f   LIBCMTD:frame.obj
 0001:00044660       ??0bad_exception@std@@QAE@PBD@Z 00445660 f i LIBCMTD:frame.obj
 0001:00044690       ??1bad_exception@std@@UAE@XZ 00445690 f i LIBCMTD:frame.obj
 0001:000446b0       ??_Ebad_exception@std@@UAEPAXI@Z 004456b0 f i LIBCMTD:frame.obj
 0001:000446b0       ??_Gbad_exception@std@@UAEPAXI@Z 004456b0 f i LIBCMTD:frame.obj
 0001:000446e0       ??0bad_exception@std@@QAE@ABV01@@Z 004456e0 f i LIBCMTD:frame.obj
 0001:000448a0       ___TypeMatch               004458a0 f   LIBCMTD:frame.obj
 0001:00044950       ___FrameUnwindFilter       00445950 f   LIBCMTD:frame.obj
 0001:000449d0       ___FrameUnwindToState      004459d0 f   LIBCMTD:frame.obj
 0001:00044f10       ___BuildCatchObjectHelper  00445f10 f   LIBCMTD:frame.obj
 0001:00045180       ___BuildCatchObject        00446180 f   LIBCMTD:frame.obj
 0001:00045290       ___DestructExceptionObject 00446290 f   LIBCMTD:frame.obj
 0001:00045340       ___AdjustPointer           00446340 f   LIBCMTD:frame.obj
 0001:00045390       ?__uncaught_exception@@YA_NXZ 00446390 f   LIBCMTD:frame.obj
 0001:000453b0       ___CxxExceptionFilter      004463b0 f   LIBCMTD:frame.obj
 0001:000455b0       ___CxxRegisterExceptionObject 004465b0 f   LIBCMTD:frame.obj
 0001:000456e0       ___CxxDetectRethrow        004466e0 f   LIBCMTD:frame.obj
 0001:00045770       ___CxxUnregisterExceptionObject 00446770 f   LIBCMTD:frame.obj
 0001:000458f0       ___CxxQueryExceptionSize   004468f0 f   LIBCMTD:frame.obj
 0001:00045900       ___CxxCallUnwindDtor       00446900 f   LIBCMTD:frame.obj
 0001:00045980       ___CxxCallUnwindDelDtor    00446980 f   LIBCMTD:frame.obj
 0001:00045a00       ___CxxCallUnwindStdDelDtor 00446a00 f   LIBCMTD:frame.obj
 0001:00045a80       ___CxxCallUnwindVecDtor    00446a80 f   LIBCMTD:frame.obj
 0001:00045cb0       ?_is_exception_typeof@@YAHABVtype_info@@PAU_EXCEPTION_POINTERS@@@Z 00446cb0 f   LIBCMTD:frame.obj
 0001:00045d90       __CallSettingFrame@12      00446d90 f   LIBCMTD:lowhelpr.obj
 0001:00045db7       __NLG_Return               00446db7     LIBCMTD:lowhelpr.obj
 0001:00045de0       __encoded_null             00446de0 f   LIBCMTD:tidtable.obj
 0001:00045df0       ___crtTlsAlloc@4           00446df0 f   LIBCMTD:tidtable.obj
 0001:00045e00       ___fls_getvalue@4          00446e00 f   LIBCMTD:tidtable.obj
 0001:00045e20       ___get_flsindex            00446e20 f   LIBCMTD:tidtable.obj
 0001:00045e30       ___set_flsgetvalue         00446e30 f   LIBCMTD:tidtable.obj
 0001:00045e80       ___fls_setvalue@8          00446e80 f   LIBCMTD:tidtable.obj
 0001:00045ea0       __mtinit                   00446ea0 f   LIBCMTD:tidtable.obj
 0001:000460a0       __mtterm                   004470a0 f   LIBCMTD:tidtable.obj
 0001:00046100       __initptd                  00447100 f   LIBCMTD:tidtable.obj
 0001:00046230       __getptd_noexit            00447230 f   LIBCMTD:tidtable.obj
 0001:000462f0       __getptd                   004472f0 f   LIBCMTD:tidtable.obj
 0001:00046320       __freefls@4                00447320 f   LIBCMTD:tidtable.obj
 0001:00046530       __freeptd                  00447530 f   LIBCMTD:tidtable.obj
 0001:000465b0       ___threadid                004475b0 f   LIBCMTD:tidtable.obj
 0001:000465c0       ___threadhandle            004475c0 f   LIBCMTD:tidtable.obj
 0001:000465d0       __initp_eh_hooks           004475d0 f   LIBCMTD:hooks.obj
 0001:000465f0       ?terminate@@YAXXZ          004475f0 f   LIBCMTD:hooks.obj
 0001:00046670       ?unexpected@@YAXXZ         00447670 f   LIBCMTD:hooks.obj
 0001:000466a0       ?_inconsistency@@YAXXZ     004476a0 f   LIBCMTD:hooks.obj
 0001:00046730       ___report_gsfailure        00447730 f   LIBCMTD:gs_report.obj
 0001:00046840       ?_RTC_Failure@@YAXPAXH@Z   00447840 f   LIBCMTD:_error_.obj
 0001:00046bf0       ?_RTC_StackFailure@@YAXPAXPBD@Z 00447bf0 f   LIBCMTD:_error_.obj
 0001:00046cf0       ?_RTC_AllocaFailure@@YAXPAXPAU_RTC_ALLOCA_NODE@@H@Z 00447cf0 f   LIBCMTD:_error_.obj
 0001:00046ea0       __RTC_UninitUse            00447ea0 f   LIBCMTD:_error_.obj
 0001:00046f90       __RTC_NumErrors            00447f90 f   LIBCMTD:_userapi_.obj
 0001:00046fa0       __RTC_GetErrDesc           00447fa0 f   LIBCMTD:_userapi_.obj
 0001:00046fc0       __RTC_SetErrorType         00447fc0 f   LIBCMTD:_userapi_.obj
 0001:00046ff0       __RTC_SetErrorFunc         00447ff0 f   LIBCMTD:_userapi_.obj
 0001:00047010       __RTC_SetErrorFuncW        00448010 f   LIBCMTD:_userapi_.obj
 0001:00047030       ?_RTC_GetErrorFunc@@YAP6AHHPBDH00ZZPBX@Z 00448030 f   LIBCMTD:_userapi_.obj
 0001:00047040       ?_RTC_GetErrorFuncW@@YAP6AHHPB_WH00ZZPBX@Z 00448040 f   LIBCMTD:_userapi_.obj
 0001:00047050       __chkesp                   00448050 f   LIBCMTD:chkesp.obj
 0001:00047090       __CRT_RTC_INIT             00448090 f   LIBCMTD:chkesp.obj
 0001:000470a0       __CRT_RTC_INITW            004480a0 f   LIBCMTD:chkesp.obj
 0001:000470b0       ?_Type_info_dtor@type_info@@CAXPAV1@@Z 004480b0 f   LIBCMTD:typname.obj
 0001:000471c0       ?_Name_base@type_info@@CAPBDPBV1@PAU__type_info_node@@@Z 004481c0 f   LIBCMTD:typname.obj
 0001:00047370       ?_Type_info_dtor_internal@type_info@@CAXPAV1@@Z 00448370 f   LIBCMTD:typname.obj
 0001:00047480       ___unDNameHelper           00448480 f   LIBCMTD:typname.obj
 0001:000474c0       ?_Name_base_internal@type_info@@CAPBDPBV1@PAU__type_info_node@@@Z 004484c0 f   LIBCMTD:typname.obj
 0001:00047680       ___clean_type_info_names_internal 00448680 f   LIBCMTD:typname.obj
 0001:00047740       __mtinitlocks              00448740 f   LIBCMTD:mlock.obj
 0001:000477d0       __mtdeletelocks            004487d0 f   LIBCMTD:mlock.obj
 0001:00047890       __mtinitlocknum            00448890 f   LIBCMTD:mlock.obj
 0001:000479e0       __lock                     004489e0 f   LIBCMTD:mlock.obj
 0001:00047a20       __unlock                   00448a20 f   LIBCMTD:mlock.obj
 0001:00047a40       __lockerr_exit             00448a40 f   LIBCMTD:mlock.obj
 0001:00047a60       __flsbuf                   00448a60 f   LIBCMTD:_flsbuf.obj
 0001:00047d20       __output_l                 00448d20 f   LIBCMTD:output.obj
 0001:00049190       _get_int_arg               0044a190 f i LIBCMTD:output.obj
 0001:000491b0       _get_int64_arg             0044a1b0 f i LIBCMTD:output.obj
 0001:000491d0       _get_short_arg             0044a1d0 f i LIBCMTD:output.obj
 0001:000491f0       __dosmaperr                0044a1f0 f   LIBCMTD:dosmap.obj
 0001:00049220       __get_errno_from_oserr     0044a220 f   LIBCMTD:dosmap.obj
 0001:000492a0       __set_errno                0044a2a0 f   LIBCMTD:dosmap.obj
 0001:000492d0       __get_errno                0044a2d0 f   LIBCMTD:dosmap.obj
 0001:00049350       __set_doserrno             0044a350 f   LIBCMTD:dosmap.obj
 0001:00049380       __get_doserrno             0044a380 f   LIBCMTD:dosmap.obj
 0001:00049400       __errno                    0044a400 f   LIBCMTD:dosmap.obj
 0001:00049430       ___doserrno                0044a430 f   LIBCMTD:dosmap.obj
 0001:00049460       __vsprintf_l               0044a460 f   LIBCMTD:vsprintf.obj
 0001:00049600       _vsprintf                  0044a600 f   LIBCMTD:vsprintf.obj
 0001:00049620       __vscprintf_helper         0044a620 f   LIBCMTD:vsprintf.obj
 0001:00049700       __vscprintf                0044a700 f   LIBCMTD:vsprintf.obj
 0001:00049720       __vscprintf_l              0044a720 f   LIBCMTD:vsprintf.obj
 0001:00049740       __vscprintf_p              0044a740 f   LIBCMTD:vsprintf.obj
 0001:00049760       __vscprintf_p_l            0044a760 f   LIBCMTD:vsprintf.obj
 0001:00049780       __VEC_memzero              0044a780 f   LIBCMTD:p4_memset.obj
 0001:00049840       ___sse2_available_init     0044a840 f   LIBCMTD:cpu_disp.obj
 0001:00049860       __strtoi64                 0044a860 f   LIBCMTD:strtoq.obj
 0001:00049dd0       __strtoi64_l               0044add0 f   LIBCMTD:strtoq.obj
 0001:00049e00       __strtoui64                0044ae00 f   LIBCMTD:strtoq.obj
 0001:00049e50       __strtoui64_l              0044ae50 f   LIBCMTD:strtoq.obj
 0001:00049e80       __initp_heap_handler       0044ae80 f   LIBCMTD:handler.obj
 0001:00049e90       ?_set_new_handler@@YAP6AHI@ZP6AHI@Z@Z 0044ae90 f   LIBCMTD:handler.obj
 0001:00049ed0       ?_set_new_handler@@YAP6AHI@ZH@Z 0044aed0 f   LIBCMTD:handler.obj
 0001:00049f10       ?_query_new_handler@@YAP6AHI@ZXZ 0044af10 f   LIBCMTD:handler.obj
 0001:00049f30       __callnewh                 0044af30 f   LIBCMTD:handler.obj
 0001:00049f70       ___crtLCMapStringA         0044af70 f   LIBCMTD:a_map.obj
 0001:0004a260       __MarkAllocaS              0044b260 f i LIBCMTD:a_map.obj
 0001:0004a290       __freea                    0044b290 f i LIBCMTD:a_map.obj
 0001:0004a350       __stricmp_l                0044b350 f   LIBCMTD:stricmp.obj
 0001:0004a500       ___ascii_stricmp           0044b500 f   LIBCMTD:stricmp.obj
 0001:0004a580       __stricmp                  0044b580 f   LIBCMTD:stricmp.obj
 0001:0004a690       ___updatetmbcinfo          0044b690 f   LIBCMTD:mbctype.obj
 0001:0004a7a0       __setmbcp                  0044b7a0 f   LIBCMTD:mbctype.obj
 0001:0004ab50       __setmbcp_nolock           0044bb50 f   LIBCMTD:mbctype.obj
 0001:0004b340       __getmbcp                  0044c340 f   LIBCMTD:mbctype.obj
 0001:0004b3b0       ___initmbctable            0044c3b0 f   LIBCMTD:mbctype.obj
 0001:0004b3e0       ___addlocaleref            0044c3e0 f   LIBCMTD:localref.obj
 0001:0004b500       ___removelocaleref         0044c500 f   LIBCMTD:localref.obj
 0001:0004b630       ___freetlocinfo            0044c630 f   LIBCMTD:localref.obj
 0001:0004b910       __updatetlocinfoEx_nolock  0044c910 f   LIBCMTD:localref.obj
 0001:0004b990       ___updatetlocinfo          0044c990 f   LIBCMTD:localref.obj
 0001:0004ba60       _abort                     0044ca60 f   LIBCMTD:abort.obj
 0001:0004bac0       __set_abort_behavior       0044cac0 f   LIBCMTD:abort.obj
 0001:0004baf0       __FF_MSGBANNER             0044caf0 f   LIBCMTD:crt0msg.obj
 0001:0004bb40       __GET_RTERRMSG             0044cb40 f   LIBCMTD:crt0msg.obj
 0001:0004bb90       __NMSG_WRITE               0044cb90 f   LIBCMTD:crt0msg.obj
 0001:0004bed0       ___getlocaleinfo           0044ced0 f   LIBCMTD:inithelp.obj
 0001:0004c1b0       __initp_misc_purevirt      0044d1b0 f   LIBCMTD:inithelp.obj
 0001:0004c1c0       __VEC_memcpy               0044d1c0 f   LIBCMTD:p4_memcpy.obj
 0001:0004c2d0       __CrtDefaultAllocHook      0044d2d0 f   LIBCMTD:dbghook.obj
 0001:0004c2e0       __crt_debugger_hook        0044d2e0 f   LIBCMTD:dbghook.obj
 0001:0004c300       __CrtDbgBreak              0044d300 f   LIBCMTD:dbgrptt.obj
 0001:0004c310       __CrtSetReportMode         0044d310 f   LIBCMTD:dbgrptt.obj
 0001:0004c450       __CrtSetReportFile         0044d450 f   LIBCMTD:dbgrptt.obj
 0001:0004c550       __CrtSetReportHook         0044d550 f   LIBCMTD:dbgrptt.obj
 0001:0004c570       __CrtGetReportHook         0044d570 f   LIBCMTD:dbgrptt.obj
 0001:0004c580       __VCrtDbgReportA           0044d580 f   LIBCMTD:dbgrptt.obj
 0001:0004cdb0       __VCrtDbgReportW           0044ddb0 f   LIBCMTD:dbgrptt.obj
 0001:0004d6e0       __cinit                    0044e6e0 f   LIBCMTD:crt0dat.obj
 0001:0004d780       _exit                      0044e780 f   LIBCMTD:crt0dat.obj
 0001:0004d7a0       __exit                     0044e7a0 f   LIBCMTD:crt0dat.obj
 0001:0004d7c0       __cexit                    0044e7c0 f   LIBCMTD:crt0dat.obj
 0001:0004d7e0       __c_exit                   0044e7e0 f   LIBCMTD:crt0dat.obj
 0001:0004d800       __amsg_exit                0044e800 f   LIBCMTD:crt0dat.obj
 0001:0004d830       ___freeCrtMemory           0044e830 f   LIBCMTD:crt0dat.obj
 0001:0004db70       ___crtCorExitProcess       0044eb70 f   LIBCMTD:crt0dat.obj
 0001:0004dbb0       ___crtExitProcess          0044ebb0 f   LIBCMTD:crt0dat.obj
 0001:0004dbd0       __lockexit                 0044ebd0 f   LIBCMTD:crt0dat.obj
 0001:0004dbf0       __unlockexit               0044ebf0 f   LIBCMTD:crt0dat.obj
 0001:0004dc10       __init_pointers            0044ec10 f   LIBCMTD:crt0dat.obj
 0001:0004dca0       __initterm_e               0044eca0 f   LIBCMTD:crt0dat.obj
 0001:0004dce0       __get_wpgmptr              0044ece0 f   LIBCMTD:crt0dat.obj
 0001:0004ddd0       __get_pgmptr               0044edd0 f   LIBCMTD:crt0dat.obj
 0001:0004dec0       __initp_misc_winsig        0044eec0 f   LIBCMTD:winsig.obj
 0001:0004def0       _signal                    0044eef0 f   LIBCMTD:winsig.obj
 0001:0004e390       _raise                     0044f390 f   LIBCMTD:winsig.obj
 0001:0004e700       ___get_sigabrt             0044f700 f   LIBCMTD:winsig.obj
 0001:0004e720       ___fpecode                 0044f720 f   LIBCMTD:winsig.obj
 0001:0004e730       ___pxcptinfoptrs           0044f730 f   LIBCMTD:winsig.obj
 0001:0004e740       ___crtMessageBoxW          0044f740 f   LIBCMTD:crtmboxw.obj
 0001:0004e960       __swprintf                 0044f960 f   LIBCMTD:swprintf.obj
 0001:0004eb60       ___swprintf_l              0044fb60 f   LIBCMTD:swprintf.obj
 0001:0004eb90       _swprintf_s                0044fb90 f   LIBCMTD:swprintf.obj
 0001:0004ebc0       __snwprintf_s              0044fbc0 f   LIBCMTD:swprintf.obj
 0001:0004ebf0       __swprintf_p               0044fbf0 f   LIBCMTD:swprintf.obj
 0001:0004ec20       __swprintf_s_l             0044fc20 f   LIBCMTD:swprintf.obj
 0001:0004ec50       __snwprintf_s_l            0044fc50 f   LIBCMTD:swprintf.obj
 0001:0004ec80       __swprintf_p_l             0044fc80 f   LIBCMTD:swprintf.obj
 0001:0004ecb0       __scwprintf                0044fcb0 f   LIBCMTD:swprintf.obj
 0001:0004ecd0       __scwprintf_p              0044fcd0 f   LIBCMTD:swprintf.obj
 0001:0004ecf0       __scwprintf_l              0044fcf0 f   LIBCMTD:swprintf.obj
 0001:0004ed20       __scwprintf_p_l            0044fd20 f   LIBCMTD:swprintf.obj
 0001:0004ed50       _wcslen                    0044fd50 f   LIBCMTD:wcslen.obj
 0001:0004ed80       _wcscpy_s                  0044fd80 f   LIBCMTD:wcscpy_s.obj
 0001:0004f060       _strcpy_s                  00450060 f   LIBCMTD:strcpy_s.obj
 0001:0004f340       __output_s_l               00450340 f   LIBCMTD:outputs.obj
 0001:00050900       __validate_param_reuseA    00451900 f   LIBCMTD:outputp.obj
 0001:00050b70       __output_p_l               00451b70 f   LIBCMTD:outputp.obj
 0001:00054770       _get_crtdouble_arg         00455770 f i LIBCMTD:outputp.obj
 0001:00054790       ___iob_func                00455790 f   LIBCMTD:_file.obj
 0001:000547a0       ___initstdio               004557a0 f   LIBCMTD:_file.obj
 0001:000548f0       ___endstdio                004558f0 f   LIBCMTD:_file.obj
 0001:00054920       __lock_file                00455920 f   LIBCMTD:_file.obj
 0001:00054980       __lock_file2               00455980 f   LIBCMTD:_file.obj
 0001:000549c0       __unlock_file              004559c0 f   LIBCMTD:_file.obj
 0001:00054a20       __unlock_file2             00455a20 f   LIBCMTD:_file.obj
 0001:00054a60       __commit                   00455a60 f   LIBCMTD:commit.obj
 0001:00054c80       __fileno                   00455c80 f   LIBCMTD:fileno.obj
 0001:00054d00       __write                    00455d00 f   LIBCMTD:write.obj
 0001:00054f30       __write_nolock             00455f30 f   LIBCMTD:write.obj
 0001:00055a70       __stbuf                    00456a70 f   LIBCMTD:_sftbuf.obj
 0001:00055bd0       __ftbuf                    00456bd0 f   LIBCMTD:_sftbuf.obj
 0001:00055c60       __ioinit                   00456c60 f   LIBCMTD:ioinit.obj
 0001:00056070       __ioterm                   00457070 f   LIBCMTD:ioinit.obj
 0001:00056110       __close                    00457110 f   LIBCMTD:close.obj
 0001:00056320       __close_nolock             00457320 f   LIBCMTD:close.obj
 0001:000563f0       __freebuf                  004573f0 f   LIBCMTD:_freebuf.obj
 0001:00056480       __lseek                    00457480 f   LIBCMTD:lseek.obj
 0001:000566b0       __lseek_nolock             004576b0 f   LIBCMTD:lseek.obj
 0001:00056790       __openfile                 00457790 f   LIBCMTD:_open.obj
 0001:00056f50       __getstream                00457f50 f   LIBCMTD:stream.obj
 0001:000571b0       __local_unwind4            004581b0 f   LIBCMTD:exsup4.obj
 0001:00057286       __seh_longjmp_unwind4@4    00458286 f   LIBCMTD:exsup4.obj
 0001:000572a2       @_EH4_CallFilterFunc@8     004582a2 f   LIBCMTD:exsup4.obj
 0001:000572b9       @_EH4_TransferToHandler@8  004582b9 f   LIBCMTD:exsup4.obj
 0001:000572d2       @_EH4_GlobalUnwind2@8      004582d2 f   LIBCMTD:exsup4.obj
 0001:000572eb       @_EH4_LocalUnwind@16       004582eb f   LIBCMTD:exsup4.obj
 0001:00057310       __ValidateImageBase        00458310 f   LIBCMTD:pesect.obj
 0001:00057370       __FindPESection            00458370 f   LIBCMTD:pesect.obj
 0001:000573f0       __IsNonwritableInCurrentImage 004583f0 f   LIBCMTD:pesect.obj
 0001:00057510       _strstr                    00458510 f   LIBCMTD:strstr.obj
 0001:000575a0       __mbsnbcpy_s_l             004585a0 f   LIBCMTD:mbsnbcpy_s_l.obj
 0001:00057c20       __malloc_base              00458c20 f   LIBCMTD:malloc.obj
 0001:00057cb0       __heap_alloc_base          00458cb0 f i LIBCMTD:malloc.obj
 0001:00057d10       __CrtSetReportHook2        00458d10 f   LIBCMTD:dbgrpt.obj
 0001:00058040       __CrtDbgReport             00459040 f   LIBCMTD:dbgrpt.obj
 0001:00058080       __CrtDbgReportV            00459080 f i LIBCMTD:dbgrpt.obj
 0001:000580b0       ___crtMessageWindowA       004590b0 f   LIBCMTD:dbgrpt.obj
 0001:000584b0       __expand_base              004594b0 f   LIBCMTD:expand.obj
 0001:00058610       __realloc_base             00459610 f   LIBCMTD:realloc.obj
 0001:00058710       __free_base                00459710 f   LIBCMTD:free.obj
 0001:00058760       __heapchk                  00459760 f   LIBCMTD:heapchk.obj
 0001:00058790       __heapset                  00459790 f   LIBCMTD:heapchk.obj
 0001:000587a0       __heap_init                004597a0 f   LIBCMTD:heapinit.obj
 0001:000587e0       __heap_term                004597e0 f   LIBCMTD:heapinit.obj
 0001:00058800       __get_heap_handle          00459800 f   LIBCMTD:heapinit.obj
 0001:00058840       __chvalidator              00459840 f   LIBCMTD:isctype.obj
 0001:00058890       __chvalidator_l            00459890 f   LIBCMTD:isctype.obj
 0001:00058940       __isctype_l                00459940 f   LIBCMTD:isctype.obj
 0001:00058a60       __isctype                  00459a60 f   LIBCMTD:isctype.obj
 0001:00058aa0       __trandisp1                00459aa0 f   LIBCMTD:_87disp_.obj
 0001:00058b07       __trandisp2                00459b07 f   LIBCMTD:_87disp_.obj
 0001:00058b93       __rttospopde               00459b93     LIBCMTD:_87disp_.obj
 0001:00058b98       __rttospop                 00459b98     LIBCMTD:_87disp_.obj
 0001:00058b9a       __rtnospop                 00459b9a     LIBCMTD:_87disp_.obj
 0001:00058b9c       __rttosnpop                00459b9c     LIBCMTD:_87disp_.obj
 0001:00058b9d       __rtnospopde               00459b9d     LIBCMTD:_87disp_.obj
 0001:00058ba4       __rtzeropop                00459ba4     LIBCMTD:_87disp_.obj
 0001:00058ba6       __rtzeronpop               00459ba6     LIBCMTD:_87disp_.obj
 0001:00058bab       __rtonepop                 00459bab     LIBCMTD:_87disp_.obj
 0001:00058bad       __rtonenpop                00459bad     LIBCMTD:_87disp_.obj
 0001:00058bb2       __tosnan1                  00459bb2     LIBCMTD:_87disp_.obj
 0001:00058bdd       __nosnan2                  00459bdd     LIBCMTD:_87disp_.obj
 0001:00058bdf       __tosnan2                  00459bdf     LIBCMTD:_87disp_.obj
 0001:00058c07       __nan2                     00459c07     LIBCMTD:_87disp_.obj
 0001:00058c46       __rtindfpop                00459c46     LIBCMTD:_87disp_.obj
 0001:00058c48       __rtindfnpop               00459c48     LIBCMTD:_87disp_.obj
 0001:00058c59       __rttosnpopde              00459c59     LIBCMTD:_87disp_.obj
 0001:00058c63       __rtchsifneg               00459c63     LIBCMTD:_87disp_.obj
 0001:00058c70       __startTwoArgErrorHandling 00459c70 f   LIBCMTD:_genexcep_.obj
 0001:00058c87       __startOneArgErrorHandling 00459c87 f   LIBCMTD:_genexcep_.obj
 0001:00058cd0       __twoToTOS                 00459cd0 f   LIBCMTD:_common_.obj
 0001:00058ce5       __load_CW                  00459ce5 f   LIBCMTD:_common_.obj
 0001:00058cfc       __convertTOStoQNaN         00459cfc f   LIBCMTD:_common_.obj
 0001:00058d15       __fload_withFB             00459d15 f   LIBCMTD:_common_.obj
 0001:00058d58       __checkTOS_withFB          00459d58 f   LIBCMTD:_common_.obj
 0001:00058d6e       __fast_exit                00459d6e f   LIBCMTD:_common_.obj
 0001:00058d7b       __math_exit                00459d7b f   LIBCMTD:_common_.obj
 0001:00058da5       __check_overflow_exit      00459da5 f   LIBCMTD:_common_.obj
 0001:00058db9       __check_range_exit         00459db9 f   LIBCMTD:_common_.obj
 0001:00058e60       __setdefaultprecision      00459e60 f   LIBCMTD:fp8.obj
 0001:00058ea0       __forcdecpt                00459ea0 f   LIBCMTD:cvt.obj
 0001:00058ec0       __forcdecpt_l              00459ec0 f   LIBCMTD:cvt.obj
 0001:00058f80       __cropzeros                00459f80 f   LIBCMTD:cvt.obj
 0001:00058fa0       __cropzeros_l              00459fa0 f   LIBCMTD:cvt.obj
 0001:000590b0       __positive                 0045a0b0 f   LIBCMTD:cvt.obj
 0001:000590e0       __fassign_l                0045a0e0 f   LIBCMTD:cvt.obj
 0001:00059140       __fassign                  0045a140 f   LIBCMTD:cvt.obj
 0001:00059160       __cftoe_l                  0045a160 f   LIBCMTD:cvt.obj
 0001:000596b0       __cftoe                    0045a6b0 f   LIBCMTD:cvt.obj
 0001:000596e0       __cftoa_l                  0045a6e0 f   LIBCMTD:cvt.obj
 0001:00059ec0       ?strrchr@@YAPADPADH@Z      0045aec0 f i LIBCMTD:cvt.obj
 0001:00059ee0       __cftoa                    0045aee0 f   LIBCMTD:cvt.obj
 0001:00059f10       __cftof_l                  0045af10 f   LIBCMTD:cvt.obj
 0001:0005a320       __cftof                    0045b320 f   LIBCMTD:cvt.obj
 0001:0005a350       __cftog_l                  0045b350 f   LIBCMTD:cvt.obj
 0001:0005a580       __cftog                    0045b580 f   LIBCMTD:cvt.obj
 0001:0005a5b0       __cfltcvt_l                0045b5b0 f   LIBCMTD:cvt.obj
 0001:0005a670       __cfltcvt                  0045b670 f   LIBCMTD:cvt.obj
 0001:0005a6d0       __initp_misc_cfltcvt_tab   0045b6d0 f   LIBCMTD:cmiscdat.obj
 0001:0005a710       __alldiv                   0045b710 f   LIBCMTD:lldiv.obj
 0001:0005a7c0       __gmtime32_s               0045b7c0 f   LIBCMTD:gmtime.obj
 0001:0005aa80       ___getgmtimebuf            0045ba80 f   LIBCMTD:gmtime.obj
 0001:0005ab00       __gmtime32                 0045bb00 f   LIBCMTD:gmtime.obj
 0001:0005ab40       ____setlc_active_func      0045bb40 f   LIBCMTD:setlocal.obj
 0001:0005ab50       ____unguarded_readlc_active_add_func 0045bb50 f   LIBCMTD:setlocal.obj
 0001:0005ab60       __configthreadlocale       0045bb60 f   LIBCMTD:setlocal.obj
 0001:0005ac70       __locterm                  0045bc70 f   LIBCMTD:setlocal.obj
 0001:0005ad10       __free_locale              0045bd10 f   LIBCMTD:setlocal.obj
 0001:0005ae50       ___free_locale             0045be50 f   LIBCMTD:setlocal.obj
 0001:0005ae70       __create_locale            0045be70 f   LIBCMTD:setlocal.obj
 0001:0005b0a0       ___create_locale           0045c0a0 f   LIBCMTD:setlocal.obj
 0001:0005b0c0       __get_current_locale       0045c0c0 f   LIBCMTD:setlocal.obj
 0001:0005b1e0       ___get_current_locale      0045c1e0 f   LIBCMTD:setlocal.obj
 0001:0005b1f0       _setlocale                 0045c1f0 f   LIBCMTD:setlocal.obj
 0001:0005c0a0       __expandlocale             0045d0a0 f   LIBCMTD:setlocal.obj
 0001:0005c350       ___init_dummy              0045d350 f   LIBCMTD:setlocal.obj
 0001:0005c360       __strcats                  0045d360 f   LIBCMTD:setlocal.obj
 0001:0005c3e0       ___lc_strtolc              0045d3e0 f   LIBCMTD:setlocal.obj
 0001:0005c5e0       ___lc_lctostr              0045d5e0 f   LIBCMTD:setlocal.obj
 0001:0005c680       ?__CxxUnhandledExceptionFilter@@YGJPAU_EXCEPTION_POINTERS@@@Z 0045d680 f   LIBCMTD:unhandld.obj
 0001:0005c6f0       ___CxxSetUnhandledExceptionFilter 0045d6f0 f   LIBCMTD:unhandld.obj
 0001:0005c710       ___security_init_cookie    0045d710 f   LIBCMTD:gs_support.obj
 0001:0005c7f0       ___CppXcptFilter           0045d7f0 f   LIBCMTD:winxfltr.obj
 0001:0005c820       __XcptFilter               0045d820 f   LIBCMTD:winxfltr.obj
 0001:0005ca80       __wincmdln                 0045da80 f   LIBCMTD:wincmdln.obj
 0001:0005cb50       __setenvp                  0045db50 f   LIBCMTD:stdenvp.obj
 0001:0005ccf0       __setargv                  0045dcf0 f   LIBCMTD:stdargv.obj
 0001:0005ce10       __set_pgmptr               0045de10 f i LIBCMTD:stdargv.obj
 0001:0005d180       ___crtGetEnvironmentStringsA 0045e180 f   LIBCMTD:a_env.obj
 0001:0005d280       __RTC_Initialize           0045e280 f   LIBCMTD:_initsect_.obj
 0001:0005d2b0       __RTC_Terminate            0045e2b0 f   LIBCMTD:_initsect_.obj
 0001:0005d2e0       ?_ValidateRead@@YAHPBXI@Z  0045e2e0 f   LIBCMTD:validate.obj
 0001:0005d310       ?_ValidateWrite@@YAHPAXI@Z 0045e310 f   LIBCMTD:validate.obj
 0001:0005d340       ?_ValidateExecute@@YAHP6GHXZ@Z 0045e340 f   LIBCMTD:validate.obj
 0001:0005d370       __global_unwind2           0045e370 f   LIBCMTD:exsup.obj
 0001:0005d3d5       __local_unwind2            0045e3d5 f   LIBCMTD:exsup.obj
 0001:0005d459       __abnormal_termination     0045e459 f   LIBCMTD:exsup.obj
 0001:0005d47c       __NLG_Notify1              0045e47c f   LIBCMTD:exsup.obj
 0001:0005d485       __NLG_Notify               0045e485 f   LIBCMTD:exsup.obj
 0001:0005d49c       __NLG_Dispatch             0045e49c     LIBCMTD:exsup.obj
 0001:0005d49c       __NLG_Dispatch2            0045e49c     LIBCMTD:exsup.obj
 0001:0005d4a4       __NLG_Call                 0045e4a4 f   LIBCMTD:exsup.obj
 0001:0005d4a6       __NLG_Return2              0045e4a6     LIBCMTD:exsup.obj
 0001:0005d4b0       ?_RTC_GetSrcLine@@YAHPAEPA_WKPAH1K@Z 0045e4b0 f   LIBCMTD:_pdblkup_.obj
 0001:0005d960       ___unDName                 0045e960 f   LIBCMTD:undname.obj
 0001:0005da40       ?Constructor@_HeapManager@@QAEXP6APAXI@ZP6AXPAX@Z@Z 0045ea40 f i LIBCMTD:undname.obj
 0001:0005da80       ?Destructor@_HeapManager@@QAEXXZ 0045ea80 f i LIBCMTD:undname.obj
 0001:0005dad0       ___unDNameEx               0045ead0 f   LIBCMTD:undname.obj
 0001:0005dbb0       ??0UnDecorator@@QAE@PADPBDHP6APADJ@ZK@Z 0045ebb0 f i LIBCMTD:undname.obj
 0001:0005dc50       ??BUnDecorator@@QAEPADXZ   0045ec50 f i LIBCMTD:undname.obj
 0001:0005de80       ?dbGetString@DName@@QBEPADXZ 0045ee80 f   LIBCMTD:undname.obj
 0001:0005deb0       ?getDecoratedName@UnDecorator@@CA?AVDName@@XZ 0045eeb0 f   LIBCMTD:undname.obj
 0001:0005e1c0       ?getSymbolName@UnDecorator@@CA?AVDName@@XZ 0045f1c0 f i LIBCMTD:undname.obj
 0001:0005e240       ?getZName@UnDecorator@@CA?AVDName@@_N0@Z 0045f240 f   LIBCMTD:undname.obj
 0001:0005e4e0       ?getOperatorName@UnDecorator@@CA?AVDName@@_NPA_N@Z 0045f4e0 f i LIBCMTD:undname.obj
 0001:0005ee50       ?getStringEncoding@UnDecorator@@CA?AVDName@@PADH@Z 0045fe50 f   LIBCMTD:undname.obj
 0001:0005ef50       ?getScope@UnDecorator@@CA?AVDName@@XZ 0045ff50 f   LIBCMTD:undname.obj
 0001:0005f330       ?getSignedDimension@UnDecorator@@CA?AVDName@@XZ 00460330 f   LIBCMTD:undname.obj
 0001:0005f3b0       ?getDimension@UnDecorator@@CA?AVDName@@_N@Z 004603b0 f   LIBCMTD:undname.obj
 0001:0005f660       ?getNumberOfDimensions@UnDecorator@@CAHXZ 00460660 f   LIBCMTD:undname.obj
 0001:0005f760       ?getTemplateName@UnDecorator@@CA?AVDName@@_N@Z 00460760 f   LIBCMTD:undname.obj
 0001:0005f920       ?getTemplateArgumentList@UnDecorator@@CA?AVDName@@XZ 00460920 f   LIBCMTD:undname.obj
 0001:0005fba0       ?getTemplateConstant@UnDecorator@@CA?AVDName@@XZ 00460ba0 f   LIBCMTD:undname.obj
 0001:00060030       ?composeDeclaration@UnDecorator@@CA?AVDName@@ABV2@@Z 00461030 f i LIBCMTD:undname.obj
 0001:00061630       ?getTypeEncoding@UnDecorator@@CAHXZ 00462630 f i LIBCMTD:undname.obj
 0001:00062070       ?getBasedType@UnDecorator@@CA?AVDName@@XZ 00463070 f   LIBCMTD:undname.obj
 0001:00062130       ?getScopedName@UnDecorator@@CA?AVDName@@XZ 00463130 f   LIBCMTD:undname.obj
 0001:00062250       ?getCallingConvention@UnDecorator@@CA?AVDName@@XZ 00463250 f   LIBCMTD:undname.obj
 0001:000623d0       ?getReturnType@UnDecorator@@CA?AVDName@@PAV2@@Z 004633d0 f   LIBCMTD:undname.obj
 0001:00062420       ?getDataType@UnDecorator@@CA?AVDName@@PAV2@@Z 00463420 f   LIBCMTD:undname.obj
 0001:00062540       ?getPrimaryDataType@UnDecorator@@CA?AVDName@@ABV2@@Z 00463540 f   LIBCMTD:undname.obj
 0001:000628e0       ?getArgumentTypes@UnDecorator@@CA?AVDName@@XZ 004638e0 f   LIBCMTD:undname.obj
 0001:00062a40       ?getArgumentList@UnDecorator@@CA?AVDName@@XZ 00463a40 f   LIBCMTD:undname.obj
 0001:00062b90       ?getThrowTypes@UnDecorator@@CA?AVDName@@XZ 00463b90 f   LIBCMTD:undname.obj
 0001:00062c40       ?getBasicDataType@UnDecorator@@CA?AVDName@@ABV2@@Z 00463c40 f   LIBCMTD:undname.obj
 0001:00063200       ?getECSUDataType@UnDecorator@@CA?AVDName@@XZ 00464200 f   LIBCMTD:undname.obj
 0001:000633d0       ?getECSUName@UnDecorator@@CA?AVDName@@XZ 004643d0 f i LIBCMTD:undname.obj
 0001:000633f0       ?getEnumType@UnDecorator@@CA?AVDName@@XZ 004643f0 f i LIBCMTD:undname.obj
 0001:00063540       ?getFunctionIndirectType@UnDecorator@@CA?AVDName@@ABV2@@Z 00464540 f   LIBCMTD:undname.obj
 0001:00063980       ?getPtrRefType@UnDecorator@@CA?AVDName@@ABV2@0PBD@Z 00464980 f   LIBCMTD:undname.obj
 0001:00063ae0       ?getExtendedDataIndirectType@UnDecorator@@CA?AVDName@@AAPBDAA_NH@Z 00464ae0 f   LIBCMTD:undname.obj
 0001:00063d00       ?getDataIndirectType@UnDecorator@@CA?AVDName@@ABV2@PBD0H@Z 00464d00 f   LIBCMTD:undname.obj
 0001:00064400       ?getPtrRefDataType@UnDecorator@@CA?AVDName@@ABV2@H@Z 00465400 f i LIBCMTD:undname.obj
 0001:00064540       ?getArrayType@UnDecorator@@CA?AVDName@@ABV2@@Z 00465540 f i LIBCMTD:undname.obj
 0001:00064770       ?getLexicalFrame@UnDecorator@@CA?AVDName@@XZ 00465770 f i LIBCMTD:undname.obj
 0001:000647b0       ?getThisType@UnDecorator@@CA?AVDName@@XZ 004657b0 f i LIBCMTD:undname.obj
 0001:000647f0       ?getPointerType@UnDecorator@@CA?AVDName@@ABV2@0@Z 004657f0 f i LIBCMTD:undname.obj
 0001:00064820       ?getPointerTypeArray@UnDecorator@@CA?AVDName@@ABV2@0@Z 00465820 f i LIBCMTD:undname.obj
 0001:00064850       ?getReferenceType@UnDecorator@@CA?AVDName@@ABV2@0PBD@Z 00465850 f i LIBCMTD:undname.obj
 0001:00064880       ?getDisplacement@UnDecorator@@CA?AVDName@@XZ 00465880 f i LIBCMTD:undname.obj
 0001:000648a0       ?getCallIndex@UnDecorator@@CA?AVDName@@XZ 004658a0 f i LIBCMTD:undname.obj
 0001:000648c0       ?getGuardNumber@UnDecorator@@CA?AVDName@@XZ 004658c0 f i LIBCMTD:undname.obj
 0001:000648e0       ?getVbTableType@UnDecorator@@CA?AVDName@@ABV2@@Z 004658e0 f i LIBCMTD:undname.obj
 0001:00064900       ?getVCallThunkType@UnDecorator@@CA?AVDName@@XZ 00465900 f i LIBCMTD:undname.obj
 0001:00064960       ?getVfTableType@UnDecorator@@CA?AVDName@@ABV2@@Z 00465960 f i LIBCMTD:undname.obj
 0001:00064b20       ?getStorageConvention@UnDecorator@@CA?AVDName@@XZ 00465b20 f i LIBCMTD:undname.obj
 0001:00064b40       ?getDataIndirectType@UnDecorator@@CA?AVDName@@XZ 00465b40 f i LIBCMTD:undname.obj
 0001:00064b80       ?getVdispMapType@UnDecorator@@CA?AVDName@@ABV2@@Z 00465b80 f i LIBCMTD:undname.obj
 0001:00064bf0       ?getExternalDataType@UnDecorator@@CA?AVDName@@ABV2@@Z 00465bf0 f i LIBCMTD:undname.obj
 0001:00064c80       ?doMSKeywords@UnDecorator@@SAHXZ 00465c80 f i LIBCMTD:undname.obj
 0001:00064ca0       ?doPtr64@UnDecorator@@SAHXZ 00465ca0 f i LIBCMTD:undname.obj
 0001:00064cc0       ?doFunctionReturns@UnDecorator@@SAHXZ 00465cc0 f i LIBCMTD:undname.obj
 0001:00064ce0       ?doAllocationModel@UnDecorator@@SAHXZ 00465ce0 f i LIBCMTD:undname.obj
 0001:00064d00       ?doAllocationLanguage@UnDecorator@@SAHXZ 00465d00 f i LIBCMTD:undname.obj
 0001:00064d20       ?doThisTypes@UnDecorator@@SAHXZ 00465d20 f i LIBCMTD:undname.obj
 0001:00064d40       ?doAccessSpecifiers@UnDecorator@@SAHXZ 00465d40 f i LIBCMTD:undname.obj
 0001:00064d60       ?doThrowTypes@UnDecorator@@SAHXZ 00465d60 f i LIBCMTD:undname.obj
 0001:00064d80       ?doMemberTypes@UnDecorator@@SAHXZ 00465d80 f i LIBCMTD:undname.obj
 0001:00064da0       ?doNameOnly@UnDecorator@@SAHXZ 00465da0 f i LIBCMTD:undname.obj
 0001:00064dc0       ?doTypeOnly@UnDecorator@@SAHXZ 00465dc0 f i LIBCMTD:undname.obj
 0001:00064de0       ?haveTemplateParameters@UnDecorator@@SAHXZ 00465de0 f i LIBCMTD:undname.obj
 0001:00064e00       ?doEcsu@UnDecorator@@SAHXZ 00465e00 f i LIBCMTD:undname.obj
 0001:00064e20       ?doEllipsis@UnDecorator@@SAHXZ 00465e20 f i LIBCMTD:undname.obj
 0001:00064e40       ?UScore@UnDecorator@@SAPBDW4Tokens@@@Z 00465e40 f   LIBCMTD:undname.obj
 0001:00064e70       ?doUnderScore@UnDecorator@@SAHXZ 00465e70 f i LIBCMTD:undname.obj
 0001:00064e90       ??2@YAPAXIAAV_HeapManager@@H@Z 00465e90 f i LIBCMTD:undname.obj
 0001:00064eb0       ?getMemory@_HeapManager@@QAEPAXIH@Z 00465eb0 f   LIBCMTD:undname.obj
 0001:00064fc0       ??0Block@_HeapManager@@QAE@XZ 00465fc0 f i LIBCMTD:undname.obj
 0001:00064fe0       ??H@YA?AVDName@@DABV0@@Z   00465fe0 f i LIBCMTD:undname.obj
 0001:00065010       ??H@YA?AVDName@@W4DNameStatus@@ABV0@@Z 00466010 f i LIBCMTD:undname.obj
 0001:00065040       ??H@YA?AVDName@@PBDABV0@@Z 00466040 f i LIBCMTD:undname.obj
 0001:00065070       ??0DName@@QAE@XZ           00466070 f i LIBCMTD:undname.obj
 0001:00065130       ??0DName@@QAE@D@Z          00466130 f   LIBCMTD:undname.obj
 0001:00065210       ??0DName@@QAE@ABV0@@Z      00466210 f i LIBCMTD:undname.obj
 0001:00065240       ??0DName@@QAE@PAV0@@Z      00466240 f   LIBCMTD:undname.obj
 0001:00065370       ??0DName@@QAE@PBD@Z        00466370 f   LIBCMTD:undname.obj
 0001:00065460       ??0DName@@QAE@AAPBDD@Z     00466460 f   LIBCMTD:undname.obj
 0001:00065720       ?doNoIdentCharCheck@UnDecorator@@SAHXZ 00466720 f i LIBCMTD:undname.obj
 0001:00065740       ??0DName@@QAE@_K@Z         00466740 f   LIBCMTD:undname.obj
 0001:00065880       ??0DName@@QAE@_J@Z         00466880 f   LIBCMTD:undname.obj
 0001:00065a00       ??0DName@@QAE@W4DNameStatus@@@Z 00466a00 f   LIBCMTD:undname.obj
 0001:00065b20       ?isValid@DName@@QBEHXZ     00466b20 f i LIBCMTD:undname.obj
 0001:00065b50       ?isEmpty@DName@@QBEHXZ     00466b50 f i LIBCMTD:undname.obj
 0001:00065b70       ?status@DName@@QBE?AW4DNameStatus@@XZ 00466b70 f i LIBCMTD:undname.obj
 0001:00065b90       ?setPtrRef@DName@@QAEAAV1@XZ 00466b90 f i LIBCMTD:undname.obj
 0001:00065bc0       ?isPtrRef@DName@@QBEHXZ    00466bc0 f i LIBCMTD:undname.obj
 0001:00065be0       ?isUDC@DName@@QBEHXZ       00466be0 f i LIBCMTD:undname.obj
 0001:00065c20       ?setIsUDC@DName@@QAEXXZ    00466c20 f i LIBCMTD:undname.obj
 0001:00065c50       ?isUDTThunk@DName@@QBEHXZ  00466c50 f i LIBCMTD:undname.obj
 0001:00065c90       ?setIsArray@DName@@QAEXXZ  00466c90 f i LIBCMTD:undname.obj
 0001:00065cb0       ?isArray@DName@@QBEHXZ     00466cb0 f i LIBCMTD:undname.obj
 0001:00065cd0       ?isNoTE@DName@@QBEHXZ      00466cd0 f i LIBCMTD:undname.obj
 0001:00065cf0       ?setIsNoTE@DName@@QAEXXZ   00466cf0 f i LIBCMTD:undname.obj
 0001:00065d10       ?isPinPtr@DName@@QBEHXZ    00466d10 f i LIBCMTD:undname.obj
 0001:00065d30       ?setIsPinPtr@DName@@QAEXXZ 00466d30 f i LIBCMTD:undname.obj
 0001:00065d50       ?isComArray@DName@@QBEHXZ  00466d50 f i LIBCMTD:undname.obj
 0001:00065d70       ?setIsComArray@DName@@QAEXXZ 00466d70 f i LIBCMTD:undname.obj
 0001:00065d90       ?isVCallThunk@DName@@QBEHXZ 00466d90 f i LIBCMTD:undname.obj
 0001:00065db0       ?setIsVCallThunk@DName@@QAEXXZ 00466db0 f i LIBCMTD:undname.obj
 0001:00065dd0       ?length@DName@@QBEHXZ      00466dd0 f i LIBCMTD:undname.obj
 0001:00065e00       ?getLastChar@DName@@QBEDXZ 00466e00 f i LIBCMTD:undname.obj
 0001:00065e30       ?getString@DName@@QBEPADPADH@Z 00466e30 f i LIBCMTD:undname.obj
 0001:00065ec0       ?getString@DName@@QBEPADPAD0@Z 00466ec0 f i LIBCMTD:undname.obj
 0001:00065f00       ??HDName@@QBE?AV0@D@Z      00466f00 f   LIBCMTD:undname.obj
 0001:00065f40       ??HDName@@QBE?AV0@PBD@Z    00466f40 f   LIBCMTD:undname.obj
 0001:00065f80       ??HDName@@QBE?AV0@ABV0@@Z  00466f80 f   LIBCMTD:undname.obj
 0001:00065fc0       ??HDName@@QBE?AV0@PAV0@@Z  00466fc0 f   LIBCMTD:undname.obj
 0001:00066000       ??HDName@@QBE?AV0@W4DNameStatus@@@Z 00467000 f   LIBCMTD:undname.obj
 0001:00066040       ?append@DName@@AAEXPAVDNameNode@@@Z 00467040 f   LIBCMTD:undname.obj
 0001:000660d0       ??YDName@@QAEAAV0@D@Z      004670d0 f   LIBCMTD:undname.obj
 0001:00066160       ??YDName@@QAEAAV0@PBD@Z    00467160 f   LIBCMTD:undname.obj
 0001:00066200       ??YDName@@QAEAAV0@ABV0@@Z  00467200 f   LIBCMTD:undname.obj
 0001:00066270       ??YDName@@QAEAAV0@PAV0@@Z  00467270 f   LIBCMTD:undname.obj
 0001:00066330       ??YDName@@QAEAAV0@W4DNameStatus@@@Z 00467330 f   LIBCMTD:undname.obj
 0001:000663a0       ??_5DName@@QAEAAV0@ABV0@@Z 004673a0 f   LIBCMTD:undname.obj
 0001:00066400       ??4DName@@QAEAAV0@D@Z      00467400 f i LIBCMTD:undname.obj
 0001:000664e0       ??4DName@@QAEAAV0@PBD@Z    004674e0 f   LIBCMTD:undname.obj
 0001:000665c0       ??4DName@@QAEAAV0@ABV0@@Z  004675c0 f   LIBCMTD:undname.obj
 0001:000665f0       ??4DName@@QAEAAV0@PAV0@@Z  004675f0 f   LIBCMTD:undname.obj
 0001:00066730       ??4DName@@QAEAAV0@W4DNameStatus@@@Z 00467730 f   LIBCMTD:undname.obj
 0001:00066830       ?doPchar@DName@@AAEXPBDH@Z 00467830 f   LIBCMTD:undname.obj
 0001:00066970       ?isFull@Replicator@@QBEHXZ 00467970 f i LIBCMTD:undname.obj
 0001:00066990       ??0Replicator@@QAE@XZ      00467990 f i LIBCMTD:undname.obj
 0001:000669b0       ??YReplicator@@QAEAAV0@ABVDName@@@Z 004679b0 f   LIBCMTD:undname.obj
 0001:00066a40       ??AReplicator@@QBE?AVDName@@H@Z 00467a40 f   LIBCMTD:undname.obj
 0001:00066ab0       ??0DNameNode@@IAE@XZ       00467ab0 f   LIBCMTD:undname.obj
 0001:00066ad0       ??0charNode@@QAE@D@Z       00467ad0 f   LIBCMTD:undname.obj
 0001:00066b00       ?length@charNode@@UBEHXZ   00467b00 f i LIBCMTD:undname.obj
 0001:00066b20       ?getLastChar@charNode@@UBEDXZ 00467b20 f i LIBCMTD:undname.obj
 0001:00066b40       ?getString@charNode@@UBEPADPAD0@Z 00467b40 f i LIBCMTD:undname.obj
 0001:00066b70       ??0pcharNode@@QAE@PBDH@Z   00467b70 f   LIBCMTD:undname.obj
 0001:00066c00       ?length@pcharNode@@UBEHXZ  00467c00 f i LIBCMTD:undname.obj
 0001:00066c20       ?getLastChar@pcharNode@@UBEDXZ 00467c20 f i LIBCMTD:undname.obj
 0001:00066c60       ?getString@pcharNode@@UBEPADPAD0@Z 00467c60 f i LIBCMTD:undname.obj
 0001:00066c90       ?getStringHelper@@YAPADPAD00H@Z 00467c90 f i LIBCMTD:undname.obj
 0001:00066cd0       ??0pDNameNode@@QAE@PAVDName@@@Z 00467cd0 f   LIBCMTD:undname.obj
 0001:00066d30       ?length@pDNameNode@@UBEHXZ 00467d30 f i LIBCMTD:undname.obj
 0001:00066d70       ?getLastChar@pDNameNode@@UBEDXZ 00467d70 f i LIBCMTD:undname.obj
 0001:00066da0       ?getString@pDNameNode@@UBEPADPAD0@Z 00467da0 f i LIBCMTD:undname.obj
 0001:00066de0       ??0DNameStatusNode@@AAE@W4DNameStatus@@@Z 00467de0 f   LIBCMTD:undname.obj
 0001:00066e30       ?length@DNameStatusNode@@UBEHXZ 00467e30 f i LIBCMTD:undname.obj
 0001:00066e50       ?getLastChar@DNameStatusNode@@UBEDXZ 00467e50 f i LIBCMTD:undname.obj
 0001:00066e70       ?getString@DNameStatusNode@@UBEPADPAD0@Z 00467e70 f i LIBCMTD:undname.obj
 0001:00066eb0       ?make@DNameStatusNode@@SAPAV1@W4DNameStatus@@@Z 00467eb0 f i LIBCMTD:undname.obj
 0001:00066f60       ??0pairNode@@QAE@PAVDNameNode@@0@Z 00467f60 f   LIBCMTD:undname.obj
 0001:00066fa0       ?length@pairNode@@UBEHXZ   00467fa0 f i LIBCMTD:undname.obj
 0001:00066ff0       ?getLastChar@pairNode@@UBEDXZ 00467ff0 f i LIBCMTD:undname.obj
 0001:00067040       ?getString@pairNode@@UBEPADPAD0@Z 00468040 f i LIBCMTD:undname.obj
 0001:00067180       __lseeki64                 00468180 f   LIBCMTD:lseeki64.obj
 0001:000673d0       __lseeki64_nolock          004683d0 f   LIBCMTD:lseeki64.obj
 0001:000674c0       __getbuf                   004684c0 f   LIBCMTD:_getbuf.obj
 0001:00067590       __isatty                   00468590 f   LIBCMTD:isatty.obj
 0001:00067650       _printf                    00468650 f   LIBCMTD:printf.obj
 0001:00067790       __printf_l                 00468790 f   LIBCMTD:printf.obj
 0001:000677c0       __printf_s_l               004687c0 f   LIBCMTD:printf.obj
 0001:000677f0       _printf_s                  004687f0 f   LIBCMTD:printf.obj
 0001:00067820       __printf_p_l               00468820 f   LIBCMTD:printf.obj
 0001:00067850       __printf_p                 00468850 f   LIBCMTD:printf.obj
 0001:00067880       __set_printf_count_output  00468880 f   LIBCMTD:printf.obj
 0001:000678d0       __get_printf_count_output  004688d0 f   LIBCMTD:printf.obj
 0001:000678f0       __wctomb_s_l               004688f0 f   LIBCMTD:wctomb.obj
 0001:00067bf0       _wctomb_s                  00468bf0 f   LIBCMTD:wctomb.obj
 0001:00067c20       __wctomb_l                 00468c20 f   LIBCMTD:wctomb.obj
 0001:00067ca0       _wctomb                    00468ca0 f   LIBCMTD:wctomb.obj
 0001:00067cf0       __isleadbyte_l             00468cf0 f i LIBCMTD:_wctype.obj
 0001:00067d40       _isleadbyte                00468d40 f i LIBCMTD:_wctype.obj
 0001:00067d60       __iswalpha_l               00468d60 f i LIBCMTD:_wctype.obj
 0001:00067d80       _iswalpha                  00468d80 f i LIBCMTD:_wctype.obj
 0001:00067da0       __iswupper_l               00468da0 f i LIBCMTD:_wctype.obj
 0001:00067dc0       _iswupper                  00468dc0 f i LIBCMTD:_wctype.obj
 0001:00067de0       __iswlower_l               00468de0 f i LIBCMTD:_wctype.obj
 0001:00067e00       _iswlower                  00468e00 f i LIBCMTD:_wctype.obj
 0001:00067e20       __iswdigit_l               00468e20 f i LIBCMTD:_wctype.obj
 0001:00067e40       _iswdigit                  00468e40 f i LIBCMTD:_wctype.obj
 0001:00067e60       __iswxdigit_l              00468e60 f i LIBCMTD:_wctype.obj
 0001:00067e80       _iswxdigit                 00468e80 f i LIBCMTD:_wctype.obj
 0001:00067ea0       __iswspace_l               00468ea0 f i LIBCMTD:_wctype.obj
 0001:00067ec0       _iswspace                  00468ec0 f i LIBCMTD:_wctype.obj
 0001:00067ee0       __iswpunct_l               00468ee0 f i LIBCMTD:_wctype.obj
 0001:00067f00       _iswpunct                  00468f00 f i LIBCMTD:_wctype.obj
 0001:00067f20       __iswalnum_l               00468f20 f i LIBCMTD:_wctype.obj
 0001:00067f40       _iswalnum                  00468f40 f i LIBCMTD:_wctype.obj
 0001:00067f60       __iswprint_l               00468f60 f i LIBCMTD:_wctype.obj
 0001:00067f80       _iswprint                  00468f80 f i LIBCMTD:_wctype.obj
 0001:00067fa0       __iswgraph_l               00468fa0 f i LIBCMTD:_wctype.obj
 0001:00067fc0       _iswgraph                  00468fc0 f i LIBCMTD:_wctype.obj
 0001:00067fe0       __iswcntrl_l               00468fe0 f i LIBCMTD:_wctype.obj
 0001:00068000       _iswcntrl                  00469000 f i LIBCMTD:_wctype.obj
 0001:00068020       _iswascii                  00469020 f i LIBCMTD:_wctype.obj
 0001:00068040       __iswcsym_l                00469040 f i LIBCMTD:_wctype.obj
 0001:00068080       ___iswcsym                 00469080 f i LIBCMTD:_wctype.obj
 0001:000680c0       __iswcsymf_l               004690c0 f i LIBCMTD:_wctype.obj
 0001:00068100       ___iswcsymf                00469100 f i LIBCMTD:_wctype.obj
 0001:00068140       __aulldiv                  00469140 f   LIBCMTD:ulldiv.obj
 0001:000681b0       __aullrem                  004691b0 f   LIBCMTD:ullrem.obj
 0001:00068230       __tolower                  00469230 f   LIBCMTD:tolower.obj
 0001:00068240       __tolower_l                00469240 f   LIBCMTD:tolower.obj
 0001:00068420       _tolower                   00469420 f   LIBCMTD:tolower.obj
 0001:00068470       ___crtGetStringTypeA       00469470 f   LIBCMTD:a_str.obj
 0001:000685e0       ___init_time               004695e0 f   LIBCMTD:inittime.obj
 0001:00069310       ___free_lc_time            0046a310 f   LIBCMTD:inittime.obj
 0001:00069980       ___init_numeric            0046a980 f   LIBCMTD:initnum.obj
 0001:00069d30       ___free_lconv_num          0046ad30 f   LIBCMTD:initnum.obj
 0001:00069de0       ___init_monetary           0046ade0 f   LIBCMTD:initmon.obj
 0001:0006a3d0       ___free_lconv_mon          0046b3d0 f   LIBCMTD:initmon.obj
 0001:0006a580       _localeconv                0046b580 f   LIBCMTD:lconv.obj
 0001:0006a5d0       ___pwctype_func            0046b5d0 f   LIBCMTD:ctype.obj
 0001:0006a5e0       ___pctype_func             0046b5e0 f   LIBCMTD:ctype.obj
 0001:0006a630       __set_error_mode           0046b630 f   LIBCMTD:errmode.obj
 0001:0006a6f0       ___set_app_type            0046b6f0 f   LIBCMTD:errmode.obj
 0001:0006a700       _wcscat_s                  0046b700 f   LIBCMTD:wcscat_s.obj
 0001:0006aaf0       _wcsncpy_s                 0046baf0 f   LIBCMTD:wcsncpy_s.obj
 0001:0006af00       _strncpy_s                 0046bf00 f   LIBCMTD:strncpy_s.obj
 0001:0006b2f0       ___crtGetLocaleInfoA       0046c2f0 f   LIBCMTD:a_loc.obj
 0001:0006b450       __mbstowcs_l_helper        0046c450 f   LIBCMTD:mbstowcs.obj
 0001:0006b7a0       __mbstowcs_l               0046c7a0 f   LIBCMTD:mbstowcs.obj
 0001:0006b7c0       _mbstowcs                  0046c7c0 f   LIBCMTD:mbstowcs.obj
 0001:0006b810       __mbstowcs_s_l             0046c810 f   LIBCMTD:mbstowcs.obj
 0001:0006bb90       _mbstowcs_s                0046cb90 f   LIBCMTD:mbstowcs.obj
 0001:0006bbc0       _strcat_s                  0046cbc0 f   LIBCMTD:strcat_s.obj
 0001:0006bfa0       __itoa_s                   0046cfa0 f   LIBCMTD:xtoas.obj
 0001:0006c370       __ltoa_s                   0046d370 f   LIBCMTD:xtoas.obj
 0001:0006c3b0       __ultoa_s                  0046d3b0 f   LIBCMTD:xtoas.obj
 0001:0006c3d0       __i64toa_s                 0046d3d0 f   LIBCMTD:xtoas.obj
 0001:0006c7d0       __ui64toa_s                0046d7d0 f   LIBCMTD:xtoas.obj
 0001:0006c7f0       __wcstombs_l_helper        0046d7f0 f   LIBCMTD:wcstombs.obj
 0001:0006cd30       __wcstombs_l               0046dd30 f   LIBCMTD:wcstombs.obj
 0001:0006cd50       _wcstombs                  0046dd50 f   LIBCMTD:wcstombs.obj
 0001:0006cd70       __wcstombs_s_l             0046dd70 f   LIBCMTD:wcstombs.obj
 0001:0006d0a0       _wcstombs_s                0046e0a0 f   LIBCMTD:wcstombs.obj
 0001:0006d0d0       __vswprintf_helper         0046e0d0 f   LIBCMTD:vswprnc.obj
 0001:0006d330       __vswprintf_c              0046e330 f   LIBCMTD:vswprnc.obj
 0001:0006d380       __vswprintf_c_l            0046e380 f   LIBCMTD:vswprnc.obj
 0001:0006d3d0       __vswprintf_s_l            0046e3d0 f   LIBCMTD:vswprnc.obj
 0001:0006d640       _vswprintf_s               0046e640 f   LIBCMTD:vswprnc.obj
 0001:0006d670       __vsnwprintf_s_l           0046e670 f   LIBCMTD:vswprnc.obj
 0001:0006da20       __vsnwprintf_s             0046ea20 f   LIBCMTD:vswprnc.obj
 0001:0006da50       __vswprintf_p              0046ea50 f   LIBCMTD:vswprnc.obj
 0001:0006daa0       __vswprintf_p_l            0046eaa0 f   LIBCMTD:vswprnc.obj
 0001:0006daf0       __itow_s                   0046eaf0 f   LIBCMTD:xtows.obj
 0001:0006ded0       __ltow_s                   0046eed0 f   LIBCMTD:xtows.obj
 0001:0006df10       __ultow_s                  0046ef10 f   LIBCMTD:xtows.obj
 0001:0006df30       __i64tow_s                 0046ef30 f   LIBCMTD:xtows.obj
 0001:0006e350       __ui64tow_s                0046f350 f   LIBCMTD:xtows.obj
 0001:0006e370       __initp_misc_rand_s        0046f370 f   LIBCMTD:rand_s.obj
 0001:0006e380       _rand_s                    0046f380 f   LIBCMTD:rand_s.obj
 0001:0006e5a0       __woutput_l                0046f5a0 f   LIBCMTD:woutput.obj
 0001:0006f7a0       __vswprintf_l              004707a0 f   LIBCMTD:vswprint.obj
 0001:0006f990       __vswprintf                00470990 f   LIBCMTD:vswprint.obj
 0001:0006f9b0       ___vswprintf_l             004709b0 f   LIBCMTD:vswprint.obj
 0001:0006f9d0       __vscwprintf_helper        004709d0 f   LIBCMTD:vswprint.obj
 0001:0006fab0       __vscwprintf               00470ab0 f   LIBCMTD:vswprint.obj
 0001:0006fad0       __vscwprintf_l             00470ad0 f   LIBCMTD:vswprint.obj
 0001:0006faf0       __vscwprintf_p             00470af0 f   LIBCMTD:vswprint.obj
 0001:0006fb10       __vscwprintf_p_l           00470b10 f   LIBCMTD:vswprint.obj
 0001:0006fb30       __fcloseall                00470b30 f   LIBCMTD:closeall.obj
 0001:0006fc60       __alloc_osfhnd             00470c60 f   LIBCMTD:osfinfo.obj
 0001:0006ff10       __set_osfhnd               00470f10 f   LIBCMTD:osfinfo.obj
 0001:0006ffe0       __free_osfhnd              00470fe0 f   LIBCMTD:osfinfo.obj
 0001:000700d0       __get_osfhandle            004710d0 f   LIBCMTD:osfinfo.obj
 0001:00070240       __open_osfhandle           00471240 f   LIBCMTD:osfinfo.obj
 0001:00070470       ___lock_fhandle            00471470 f   LIBCMTD:osfinfo.obj
 0001:00070570       __unlock_fhandle           00471570 f   LIBCMTD:osfinfo.obj
 0001:000705a0       __putwch                   004715a0 f   LIBCMTD:putwch.obj
 0001:00070630       __putwch_nolock            00471630 f   LIBCMTD:putwch.obj
 0001:00070680       __mbtowc_l                 00471680 f   LIBCMTD:mbtowc.obj
 0001:000708a0       _mbtowc                    004718a0 f   LIBCMTD:mbtowc.obj
 0001:000708c0       __open                     004718c0 f   LIBCMTD:open.obj
 0001:00070a40       __sopen_helper             00471a40 f   LIBCMTD:open.obj
 0001:00071ca0       __sopen                    00472ca0 f   LIBCMTD:open.obj
 0001:00071d20       __sopen_s                  00472d20 f   LIBCMTD:open.obj
 0001:00071d50       __mbsnbicmp_l              00472d50 f   LIBCMTD:mbsnbicm.obj
 0001:000721f0       __mbsnbicmp                004731f0 f   LIBCMTD:mbsnbicm.obj
 0001:00072210       __mbsnbcmp_l               00473210 f   LIBCMTD:mbsnbcmp.obj
 0001:000724f0       __mbsnbcmp                 004734f0 f   LIBCMTD:mbsnbcmp.obj
 0001:00072520       _strchr                    00473520 f   LIBCMTD:strchr.obj
 0001:00072526       ___from_strstr_to_strchr   00473526     LIBCMTD:strchr.obj
 0001:000725e0       __ismbbkalnum_l            004735e0 f   LIBCMTD:ismbbyte.obj
 0001:00072600       __ismbbkalnum              00473600 f   LIBCMTD:ismbbyte.obj
 0001:00072620       __ismbbkprint_l            00473620 f   LIBCMTD:ismbbyte.obj
 0001:00072640       __ismbbkprint              00473640 f   LIBCMTD:ismbbyte.obj
 0001:00072660       __ismbbkpunct_l            00473660 f   LIBCMTD:ismbbyte.obj
 0001:00072680       __ismbbkpunct              00473680 f   LIBCMTD:ismbbyte.obj
 0001:000726a0       __ismbbalnum_l             004736a0 f   LIBCMTD:ismbbyte.obj
 0001:000726c0       __ismbbalnum               004736c0 f   LIBCMTD:ismbbyte.obj
 0001:000726e0       __ismbbalpha_l             004736e0 f   LIBCMTD:ismbbyte.obj
 0001:00072700       __ismbbalpha               00473700 f   LIBCMTD:ismbbyte.obj
 0001:00072720       __ismbbgraph_l             00473720 f   LIBCMTD:ismbbyte.obj
 0001:00072740       __ismbbgraph               00473740 f   LIBCMTD:ismbbyte.obj
 0001:00072760       __ismbbprint_l             00473760 f   LIBCMTD:ismbbyte.obj
 0001:00072780       __ismbbprint               00473780 f   LIBCMTD:ismbbyte.obj
 0001:000727a0       __ismbbpunct_l             004737a0 f   LIBCMTD:ismbbyte.obj
 0001:000727c0       __ismbbpunct               004737c0 f   LIBCMTD:ismbbyte.obj
 0001:000727e0       __ismbblead_l              004737e0 f   LIBCMTD:ismbbyte.obj
 0001:00072800       __ismbblead                00473800 f   LIBCMTD:ismbbyte.obj
 0001:00072820       __ismbbtrail_l             00473820 f   LIBCMTD:ismbbyte.obj
 0001:00072840       __ismbbtrail               00473840 f   LIBCMTD:ismbbyte.obj
 0001:00072860       __ismbbkana_l              00473860 f   LIBCMTD:ismbbyte.obj
 0001:000728d0       __ismbbkana                004738d0 f   LIBCMTD:ismbbyte.obj
 0001:000729c0       ___crtMessageBoxA          004739c0 f   LIBCMTD:crtmbox.obj
 0001:00072be0       __87except                 00473be0 f   LIBCMTD:_87except_.obj
 0001:00072d90       __controlfp_s              00473d90 f   LIBCMTD:_contrlfp_.obj
 0001:00072e70       __isalpha_l                00473e70 f i LIBCMTD:_ctype.obj
 0001:00072f00       _isalpha                   00473f00 f i LIBCMTD:_ctype.obj
 0001:00072f40       __isupper_l                00473f40 f i LIBCMTD:_ctype.obj
 0001:00072fc0       _isupper                   00473fc0 f i LIBCMTD:_ctype.obj
 0001:00072ff0       __islower_l                00473ff0 f i LIBCMTD:_ctype.obj
 0001:00073070       _islower                   00474070 f i LIBCMTD:_ctype.obj
 0001:000730a0       __isdigit_l                004740a0 f i LIBCMTD:_ctype.obj
 0001:00073120       _isdigit                   00474120 f i LIBCMTD:_ctype.obj
 0001:00073150       __isxdigit_l               00474150 f i LIBCMTD:_ctype.obj
 0001:000731e0       _isxdigit                  004741e0 f i LIBCMTD:_ctype.obj
 0001:00073220       __isspace_l                00474220 f i LIBCMTD:_ctype.obj
 0001:000732a0       _isspace                   004742a0 f i LIBCMTD:_ctype.obj
 0001:000732d0       __ispunct_l                004742d0 f i LIBCMTD:_ctype.obj
 0001:00073350       _ispunct                   00474350 f i LIBCMTD:_ctype.obj
 0001:00073380       __isalnum_l                00474380 f i LIBCMTD:_ctype.obj
 0001:00073410       _isalnum                   00474410 f i LIBCMTD:_ctype.obj
 0001:00073450       __isprint_l                00474450 f i LIBCMTD:_ctype.obj
 0001:000734e0       _isprint                   004744e0 f i LIBCMTD:_ctype.obj
 0001:00073520       __isgraph_l                00474520 f i LIBCMTD:_ctype.obj
 0001:000735b0       _isgraph                   004745b0 f i LIBCMTD:_ctype.obj
 0001:000735f0       __iscntrl_l                004745f0 f i LIBCMTD:_ctype.obj
 0001:00073670       _iscntrl                   00474670 f i LIBCMTD:_ctype.obj
 0001:000736a0       ___isascii                 004746a0 f i LIBCMTD:_ctype.obj
 0001:000736c0       ___toascii                 004746c0 f i LIBCMTD:_ctype.obj
 0001:000736d0       __iscsymf_l                004746d0 f i LIBCMTD:_ctype.obj
 0001:00073710       ___iscsymf                 00474710 f i LIBCMTD:_ctype.obj
 0001:00073750       __iscsym_l                 00474750 f i LIBCMTD:_ctype.obj
 0001:00073790       ___iscsym                  00474790 f i LIBCMTD:_ctype.obj
 0001:000737d0       __atodbl_l                 004747d0 f   LIBCMTD:atodbl.obj
 0001:000738e0       __atodbl                   004748e0 f   LIBCMTD:atodbl.obj
 0001:00073900       __atoldbl_l                00474900 f   LIBCMTD:atodbl.obj
 0001:00073a10       __atoldbl                  00474a10 f   LIBCMTD:atodbl.obj
 0001:00073a30       __atoflt_l                 00474a30 f   LIBCMTD:atodbl.obj
 0001:00073b40       __atoflt                   00474b40 f   LIBCMTD:atodbl.obj
 0001:00073b60       __fptostr                  00474b60 f   LIBCMTD:_fptostr.obj
 0001:00073e10       __fltout2                  00474e10 f   LIBCMTD:_cfout_.obj
 0001:00073ec0       ___dtold                   00474ec0 f   LIBCMTD:_cfout_.obj
 0001:00074020       __set_output_format        00475020 f   LIBCMTD:outputformat.obj
 0001:000740a0       __get_output_format        004750a0 f   LIBCMTD:outputformat.obj
 0001:000740b0       __allrem                   004750b0 f   LIBCMTD:llrem.obj
 0001:00074170       __allshl                   00475170 f   LIBCMTD:llshl.obj
 0001:00074190       __aullshr                  00475190 f   LIBCMTD:ullshr.obj
 0001:000741b0       _strrchr                   004751b0 f   LIBCMTD:strrchr.obj
 0001:000741e0       __fptrap                   004751e0 f   LIBCMTD:crt0fp.obj
 0001:00074200       ___init_ctype              00475200 f   LIBCMTD:initctyp.obj
 0001:000747b0       ____mb_cur_max_func        004757b0 f   LIBCMTD:initctyp.obj
 0001:00074800       ____mb_cur_max_l_func      00475800 f   LIBCMTD:initctyp.obj
 0001:00074830       ____lc_codepage_func       00475830 f   LIBCMTD:initctyp.obj
 0001:00074880       ____lc_collate_cp_func     00475880 f   LIBCMTD:initctyp.obj
 0001:000748d0       ____lc_handle_func         004758d0 f   LIBCMTD:initctyp.obj
 0001:00074920       ___init_collate            00475920 f   LIBCMTD:initcoll.obj
 0001:00074930       _strcspn                   00475930 f   LIBCMTD:strcspn.obj
 0001:00074980       _strncmp                   00475980 f   LIBCMTD:strncmp.obj
 0001:00074b00       _strpbrk                   00475b00 f   LIBCMTD:strpbrk.obj
 0001:00074b40       _memcmp                    00475b40 f   LIBCMTD:memcmp.obj
 0001:000755b0       ___get_qualified_locale    004765b0 f   LIBCMTD:getqloc.obj
 0001:00076410       _vprintf_helper            00477410 f   LIBCMTD:vprintf.obj
 0001:00076530       __vprintf_l                00477530 f   LIBCMTD:vprintf.obj
 0001:00076550       __vprintf_s_l              00477550 f   LIBCMTD:vprintf.obj
 0001:00076570       __vprintf_p_l              00477570 f   LIBCMTD:vprintf.obj
 0001:00076590       _vprintf                   00477590 f   LIBCMTD:vprintf.obj
 0001:000765b0       _vprintf_s                 004775b0 f   LIBCMTD:vprintf.obj
 0001:000765d0       __vprintf_p                004775d0 f   LIBCMTD:vprintf.obj
 0001:000765f0       __iswctype_l               004775f0 f   LIBCMTD:iswctype.obj
 0001:00076610       _iswctype                  00477610 f   LIBCMTD:iswctype.obj
 0001:00076670       _is_wctype                 00477670 f   LIBCMTD:iswctype.obj
 0001:00076690       __woutput_s_l              00477690 f   LIBCMTD:woutputs.obj
 0001:000779e0       __validate_param_reuseW    004789e0 f   LIBCMTD:woutputp.obj
 0001:00077c50       __woutput_p_l              00478c50 f   LIBCMTD:woutputp.obj
 0001:0007b3d0       _fputwc                    0047c3d0 f   LIBCMTD:fputwc.obj
 0001:0007b4d0       __fputwc_nolock            0047c4d0 f   LIBCMTD:fputwc.obj
 0001:0007b7c0       _putwc                     0047c7c0 f   LIBCMTD:fputwc.obj
 0001:0007b7e0       ___initconout              0047c7e0 f   LIBCMTD:initcon.obj
 0001:0007b810       ___termconout              0047c810 f   LIBCMTD:initcon.obj
 0001:0007b840       __chsize_s                 0047c840 f   LIBCMTD:chsize.obj
 0001:0007bae0       __chsize_nolock            0047cae0 f   LIBCMTD:chsize.obj
 0001:0007bd80       __chsize                   0047cd80 f   LIBCMTD:chsize.obj
 0001:0007bdb0       __read                     0047cdb0 f   LIBCMTD:read.obj
 0001:0007c040       __read_nolock              0047d040 f   LIBCMTD:read.obj
 0001:0007cf90       __setmode                  0047df90 f   LIBCMTD:setmode.obj
 0001:0007d220       __setmode_nolock           0047e220 f   LIBCMTD:setmode.obj
 0001:0007d490       __set_fmode                0047e490 f   LIBCMTD:setmode.obj
 0001:0007d540       __get_fmode                0047e540 f   LIBCMTD:setmode.obj
 0001:0007d5c0       __strnicmp_l               0047e5c0 f   LIBCMTD:strnicmp.obj
 0001:0007d800       __strnicmp                 0047e800 f   LIBCMTD:strnicmp.obj
 0001:0007d990       __handle_qnan1             0047e990 f   LIBCMTD:_fpexcept_.obj
 0001:0007d9f0       __handle_qnan2             0047e9f0 f   LIBCMTD:_fpexcept_.obj
 0001:0007da60       __except1                  0047ea60 f   LIBCMTD:_fpexcept_.obj
 0001:0007db60       __except2                  0047eb60 f   LIBCMTD:_fpexcept_.obj
 0001:0007dc70       __raise_exc_ex             0047ec70 f   LIBCMTD:_fpexcept_.obj
 0001:0007e1a0       __raise_exc                0047f1a0 f   LIBCMTD:_fpexcept_.obj
 0001:0007e1d0       __raise_excf               0047f1d0 f   LIBCMTD:_fpexcept_.obj
 0001:0007e200       __handle_exc               0047f200 f   LIBCMTD:_fpexcept_.obj
 0001:0007e510       __umatherr                 0047f510 f   LIBCMTD:_fpexcept_.obj
 0001:0007e5b0       __set_errno_from_matherr   0047f5b0 f   LIBCMTD:_fpexcept_.obj
 0001:0007e640       __errcode                  0047f640 f   LIBCMTD:_fpexcept_.obj
 0001:0007e6b0       __matherr                  0047f6b0 f   LIBCMTD:_matherr_.obj
 0001:0007e6c0       __statfp                   0047f6c0 f   LIBCMTD:_fpctrl_.obj
 0001:0007e6e0       __clrfp                    0047f6e0 f   LIBCMTD:_fpctrl_.obj
 0001:0007e700       __ctrlfp                   0047f700 f   LIBCMTD:_fpctrl_.obj
 0001:0007e730       __set_statfp               0047f730 f   LIBCMTD:_fpctrl_.obj
 0001:0007e7a0       ___get_fpsr_sse2           0047f7a0 f   LIBCMTD:_fpctrl_.obj
 0001:0007e7d0       ___set_fpsr_sse2           0047f7d0 f   LIBCMTD:_fpctrl_.obj
 0001:0007e8b0       ___fclrf_sse2              0047f8b0 f   LIBCMTD:_fpctrl_.obj
 0001:0007e8d0       ___statfp_sse2             0047f8d0 f   LIBCMTD:_fpctrl_.obj
 0001:0007e900       ___clrfp_sse2              0047f900 f   LIBCMTD:_fpctrl_.obj
 0001:0007e940       ___ctrlfp_sse2             0047f940 f   LIBCMTD:_fpctrl_.obj
 0001:0007e9a0       ___set_statfp_sse2         0047f9a0 f   LIBCMTD:_fpctrl_.obj
 0001:0007e9d0       __statusfp2                0047f9d0 f   LIBCMTD:_ieee87_.obj
 0001:0007ea10       __statusfp                 0047fa10 f   LIBCMTD:_ieee87_.obj
 0001:0007ea60       __clearfp                  0047fa60 f   LIBCMTD:_ieee87_.obj
 0001:0007eab0       ___control87_2             0047fab0 f   LIBCMTD:_ieee87_.obj
 0001:0007eb60       __controlfp                0047fb60 f   LIBCMTD:_ieee87_.obj
 0001:0007eb80       __control87                0047fb80 f i LIBCMTD:_ieee87_.obj
 0001:0007ec30       __set_controlfp            0047fc30 f   LIBCMTD:_ieee87_.obj
 0001:0007ecc0       __fpreset                  0047fcc0 f   LIBCMTD:_ieee87_.obj
 0001:0007f480       __ld12tod                  00480480 f   LIBCMTD:_intrncvt_.obj
 0001:0007f4a0       __ld12cvt                  004804a0 f i LIBCMTD:_intrncvt_.obj
 0001:0007f700       __RoundMan                 00480700 f i LIBCMTD:_intrncvt_.obj
 0001:0007f7e0       __ZeroTail                 004807e0 f i LIBCMTD:_intrncvt_.obj
 0001:0007f870       __IncMan                   00480870 f i LIBCMTD:_intrncvt_.obj
 0001:0007f920       ___addl                    00480920 f i LIBCMTD:_intrncvt_.obj
 0001:0007f960       __CopyMan                  00480960 f i LIBCMTD:_intrncvt_.obj
 0001:0007f9b0       __FillZeroMan              004809b0 f i LIBCMTD:_intrncvt_.obj
 0001:0007f9f0       __IsZeroMan                004809f0 f i LIBCMTD:_intrncvt_.obj
 0001:0007fa30       __ShrMan                   00480a30 f i LIBCMTD:_intrncvt_.obj
 0001:0007fb20       __ld12tof                  00480b20 f   LIBCMTD:_intrncvt_.obj
 0001:0007fb40       __ld12told                 00480b40 f   LIBCMTD:_intrncvt_.obj
 0001:0007fc10       ___strgtold12_l            00480c10 f   LIBCMTD:_strgtold_.obj
 0001:000806c0       ___multtenpow12            004816c0 f i LIBCMTD:_strgtold_.obj
 0001:000807a0       ___ld12mul                 004817a0 f i LIBCMTD:_strgtold_.obj
 0001:00080ba0       ___shl_12                  00481ba0 f i LIBCMTD:_strgtold_.obj
 0001:00080c10       ___shr_12                  00481c10 f i LIBCMTD:_strgtold_.obj
 0001:00080c80       ___STRINGTOLD_L            00481c80 f   LIBCMTD:_strgtold_.obj
 0001:00080cf0       _$I10_OUTPUT               00481cf0 f   LIBCMTD:_x10fout_.obj
 0001:000812a0       ___add_12                  004822a0 f i LIBCMTD:_x10fout_.obj
 0001:00081350       _wcstol                    00482350 f   LIBCMTD:wcstol.obj
 0001:00081720       __wcstol_l                 00482720 f   LIBCMTD:wcstol.obj
 0001:00081740       _wcstoul                   00482740 f   LIBCMTD:wcstol.obj
 0001:00081760       __wcstoul_l                00482760 f   LIBCMTD:wcstol.obj
 0001:00081780       __flswbuf                  00482780 f   LIBCMTD:_flswbuf.obj
 0001:00081a60       ___ascii_strnicmp          00482a60 f   LIBCMTD:_strnicm.obj
 0001:00081ad0       __set_exp                  00482ad0 f   LIBCMTD:_util_.obj
 0001:00081b10       __get_exp                  00482b10 f   LIBCMTD:_util_.obj
 0001:00081b40       __add_exp                  00482b40 f   LIBCMTD:_util_.obj
 0001:00081b80       __set_bexp                 00482b80 f   LIBCMTD:_util_.obj
 0001:00081bb0       __sptype                   00482bb0 f   LIBCMTD:_util_.obj
 0001:00081c30       __decomp                   00482c30 f   LIBCMTD:_util_.obj
 0001:00081d60       ___mtold12                 00482d60 f   LIBCMTD:_mantold_.obj
 0001:00081ec0       __wchartodigit             00482ec0 f   LIBCMTD:wchtodig.obj
 0001:000821f0       ??0CAtlComModule@ATL@@QAE@XZ 004831f0 f i atlsd:atlcommodule.obj
 0001:000822b0       ??0_ATL_COM_MODULE70@ATL@@QAE@XZ 004832b0 f i atlsd:atlcommodule.obj
 0001:000822d0       ??1CAtlComModule@ATL@@QAE@XZ 004832d0 f i atlsd:atlcommodule.obj
 0001:000822f0       ?Term@CAtlComModule@ATL@@QAEXXZ 004832f0 f i atlsd:atlcommodule.obj
 0001:00082380       ??1_ATL_COM_MODULE70@ATL@@QAE@XZ 00483380 f i atlsd:atlcommodule.obj
 0001:000823a0       ??0CAtlWinModule@ATL@@QAE@XZ 004833a0 f i atlsd:atlwinmodule.obj
 0001:00082410       ??0_ATL_WIN_MODULE70@ATL@@QAE@XZ 00483410 f i atlsd:atlwinmodule.obj
 0001:00082440       ??0?$CSimpleArray@GV?$CSimpleArrayEqualHelper@G@ATL@@@ATL@@QAE@XZ 00483440 f i atlsd:atlwinmodule.obj
 0001:00082470       ??1CAtlWinModule@ATL@@QAE@XZ 00483470 f i atlsd:atlwinmodule.obj
 0001:00082490       ??1_ATL_WIN_MODULE70@ATL@@QAE@XZ 00483490 f i atlsd:atlwinmodule.obj
 0001:000824c0       ??1?$CSimpleArray@GV?$CSimpleArrayEqualHelper@G@ATL@@@ATL@@QAE@XZ 004834c0 f i atlsd:atlwinmodule.obj
 0001:000824e0       ??0CAtlBaseModule@ATL@@QAE@XZ 004834e0 f   atlsd:atlbase.obj
 0001:00082590       ??0_ATL_BASE_MODULE70@ATL@@QAE@XZ 00483590 f i atlsd:atlbase.obj
 0001:000825c0       ??1CAtlBaseModule@ATL@@QAE@XZ 004835c0 f   atlsd:atlbase.obj
 0001:000825e0       ??1_ATL_BASE_MODULE70@ATL@@QAE@XZ 004835e0 f i atlsd:atlbase.obj
 0001:00082610       ?AddResourceInstance@CAtlBaseModule@ATL@@QAE_NPAUHINSTANCE__@@@Z 00483610 f   atlsd:atlbase.obj
 0001:000826c0       ?RemoveResourceInstance@CAtlBaseModule@ATL@@QAE_NPAUHINSTANCE__@@@Z 004836c0 f   atlsd:atlbase.obj
 0001:000827c0       ?GetHInstanceAt@CAtlBaseModule@ATL@@QAEPAUHINSTANCE__@@H@Z 004837c0 f   atlsd:atlbase.obj
 0001:000828c0       ??0?$CSimpleArray@PAUHINSTANCE__@@V?$CSimpleArrayEqualHelper@PAUHINSTANCE__@@@ATL@@@ATL@@QAE@XZ 004838c0 f i atlsd:atlbase.obj
 0001:000828f0       ?GetSize@?$CSimpleArray@PAUHINSTANCE__@@V?$CSimpleArrayEqualHelper@PAUHINSTANCE__@@@ATL@@@ATL@@QBEHXZ 004838f0 f i atlsd:atlbase.obj
 0001:00082910       ?Add@?$CSimpleArray@PAUHINSTANCE__@@V?$CSimpleArrayEqualHelper@PAUHINSTANCE__@@@ATL@@@ATL@@QAEHABQAUHINSTANCE__@@@Z 00483910 f i atlsd:atlbase.obj
 0001:00082a40       ?RemoveAt@?$CSimpleArray@PAUHINSTANCE__@@V?$CSimpleArrayEqualHelper@PAUHINSTANCE__@@@ATL@@@ATL@@QAEHH@Z 00483a40 f i atlsd:atlbase.obj
 0001:00082b00       ??A?$CSimpleArray@PAUHINSTANCE__@@V?$CSimpleArrayEqualHelper@PAUHINSTANCE__@@@ATL@@@ATL@@QAEAAPAUHINSTANCE__@@H@Z 00483b00 f i atlsd:atlbase.obj
 0001:00082b70       ?InternalSetAtIndex@?$CSimpleArray@PAUHINSTANCE__@@V?$CSimpleArrayEqualHelper@PAUHINSTANCE__@@@ATL@@@ATL@@QAEXHABQAUHINSTANCE__@@@Z 00483b70 f i atlsd:atlbase.obj
 0001:00082bc0       ??0Wrapper@?$CSimpleArray@PAUHINSTANCE__@@V?$CSimpleArrayEqualHelper@PAUHINSTANCE__@@@ATL@@@ATL@@QAE@ABQAUHINSTANCE__@@@Z 00483bc0 f i atlsd:atlbase.obj
 0001:00082be0       ??1?$CSimpleArray@PAUHINSTANCE__@@V?$CSimpleArrayEqualHelper@PAUHINSTANCE__@@@ATL@@@ATL@@QAE@XZ 00483be0 f i atlsd:atlbase.obj
 0001:00082c00       ??$?2PAUHINSTANCE__@@@Wrapper@?$CSimpleArray@PAUHINSTANCE__@@V?$CSimpleArrayEqualHelper@PAUHINSTANCE__@@@ATL@@@ATL@@SAPAXIPAPAUHINSTANCE__@@@Z 00483c00 f i atlsd:atlbase.obj
 0001:00082c10       ?RemoveAll@?$CSimpleArray@PAUHINSTANCE__@@V?$CSimpleArrayEqualHelper@PAUHINSTANCE__@@@ATL@@@ATL@@QAEXXZ 00483c10 f i atlsd:atlbase.obj
 0001:00082c80       ?memmove_s@Checked@ATL@@YAXPAXIPBXI@Z 00483c80 f i atlsd:atlbase.obj
 0001:00082cb0       ??0?$CComCritSecLock@VCComCriticalSection@ATL@@@ATL@@QAE@AAVCComCriticalSection@1@_N@Z 00483cb0 f i atlsd:atlbase.obj
 0001:00082d00       ??1?$CComCritSecLock@VCComCriticalSection@ATL@@@ATL@@QAE@XZ 00483d00 f i atlsd:atlbase.obj
 0001:00082d20       ?Lock@?$CComCritSecLock@VCComCriticalSection@ATL@@@ATL@@QAEJXZ 00483d20 f i atlsd:atlbase.obj
 0001:00082d80       ?Unlock@?$CComCritSecLock@VCComCriticalSection@ATL@@@ATL@@QAEXXZ 00483d80 f i atlsd:atlbase.obj
 0001:00082de0       ?AtlAdvise@ATL@@YGJPAUIUnknown@@0ABU_GUID@@PAK@Z 00483de0 f   atlsd:atlfuncs.obj
 0001:00082ea0       ??1?$CComPtr@UIConnectionPointContainer@@@ATL@@QAE@XZ 00483ea0 f i atlsd:atlfuncs.obj
 0001:00082ec0       ??1?$CComPtr@UIConnectionPoint@@@ATL@@QAE@XZ 00483ec0 f i atlsd:atlfuncs.obj
 0001:00082ee0       ?AtlUnadvise@ATL@@YGJPAUIUnknown@@ABU_GUID@@K@Z 00483ee0 f   atlsd:atlfuncs.obj
 0001:00082fa0       ?AtlFreeMarshalStream@ATL@@YGJPAUIStream@@@Z 00483fa0 f   atlsd:atlfuncs.obj
 0001:00083010       ?AtlMarshalPtrInProc@ATL@@YGJPAUIUnknown@@ABU_GUID@@PAPAUIStream@@@Z 00484010 f   atlsd:atlfuncs.obj
 0001:000830b0       ?AtlUnmarshalPtr@ATL@@YGJPAUIStream@@ABU_GUID@@PAPAUIUnknown@@@Z 004840b0 f   atlsd:atlfuncs.obj
 0001:00083150       ?AtlComModuleGetClassObject@ATL@@YGJPAU_ATL_COM_MODULE70@1@ABU_GUID@@1PAPAX@Z 00484150 f   atlsd:atlfuncs.obj
 0001:00083330       ?AtlComModuleRegisterClassObjects@ATL@@YGJPAU_ATL_COM_MODULE70@1@KK@Z 00484330 f   atlsd:atlfuncs.obj
 0001:000833d0       ?AtlComModuleRevokeClassObjects@ATL@@YGJPAU_ATL_COM_MODULE70@1@@Z 004843d0 f   atlsd:atlfuncs.obj
 0001:00083460       ?AtlWaitWithMessageLoop@ATL@@YGHPAX@Z 00484460 f   atlsd:atlfuncs.obj
 0001:00083560       _InlineIsEqualGUID         00484560 f i atlsd:atlfuncs.obj
 0001:000835c0       ?AtlInternalQueryInterface@ATL@@YGJPAXPBU_ATL_INTMAP_ENTRY@1@ABU_GUID@@PAPAX@Z 004845c0 f   atlsd:atlfuncs.obj
 0001:00083790       ?AtlGetVersion@ATL@@YGKPAX@Z 00484790 f   atlsd:atlfuncs.obj
 0001:000837a0       ?AtlWinModuleAddCreateWndData@ATL@@YGXPAU_ATL_WIN_MODULE70@1@PAU_AtlCreateWndData@1@PAX@Z 004847a0 f   atlsd:atlfuncs.obj
 0001:000838b0       ?AtlWinModuleExtractCreateWndData@ATL@@YGPAXPAU_ATL_WIN_MODULE70@1@@Z 004848b0 f   atlsd:atlfuncs.obj
 0001:000839d0       ?AtlWinModuleInit@ATL@@YGJPAU_ATL_WIN_MODULE70@1@@Z 004849d0 f   atlsd:atlfuncs.obj
 0001:00083a70       ?AtlModuleAddTermFunc@ATL@@YGJPAU_ATL_MODULE70@1@P6GXK@ZK@Z 00484a70 f   atlsd:atlfuncs.obj
 0001:00083b80       ?AtlCallTermFunc@ATL@@YGXPAU_ATL_MODULE70@1@@Z 00484b80 f   atlsd:atlfuncs.obj
 0001:00083c00       _CComStdCallThunkHelper@0  00484c00 f   atlsd:atlfuncs.obj
 0001:00083c10       ??0?$CComPtr@UIConnectionPointContainer@@@ATL@@QAE@XZ 00484c10 f i atlsd:atlfuncs.obj
 0001:00083c30       ??1?$CComPtrBase@UIConnectionPointContainer@@@ATL@@QAE@XZ 00484c30 f i atlsd:atlfuncs.obj
 0001:00083c60       ??I?$CComPtrBase@UIConnectionPointContainer@@@ATL@@QAEPAPAUIConnectionPointContainer@@XZ 00484c60 f i atlsd:atlfuncs.obj
 0001:00083ca0       ??C?$CComPtrBase@UIConnectionPointContainer@@@ATL@@QBEPAV?$_NoAddRefReleaseOnCComPtr@UIConnectionPointContainer@@@1@XZ 00484ca0 f i atlsd:atlfuncs.obj
 0001:00083ce0       ??0?$CComPtr@UIConnectionPoint@@@ATL@@QAE@XZ 00484ce0 f i atlsd:atlfuncs.obj
 0001:00083d00       ??1?$CComPtrBase@UIConnectionPoint@@@ATL@@QAE@XZ 00484d00 f i atlsd:atlfuncs.obj
 0001:00083d30       ??I?$CComPtrBase@UIConnectionPoint@@@ATL@@QAEPAPAUIConnectionPoint@@XZ 00484d30 f i atlsd:atlfuncs.obj
 0001:00083d70       ??C?$CComPtrBase@UIConnectionPoint@@@ATL@@QBEPAV?$_NoAddRefReleaseOnCComPtr@UIConnectionPoint@@@1@XZ 00484d70 f i atlsd:atlfuncs.obj
 0001:00083db0       ??0?$CComPtrBase@UIConnectionPointContainer@@@ATL@@IAE@XZ 00484db0 f i atlsd:atlfuncs.obj
 0001:00083dd0       ??0?$CComPtrBase@UIConnectionPoint@@@ATL@@IAE@XZ 00484dd0 f i atlsd:atlfuncs.obj
 0001:00083df0       ?RevokeClassObject@_ATL_OBJMAP_ENTRY30@ATL@@QAGJXZ 00484df0 f i atlsd:atlfuncs.obj
 0001:00083e20       ?RegisterClassObject@_ATL_OBJMAP_ENTRY30@ATL@@QAGJKK@Z 00484e20 f i atlsd:atlfuncs.obj
 0001:00083ea0       ?InlineIsEqualUnknown@ATL@@YGHABU_GUID@@@Z 00484ea0 f i atlsd:atlfuncs.obj
 0001:00083ef0       ??0CTraceCategory@ATL@@QAE@PBDI@Z 00484ef0 f i atlsd:atltrace.obj
 0001:00083f40       ?ChangeCategory@CTrace@ATL@@QAE_NKIW4ATLTRACESTATUS@2@@Z 00484f40 f i atlsd:atltrace.obj
 0001:00083f70       ?RegisterCategory@CTrace@ATL@@QAEKPBD@Z 00484f70 f i atlsd:atltrace.obj
 0001:00083f90       ??0CAtlAllocator@@QAE@XZ   00484f90 f i atlsd:Externs.obj
 0001:00083fe0       ??0CTraceSnapshot@@QAE@XZ  00484fe0 f i atlsd:Externs.obj
 0001:00084010       ??0?$CSimpleArray@UCModuleInfo@CTraceSnapshot@@V?$CSimpleArrayEqualHelper@UCModuleInfo@CTraceSnapshot@@@ATL@@@ATL@@QAE@XZ 00485010 f i atlsd:Externs.obj
 0001:00084040       ??0?$CSimpleArray@KV?$CSimpleArrayEqualHelper@K@ATL@@@ATL@@QAE@XZ 00485040 f i atlsd:Externs.obj
 0001:00084160       ??0CTrace@ATL@@AAE@P6AHHPBDH00ZZ@Z 00485160 f i atlsd:Externs.obj
 0001:000841a0       ??1CAtlAllocator@@QAE@XZ   004851a0 f i atlsd:Externs.obj
 0001:000841c0       ??1CTraceSnapshot@@QAE@XZ  004851c0 f i atlsd:Externs.obj
 0001:000841e0       ??1?$CSimpleArray@UCModuleInfo@CTraceSnapshot@@V?$CSimpleArrayEqualHelper@UCModuleInfo@CTraceSnapshot@@@ATL@@@ATL@@QAE@XZ 004851e0 f i atlsd:Externs.obj
 0001:00084200       ??1?$CSimpleArray@KV?$CSimpleArrayEqualHelper@K@ATL@@@ATL@@QAE@XZ 00485200 f i atlsd:Externs.obj
 0001:00084220       ?RemoveAll@?$CSimpleArray@UCModuleInfo@CTraceSnapshot@@V?$CSimpleArrayEqualHelper@UCModuleInfo@CTraceSnapshot@@@ATL@@@ATL@@QAEXXZ 00485220 f i atlsd:Externs.obj
 0001:00084290       ?RemoveAll@?$CSimpleArray@KV?$CSimpleArrayEqualHelper@K@ATL@@@ATL@@QAEXXZ 00485290 f i atlsd:Externs.obj
 0001:00084300       ??1CTrace@ATL@@AAE@XZ      00485300 f i atlsd:Externs.obj
 0001:00084320       ?NotifyTool@ATL@@YGXXZ     00485320 f   atlsd:AtlDebugAPI.obj
 0001:00084360       _AtlTraceRegister@8        00485360 f   atlsd:AtlDebugAPI.obj
 0001:000843e0       _AtlTraceUnregister@4      004853e0 f   atlsd:AtlDebugAPI.obj
 0001:00084410       _AtlTraceRegisterCategoryA@8 00485410 f   atlsd:AtlDebugAPI.obj
 0001:00084480       _AtlTraceRegisterCategoryU@8 00485480 f   atlsd:AtlDebugAPI.obj
 0001:000844d0       _AtlTraceModifyProcess@20  004854d0 f   atlsd:AtlDebugAPI.obj
 0001:00084570       ?GetProcess@CAtlAllocator@@QBEPAVCAtlTraceProcess@@XZ 00485570 f i atlsd:AtlDebugAPI.obj
 0001:00084590       _AtlTraceModifyModule@16   00485590 f   atlsd:AtlDebugAPI.obj
 0001:00084680       _AtlTraceModifyCategory@16 00485680 f   atlsd:AtlDebugAPI.obj
 0001:00084730       _AtlTraceGetProcess@20     00485730 f   atlsd:AtlDebugAPI.obj
 0001:00084810       _AtlTraceGetModule@16      00485810 f   atlsd:AtlDebugAPI.obj
 0001:00084920       _AtlTraceGetCategory@16    00485920 f   atlsd:AtlDebugAPI.obj
 0001:00084a00       _AtlTraceGetUpdateEventNameA@4 00485a00 f   atlsd:AtlDebugAPI.obj
 0001:00084a30       _AtlTraceGetUpdateEventNameA_s@8 00485a30 f   atlsd:AtlDebugAPI.obj
 0001:00084a60       _AtlTraceGetUpdateEventNameU@4 00485a60 f   atlsd:AtlDebugAPI.obj
 0001:00084ad0       _AtlTraceGetUpdateEventNameU_s@8 00485ad0 f   atlsd:AtlDebugAPI.obj
 0001:00084b40       _AtlTraceVA                00485b40 f   atlsd:AtlDebugAPI.obj
 0001:00084e60       ?Name@CAtlTraceCategory@@QBEPB_WXZ 00485e60 f i atlsd:AtlDebugAPI.obj
 0001:00084e80       _AtlTraceVU                00485e80 f   atlsd:AtlDebugAPI.obj
 0001:000851d0       _AtlTraceOpenProcess@4     004861d0 f   atlsd:AtlDebugAPI.obj
 0001:000852d0       ??_GCAtlAllocator@@QAEPAXI@Z 004862d0 f i atlsd:AtlDebugAPI.obj
 0001:00085300       _AtlTraceCloseProcess@4    00486300 f   atlsd:AtlDebugAPI.obj
 0001:000853a0       _AtlTraceSnapshotProcess@4 004863a0 f   atlsd:AtlDebugAPI.obj
 0001:00085410       _AtlTraceGetProcessInfo@8  00486410 f   atlsd:AtlDebugAPI.obj
 0001:000855b0       ?Path@CAtlTraceModuleInfo@@QBEPB_WXZ 004865b0 f i atlsd:AtlDebugAPI.obj
 0001:000855d0       ?Name@CAtlTraceModuleInfo@@QBEPB_WXZ 004865d0 f i atlsd:AtlDebugAPI.obj
 0001:000855f0       ?Id@CAtlTraceProcess@@QBEKXZ 004865f0 f i atlsd:AtlDebugAPI.obj
 0001:00085610       _AtlTraceGetModuleInfo@12  00486610 f   atlsd:AtlDebugAPI.obj
 0001:000857b0       _AtlTraceGetCategoryInfo@16 004867b0 f   atlsd:AtlDebugAPI.obj
 0001:00085b40       ?CrtDbgReport@CAtlTraceModule@@QBEP6AHHPBDH00ZZXZ 00486b40 f i atlsd:AtlDebugAPI.obj
 0001:00085b60       ?_IsTracingEnabled@ATL@@YA_NKKI@Z 00486b60 f   atlsd:AtlDebugAPI.obj
 0001:00085ba0       ?GetSize@?$CSimpleArray@UCModuleInfo@CTraceSnapshot@@V?$CSimpleArrayEqualHelper@UCModuleInfo@CTraceSnapshot@@@ATL@@@ATL@@QBEHXZ 00486ba0 f i atlsd:AtlDebugAPI.obj
 0001:00085bc0       ??A?$CSimpleArray@UCModuleInfo@CTraceSnapshot@@V?$CSimpleArrayEqualHelper@UCModuleInfo@CTraceSnapshot@@@ATL@@@ATL@@QAEAAUCModuleInfo@CTraceSnapshot@@H@Z 00486bc0 f i atlsd:AtlDebugAPI.obj
 0001:00085c30       ?strcpy_s@Checked@ATL@@YAXPADIPBD@Z 00486c30 f i atlsd:AtlDebugAPI.obj
 0001:00085c60       ?wcscpy_s@Checked@ATL@@YAXPA_WIPB_W@Z 00486c60 f i atlsd:AtlDebugAPI.obj
 0001:00085c90       ??0?$CA2WEX@$0IA@@ATL@@QAE@PBD@Z 00486c90 f i atlsd:AtlDebugAPI.obj
 0001:00085cc0       ??1?$CA2WEX@$0IA@@ATL@@QAE@XZ 00486cc0 f i atlsd:AtlDebugAPI.obj
 0001:00085cf0       ??B?$CA2WEX@$0IA@@ATL@@QBEPA_WXZ 00486cf0 f i atlsd:AtlDebugAPI.obj
 0001:00085d10       ?Init@?$CA2WEX@$0IA@@ATL@@AAEXPBDI@Z 00486d10 f i atlsd:AtlDebugAPI.obj
 0001:00085e10       ?AtlThrowLastWin32@ATL@@YGXXZ 00486e10 f i atlsd:AtlDebugAPI.obj
 0001:00085e40       ??$AtlConvFreeMemory@_W@ATL@@YAXPA_W0H@Z 00486e40 f i atlsd:AtlDebugAPI.obj
 0001:00085e80       ??$AtlConvAllocMemory@_W@ATL@@YAXPAPA_WHPA_WH@Z 00486e80 f i atlsd:AtlDebugAPI.obj
 0001:00086010       ?Init@CAtlAllocator@@QAE_NPBDK@Z 00487010 f   atlsd:Allocate.obj
 0001:00086340       ?IncRef@CAtlTraceProcess@@QAEIXZ 00487340 f i atlsd:Allocate.obj
 0001:00086370       ?Base@CAtlTraceProcess@@QBEPAXXZ 00487370 f i atlsd:Allocate.obj
 0001:00086390       ?Open@CAtlAllocator@@QAE_NPBD@Z 00487390 f   atlsd:Allocate.obj
 0001:000864d0       ?Close@CAtlAllocator@@QAEX_N@Z 004874d0 f   atlsd:Allocate.obj
 0001:00086540       ?DecRef@CAtlTraceProcess@@QAEIXZ 00487540 f i atlsd:Allocate.obj
 0001:00086570       ?GetModule@CAtlAllocator@@QBEPAVCAtlTraceModule@@H@Z 00487570 f   atlsd:Allocate.obj
 0001:00086600       ?ModuleCount@CAtlTraceProcess@@QBEHXZ 00487600 f i atlsd:Allocate.obj
 0001:00086620       ?GetCategory@CAtlAllocator@@QBEPAVCAtlTraceCategory@@H@Z 00487620 f   atlsd:Allocate.obj
 0001:000866d0       ?MaxSize@CAtlTraceProcess@@QBEKXZ 004876d0 f i atlsd:Allocate.obj
 0001:000866f0       ?CategoryCount@CAtlTraceProcess@@QBEHXZ 004876f0 f i atlsd:Allocate.obj
 0001:00086710       ?GetCategoryCount@CAtlAllocator@@QBEHH@Z 00487710 f   atlsd:Allocate.obj
 0001:00086790       ?GetCategoryCount@CAtlAllocator@@QBEHABVCAtlTraceModule@@@Z 00487790 f   atlsd:Allocate.obj
 0001:00086800       ?GetModuleCount@CAtlAllocator@@QBEHXZ 00487800 f   atlsd:Allocate.obj
 0001:00086860       ?FindModule@CAtlAllocator@@QBE_NPB_WPAI@Z 00487860 f   atlsd:Allocate.obj
 0001:000868e0       ?AddModule@CAtlAllocator@@QAEHPAUHINSTANCE__@@@Z 004878e0 f   atlsd:Allocate.obj
 0001:00086ab0       ?TryAllocate@CAtlTraceSettings@@QAE_NXZ 00487ab0 f i atlsd:Allocate.obj
 0001:00086af0       ?MarkValid@CAtlTraceSettings@@QAEXJ@Z 00487af0 f i atlsd:Allocate.obj
 0001:00086b30       ?IncModuleCount@CAtlTraceProcess@@QAEXI@Z 00487b30 f i atlsd:Allocate.obj
 0001:00086b60       ?AddCategory@CAtlAllocator@@QAEHHPB_W@Z 00487b60 f   atlsd:Allocate.obj
 0001:00086d90       ?TryAddRef@CAtlTraceSettings@@QAE_NXZ 00487d90 f i atlsd:Allocate.obj
 0001:00086dd0       ?Release@CAtlTraceSettings@@QAEXXZ 00487dd0 f i atlsd:Allocate.obj
 0001:00086e00       ?IncCategoryCount@CAtlTraceProcess@@QAEXI@Z 00487e00 f i atlsd:Allocate.obj
 0001:00086e30       ?RemoveModule@CAtlAllocator@@QAE_NH@Z 00487e30 f   atlsd:Allocate.obj
 0001:00086ee0       ?CleanUp@CAtlAllocator@@QAEXXZ 00487ee0 f   atlsd:Allocate.obj
 0001:00086f00       ?TakeSnapshot@CAtlAllocator@@QAEXXZ 00487f00 f   atlsd:Allocate.obj
 0001:000870f0       ?ReleaseSnapshot@CAtlAllocator@@QAEXXZ 004880f0 f   atlsd:Allocate.obj
 0001:000871d0       ?Add@?$CSimpleArray@UCModuleInfo@CTraceSnapshot@@V?$CSimpleArrayEqualHelper@UCModuleInfo@CTraceSnapshot@@@ATL@@@ATL@@QAEHABUCModuleInfo@CTraceSnapshot@@@Z 004881d0 f i atlsd:Allocate.obj
 0001:00087300       ?GetSize@?$CSimpleArray@KV?$CSimpleArrayEqualHelper@K@ATL@@@ATL@@QBEHXZ 00488300 f i atlsd:Allocate.obj
 0001:00087320       ?Add@?$CSimpleArray@KV?$CSimpleArrayEqualHelper@K@ATL@@@ATL@@QAEHABK@Z 00488320 f i atlsd:Allocate.obj
 0001:00087450       ?RemoveAt@?$CSimpleArray@KV?$CSimpleArrayEqualHelper@K@ATL@@@ATL@@QAEHH@Z 00488450 f i atlsd:Allocate.obj
 0001:00087510       ??A?$CSimpleArray@KV?$CSimpleArrayEqualHelper@K@ATL@@@ATL@@QAEAAKH@Z 00488510 f i atlsd:Allocate.obj
 0001:00087580       ?InternalSetAtIndex@?$CSimpleArray@UCModuleInfo@CTraceSnapshot@@V?$CSimpleArrayEqualHelper@UCModuleInfo@CTraceSnapshot@@@ATL@@@ATL@@QAEXHABUCModuleInfo@CTraceSnapshot@@@Z 00488580 f i atlsd:Allocate.obj
 0001:000875d0       ?InternalSetAtIndex@?$CSimpleArray@KV?$CSimpleArrayEqualHelper@K@ATL@@@ATL@@QAEXHABK@Z 004885d0 f i atlsd:Allocate.obj
 0001:00087620       ??0Wrapper@?$CSimpleArray@UCModuleInfo@CTraceSnapshot@@V?$CSimpleArrayEqualHelper@UCModuleInfo@CTraceSnapshot@@@ATL@@@ATL@@QAE@ABUCModuleInfo@CTraceSnapshot@@@Z 00488620 f i atlsd:Allocate.obj
 0001:00087650       ??0Wrapper@?$CSimpleArray@KV?$CSimpleArrayEqualHelper@K@ATL@@@ATL@@QAE@ABK@Z 00488650 f i atlsd:Allocate.obj
 0001:00087670       ??$?2UCModuleInfo@CTraceSnapshot@@@Wrapper@?$CSimpleArray@UCModuleInfo@CTraceSnapshot@@V?$CSimpleArrayEqualHelper@UCModuleInfo@CTraceSnapshot@@@ATL@@@ATL@@SAPAXIPAUCModuleInfo@CTraceSnapshot@@@Z 00488670 f i atlsd:Allocate.obj
 0001:00087680       ??$?2K@Wrapper@?$CSimpleArray@KV?$CSimpleArrayEqualHelper@K@ATL@@@ATL@@SAPAXIPAK@Z 00488680 f i atlsd:Allocate.obj
 0001:00087690       ??0CAtlTraceModuleInfo@@QAE@XZ 00488690 f   atlsd:AtlTraceModuleManager.obj
 0001:000876e0       ?Reset@CAtlTraceModuleInfo@@QAEXPAUHINSTANCE__@@@Z 004886e0 f   atlsd:AtlTraceModuleManager.obj
 0001:00087820       ??0CAtlTraceCategory@@QAE@XZ 00488820 f   atlsd:AtlTraceModuleManager.obj
 0001:00087860       ??0CAtlTraceSettings@@QAE@XZ 00488860 f i atlsd:AtlTraceModuleManager.obj
 0001:000878a0       ?Reset@CAtlTraceCategory@@QAEXPB_WJ@Z 004888a0 f   atlsd:AtlTraceModuleManager.obj
 0001:000878f0       ??0CAtlTraceModule@@QAE@XZ 004888f0 f   atlsd:AtlTraceModuleManager.obj
 0001:00087930       ?CrtDbgReport@CAtlTraceModule@@QAEXP6AHHPBDH00ZZ@Z 00488930 f   atlsd:AtlTraceModuleManager.obj
 0001:00087970       ??0CAtlTraceProcess@@QAE@K@Z 00488970 f   atlsd:AtlTraceModuleManager.obj
 0001:00087a40       ?GetNextCookie@CAtlTraceProcess@@QAEJXZ 00488a40 f   atlsd:AtlTraceModuleManager.obj
 0001:00087a5c       _InterlockedExchange@8     00488a5c f   kernel32:KERNEL32.dll
 0001:00087a62       _RtlUnwind@16              00488a62 f   kernel32:KERNEL32.dll
 0001:00087a68       _DecodePointer@4           00488a68 f   kernel32:KERNEL32.dll
 0001:00087a6e       _EncodePointer@4           00488a6e f   kernel32:KERNEL32.dll
 0001:00087a74       _TerminateProcess@8        00488a74 f   kernel32:KERNEL32.dll
 0001:00087a7a       _UnhandledExceptionFilter@4 00488a7a f   kernel32:KERNEL32.dll
 0001:00087a80       _SetUnhandledExceptionFilter@4 00488a80 f   kernel32:KERNEL32.dll
 0001:00087a86       _IsDebuggerPresent@0       00488a86 f   kernel32:KERNEL32.dll
 0001:00087a8c       _GetModuleFileNameW@12     00488a8c f   kernel32:KERNEL32.dll
 0001:00087a92       _VirtualProtect@16         00488a92 f   kernel32:KERNEL32.dll
 0001:00087a98       _VirtualAlloc@16           00488a98 f   kernel32:KERNEL32.dll
 0001:00087a9e       _GetModuleHandleW@4        00488a9e f   kernel32:KERNEL32.dll
 0001:00087aa4       _GetSystemInfo@4           00488aa4 f   kernel32:KERNEL32.dll
 0001:00087aaa       _VirtualQuery@12           00488aaa f   kernel32:KERNEL32.dll
 0001:00087ab0       _HeapValidate@12           00488ab0 f   kernel32:KERNEL32.dll
 0001:00087ab6       _IsBadReadPtr@8            00488ab6 f   kernel32:KERNEL32.dll
 0001:00087abc       _GetCommandLineA@0         00488abc f   kernel32:KERNEL32.dll
 0001:00087ac2       _HeapSetInformation@16     00488ac2 f   kernel32:KERNEL32.dll
 0001:00087ac8       _GetStartupInfoW@4         00488ac8 f   kernel32:KERNEL32.dll
 0001:00087ace       _TlsAlloc@0                00488ace f   kernel32:KERNEL32.dll
 0001:00087ad4       _TlsGetValue@4             00488ad4 f   kernel32:KERNEL32.dll
 0001:00087ada       _TlsSetValue@8             00488ada f   kernel32:KERNEL32.dll
 0001:00087ae0       _GetCurrentThreadId@0      00488ae0 f   kernel32:KERNEL32.dll
 0001:00087ae6       _TlsFree@4                 00488ae6 f   kernel32:KERNEL32.dll
 0001:00087aec       _SetLastError@4            00488aec f   kernel32:KERNEL32.dll
 0001:00087af2       _GetCurrentThread@0        00488af2 f   kernel32:KERNEL32.dll
 0001:00087af8       _LoadLibraryW@4            00488af8 f   kernel32:KERNEL32.dll
 0001:00087afe       _FatalAppExitA@8           00488afe f   kernel32:KERNEL32.dll
 0001:00087b04       _IsProcessorFeaturePresent@4 00488b04 f   kernel32:KERNEL32.dll
 0001:00087b0a       _LCMapStringW@24           00488b0a f   kernel32:KERNEL32.dll
 0001:00087b10       _GetACP@0                  00488b10 f   kernel32:KERNEL32.dll
 0001:00087b16       _GetOEMCP@0                00488b16 f   kernel32:KERNEL32.dll
 0001:00087b1c       _GetCPInfo@8               00488b1c f   kernel32:KERNEL32.dll
 0001:00087b22       _IsValidCodePage@4         00488b22 f   kernel32:KERNEL32.dll
 0001:00087b28       _GetStdHandle@4            00488b28 f   kernel32:KERNEL32.dll
 0001:00087b2e       _GetLocaleInfoW@16         00488b2e f   kernel32:KERNEL32.dll
 0001:00087b34       _WriteConsoleW@20          00488b34 f   kernel32:KERNEL32.dll
 0001:00087b3a       _OutputDebugStringW@4      00488b3a f   kernel32:KERNEL32.dll
 0001:00087b40       _ExitProcess@4             00488b40 f   kernel32:KERNEL32.dll
 0001:00087b46       _SetConsoleCtrlHandler@8   00488b46 f   kernel32:KERNEL32.dll
 0001:00087b4c       _FlushFileBuffers@4        00488b4c f   kernel32:KERNEL32.dll
 0001:00087b52       _GetConsoleCP@0            00488b52 f   kernel32:KERNEL32.dll
 0001:00087b58       _GetConsoleMode@8          00488b58 f   kernel32:KERNEL32.dll
 0001:00087b5e       _SetHandleCount@4          00488b5e f   kernel32:KERNEL32.dll
 0001:00087b64       _HeapAlloc@12              00488b64 f   kernel32:KERNEL32.dll
 0001:00087b6a       _HeapReAlloc@16            00488b6a f   kernel32:KERNEL32.dll
 0001:00087b70       _HeapSize@12               00488b70 f   kernel32:KERNEL32.dll
 0001:00087b76       _HeapQueryInformation@20   00488b76 f   kernel32:KERNEL32.dll
 0001:00087b7c       _HeapFree@12               00488b7c f   kernel32:KERNEL32.dll
 0001:00087b82       _HeapCreate@12             00488b82 f   kernel32:KERNEL32.dll
 0001:00087b88       _HeapDestroy@4             00488b88 f   kernel32:KERNEL32.dll
 0001:00087b8e       _QueryPerformanceCounter@4 00488b8e f   kernel32:KERNEL32.dll
 0001:00087b94       _GetCurrentProcessId@0     00488b94 f   kernel32:KERNEL32.dll
 0001:00087b9a       _GetSystemTimeAsFileTime@4 00488b9a f   kernel32:KERNEL32.dll
 0001:00087ba0       _FreeEnvironmentStringsW@4 00488ba0 f   kernel32:KERNEL32.dll
 0001:00087ba6       _GetEnvironmentStringsW@0  00488ba6 f   kernel32:KERNEL32.dll
 0001:00087bac       _GetProcessHeap@0          00488bac f   kernel32:KERNEL32.dll
 0001:00087bb2       _GetStringTypeW@16         00488bb2 f   kernel32:KERNEL32.dll
 0001:00087bb8       _SetStdHandle@8            00488bb8 f   kernel32:KERNEL32.dll
 0001:00087bbe       _GetLocaleInfoA@16         00488bbe f   kernel32:KERNEL32.dll
 0001:00087bc4       _IsValidLocale@8           00488bc4 f   kernel32:KERNEL32.dll
 0001:00087bca       _EnumSystemLocalesA@8      00488bca f   kernel32:KERNEL32.dll
 0001:00087bd0       _GetUserDefaultLCID@0      00488bd0 f   kernel32:KERNEL32.dll
 0001:00087bd6       _CreateFileW@28            00488bd6 f   kernel32:KERNEL32.dll
 0001:00087bdc       _SetEndOfFile@4            00488bdc f   kernel32:KERNEL32.dll
 0001:00087be2       _WaitForSingleObject@8     00488be2 f   kernel32:KERNEL32.dll
 0001:00087be8       _SetEvent@4                00488be8 f   kernel32:KERNEL32.dll
 0001:00087bee       _OpenEventA@12             00488bee f   kernel32:KERNEL32.dll
 0001:00087bf4       _UnmapViewOfFile@4         00488bf4 f   kernel32:KERNEL32.dll
 0001:00087bfa       _MapViewOfFile@20          00488bfa f   kernel32:KERNEL32.dll
 0001:00087c00       _CreateFileMappingA@24     00488c00 f   kernel32:KERNEL32.dll
 0001:00087c06       _OpenFileMappingA@12       00488c06 f   kernel32:KERNEL32.dll
 0001:00087c0c       _DispatchMessageA@4        00488c0c f   user32:USER32.dll
 0001:00087c12       _DispatchMessageW@4        00488c12 f   user32:USER32.dll
 0001:00087c18       _TranslateMessage@4        00488c18 f   user32:USER32.dll
 0001:00087c1e       _GetMessageA@16            00488c1e f   user32:USER32.dll
 0001:00087c24       _GetMessageW@16            00488c24 f   user32:USER32.dll
 0001:00087c2a       _IsWindowUnicode@4         00488c2a f   user32:USER32.dll
 0001:00087c30       _PeekMessageA@20           00488c30 f   user32:USER32.dll
 0001:00087c36       _MsgWaitForMultipleObjectsEx@20 00488c36 f   user32:USER32.dll
 0001:00087c3c       _SetThreadToken@8          00488c3c f   advapi32:ADVAPI32.dll
 0001:00087c42       _RevertToSelf@0            00488c42 f   advapi32:ADVAPI32.dll
 0001:00087c48       _OpenThreadToken@16        00488c48 f   advapi32:ADVAPI32.dll
 0001:00087c4e       _CoReleaseMarshalData@4    00488c4e f   ole32:ole32.dll
 0001:00087c54       _CoMarshalInterface@24     00488c54 f   ole32:ole32.dll
 0001:00087c5a       _CreateStreamOnHGlobal@12  00488c5a f   ole32:ole32.dll
 0001:00087c60       _CoUnmarshalInterface@12   00488c60 f   ole32:ole32.dll
 0001:00087c66       _CoRevokeClassObject@4     00488c66 f   ole32:ole32.dll
 0001:00087c6c       _CoRegisterClassObject@20  00488c6c f   ole32:ole32.dll
 0001:00087c80       _memmove_s                 00488c80 f   LIBCMTD:memmove_s.obj
 0001:00087de0       _wcscat                    00488de0 f   LIBCMTD:wcscat.obj
 0001:00087e40       _wcscpy                    00488e40 f   LIBCMTD:wcscat.obj
 0001:00087e80       __wcsicmp_l                00488e80 f   LIBCMTD:wcsicmp.obj
 0001:000880b0       __wcsicmp                  004890b0 f   LIBCMTD:wcsicmp.obj
 0001:00088250       __towlower_l               00489250 f   LIBCMTD:towlower.obj
 0001:00088390       _towlower                  00489390 f   LIBCMTD:towlower.obj
 0001:000883b0       ___crtLCMapStringW         004893b0 f   LIBCMTD:w_map.obj
 0001:000883f0       _wcsnlen                   004893f0 f   LIBCMTD:wcslen_s.obj
 0002:00000000       ___xc_a                    004a4000     LIBCMTD:crt0init.obj
 0002:000004bc       ___xc_z                    004a44bc     LIBCMTD:crt0init.obj
 0002:000005c0       ___xi_a                    004a45c0     LIBCMTD:crt0init.obj
 0002:000008dc       ___xi_z                    004a48dc     LIBCMTD:crt0init.obj
 0002:000009e0       ___xp_a                    004a49e0     LIBCMTD:crt0init.obj
 0002:00000cf4       ___xp_z                    004a4cf4     LIBCMTD:crt0init.obj
 0002:00000df8       ___xt_a                    004a4df8     LIBCMTD:crt0init.obj
 0002:00000efc       ___xt_z                    004a4efc     LIBCMTD:crt0init.obj
 0002:000012d8       ?has_denorm@_Num_base@std@@2W4float_denorm_style@2@B 004a52d8     chat_dialog.obj
 0002:000012dc       ?has_denorm_loss@_Num_base@std@@2_NB 004a52dc     chat_dialog.obj
 0002:000012dd       ?has_infinity@_Num_base@std@@2_NB 004a52dd     chat_dialog.obj
 0002:000012de       ?has_quiet_NaN@_Num_base@std@@2_NB 004a52de     chat_dialog.obj
 0002:000012df       ?has_signaling_NaN@_Num_base@std@@2_NB 004a52df     chat_dialog.obj
 0002:000012e0       ?is_bounded@_Num_base@std@@2_NB 004a52e0     chat_dialog.obj
 0002:000012e1       ?is_exact@_Num_base@std@@2_NB 004a52e1     chat_dialog.obj
 0002:000012e2       ?is_iec559@_Num_base@std@@2_NB 004a52e2     chat_dialog.obj
 0002:000012e3       ?is_integer@_Num_base@std@@2_NB 004a52e3     chat_dialog.obj
 0002:000012e4       ?is_modulo@_Num_base@std@@2_NB 004a52e4     chat_dialog.obj
 0002:000012e5       ?is_signed@_Num_base@std@@2_NB 004a52e5     chat_dialog.obj
 0002:000012e6       ?is_specialized@_Num_base@std@@2_NB 004a52e6     chat_dialog.obj
 0002:000012e7       ?tinyness_before@_Num_base@std@@2_NB 004a52e7     chat_dialog.obj
 0002:000012e8       ?traps@_Num_base@std@@2_NB 004a52e8     chat_dialog.obj
 0002:000012ec       ?round_style@_Num_base@std@@2W4float_round_style@2@B 004a52ec     chat_dialog.obj
 0002:000012f0       ?digits@_Num_base@std@@2HB 004a52f0     chat_dialog.obj
 0002:000012f4       ?digits10@_Num_base@std@@2HB 004a52f4     chat_dialog.obj
 0002:000012f8       ?max_digits10@_Num_base@std@@2HB 004a52f8     chat_dialog.obj
 0002:000012fc       ?max_exponent@_Num_base@std@@2HB 004a52fc     chat_dialog.obj
 0002:00001300       ?max_exponent10@_Num_base@std@@2HB 004a5300     chat_dialog.obj
 0002:00001304       ?min_exponent@_Num_base@std@@2HB 004a5304     chat_dialog.obj
 0002:00001308       ?min_exponent10@_Num_base@std@@2HB 004a5308     chat_dialog.obj
 0002:0000130c       ?radix@_Num_base@std@@2HB  004a530c     chat_dialog.obj
 0002:00001310       ?is_bounded@_Num_int_base@std@@2_NB 004a5310     chat_dialog.obj
 0002:00001311       ?is_exact@_Num_int_base@std@@2_NB 004a5311     chat_dialog.obj
 0002:00001312       ?is_integer@_Num_int_base@std@@2_NB 004a5312     chat_dialog.obj
 0002:00001313       ?is_modulo@_Num_int_base@std@@2_NB 004a5313     chat_dialog.obj
 0002:00001314       ?is_specialized@_Num_int_base@std@@2_NB 004a5314     chat_dialog.obj
 0002:00001318       ?radix@_Num_int_base@std@@2HB 004a5318     chat_dialog.obj
 0002:0000131c       ?has_denorm@_Num_float_base@std@@2W4float_denorm_style@2@B 004a531c     chat_dialog.obj
 0002:00001320       ?has_denorm_loss@_Num_float_base@std@@2_NB 004a5320     chat_dialog.obj
 0002:00001321       ?has_infinity@_Num_float_base@std@@2_NB 004a5321     chat_dialog.obj
 0002:00001322       ?has_quiet_NaN@_Num_float_base@std@@2_NB 004a5322     chat_dialog.obj
 0002:00001323       ?has_signaling_NaN@_Num_float_base@std@@2_NB 004a5323     chat_dialog.obj
 0002:00001324       ?is_bounded@_Num_float_base@std@@2_NB 004a5324     chat_dialog.obj
 0002:00001325       ?is_exact@_Num_float_base@std@@2_NB 004a5325     chat_dialog.obj
 0002:00001326       ?is_iec559@_Num_float_base@std@@2_NB 004a5326     chat_dialog.obj
 0002:00001327       ?is_integer@_Num_float_base@std@@2_NB 004a5327     chat_dialog.obj
 0002:00001328       ?is_modulo@_Num_float_base@std@@2_NB 004a5328     chat_dialog.obj
 0002:00001329       ?is_signed@_Num_float_base@std@@2_NB 004a5329     chat_dialog.obj
 0002:0000132a       ?is_specialized@_Num_float_base@std@@2_NB 004a532a     chat_dialog.obj
 0002:0000132b       ?tinyness_before@_Num_float_base@std@@2_NB 004a532b     chat_dialog.obj
 0002:0000132c       ?traps@_Num_float_base@std@@2_NB 004a532c     chat_dialog.obj
 0002:00001330       ?round_style@_Num_float_base@std@@2W4float_round_style@2@B 004a5330     chat_dialog.obj
 0002:00001334       ?radix@_Num_float_base@std@@2HB 004a5334     chat_dialog.obj
 0002:00001338       ?is_signed@?$numeric_limits@D@std@@2_NB 004a5338     chat_dialog.obj
 0002:0000133c       ?digits@?$numeric_limits@D@std@@2HB 004a533c     chat_dialog.obj
 0002:00001340       ?digits10@?$numeric_limits@D@std@@2HB 004a5340     chat_dialog.obj
 0002:00001344       ?max_digits10@?$numeric_limits@D@std@@2HB 004a5344     chat_dialog.obj
 0002:00001348       ?is_signed@?$numeric_limits@_W@std@@2_NB 004a5348     chat_dialog.obj
 0002:0000134c       ?digits@?$numeric_limits@_W@std@@2HB 004a534c     chat_dialog.obj
 0002:00001350       ?digits10@?$numeric_limits@_W@std@@2HB 004a5350     chat_dialog.obj
 0002:00001354       ?max_digits10@?$numeric_limits@_W@std@@2HB 004a5354     chat_dialog.obj
 0002:00001358       ?is_modulo@?$numeric_limits@_N@std@@2_NB 004a5358     chat_dialog.obj
 0002:00001359       ?is_signed@?$numeric_limits@_N@std@@2_NB 004a5359     chat_dialog.obj
 0002:0000135c       ?digits@?$numeric_limits@_N@std@@2HB 004a535c     chat_dialog.obj
 0002:00001360       ?digits10@?$numeric_limits@_N@std@@2HB 004a5360     chat_dialog.obj
 0002:00001364       ?max_digits10@?$numeric_limits@_N@std@@2HB 004a5364     chat_dialog.obj
 0002:00001368       ?is_signed@?$numeric_limits@C@std@@2_NB 004a5368     chat_dialog.obj
 0002:0000136c       ?digits@?$numeric_limits@C@std@@2HB 004a536c     chat_dialog.obj
 0002:00001370       ?digits10@?$numeric_limits@C@std@@2HB 004a5370     chat_dialog.obj
 0002:00001374       ?max_digits10@?$numeric_limits@C@std@@2HB 004a5374     chat_dialog.obj
 0002:00001378       ?is_signed@?$numeric_limits@E@std@@2_NB 004a5378     chat_dialog.obj
 0002:0000137c       ?digits@?$numeric_limits@E@std@@2HB 004a537c     chat_dialog.obj
 0002:00001380       ?digits10@?$numeric_limits@E@std@@2HB 004a5380     chat_dialog.obj
 0002:00001384       ?max_digits10@?$numeric_limits@E@std@@2HB 004a5384     chat_dialog.obj
 0002:00001388       ?is_signed@?$numeric_limits@F@std@@2_NB 004a5388     chat_dialog.obj
 0002:0000138c       ?digits@?$numeric_limits@F@std@@2HB 004a538c     chat_dialog.obj
 0002:00001390       ?digits10@?$numeric_limits@F@std@@2HB 004a5390     chat_dialog.obj
 0002:00001394       ?max_digits10@?$numeric_limits@F@std@@2HB 004a5394     chat_dialog.obj
 0002:00001398       ?is_signed@?$numeric_limits@G@std@@2_NB 004a5398     chat_dialog.obj
 0002:0000139c       ?digits@?$numeric_limits@G@std@@2HB 004a539c     chat_dialog.obj
 0002:000013a0       ?digits10@?$numeric_limits@G@std@@2HB 004a53a0     chat_dialog.obj
 0002:000013a4       ?max_digits10@?$numeric_limits@G@std@@2HB 004a53a4     chat_dialog.obj
 0002:000013a8       ?is_signed@?$numeric_limits@H@std@@2_NB 004a53a8     chat_dialog.obj
 0002:000013ac       ?digits@?$numeric_limits@H@std@@2HB 004a53ac     chat_dialog.obj
 0002:000013b0       ?digits10@?$numeric_limits@H@std@@2HB 004a53b0     chat_dialog.obj
 0002:000013b4       ?max_digits10@?$numeric_limits@H@std@@2HB 004a53b4     chat_dialog.obj
 0002:000013b8       ?is_signed@?$numeric_limits@I@std@@2_NB 004a53b8     chat_dialog.obj
 0002:000013bc       ?digits@?$numeric_limits@I@std@@2HB 004a53bc     chat_dialog.obj
 0002:000013c0       ?digits10@?$numeric_limits@I@std@@2HB 004a53c0     chat_dialog.obj
 0002:000013c4       ?max_digits10@?$numeric_limits@I@std@@2HB 004a53c4     chat_dialog.obj
 0002:000013c8       ?is_signed@?$numeric_limits@J@std@@2_NB 004a53c8     chat_dialog.obj
 0002:000013cc       ?digits@?$numeric_limits@J@std@@2HB 004a53cc     chat_dialog.obj
 0002:000013d0       ?digits10@?$numeric_limits@J@std@@2HB 004a53d0     chat_dialog.obj
 0002:000013d4       ?max_digits10@?$numeric_limits@J@std@@2HB 004a53d4     chat_dialog.obj
 0002:000013d8       ?is_signed@?$numeric_limits@K@std@@2_NB 004a53d8     chat_dialog.obj
 0002:000013dc       ?digits@?$numeric_limits@K@std@@2HB 004a53dc     chat_dialog.obj
 0002:000013e0       ?digits10@?$numeric_limits@K@std@@2HB 004a53e0     chat_dialog.obj
 0002:000013e4       ?max_digits10@?$numeric_limits@K@std@@2HB 004a53e4     chat_dialog.obj
 0002:000013e8       ?is_signed@?$numeric_limits@_J@std@@2_NB 004a53e8     chat_dialog.obj
 0002:000013ec       ?digits@?$numeric_limits@_J@std@@2HB 004a53ec     chat_dialog.obj
 0002:000013f0       ?digits10@?$numeric_limits@_J@std@@2HB 004a53f0     chat_dialog.obj
 0002:000013f4       ?max_digits10@?$numeric_limits@_J@std@@2HB 004a53f4     chat_dialog.obj
 0002:000013f8       ?is_signed@?$numeric_limits@_K@std@@2_NB 004a53f8     chat_dialog.obj
 0002:000013fc       ?digits@?$numeric_limits@_K@std@@2HB 004a53fc     chat_dialog.obj
 0002:00001400       ?digits10@?$numeric_limits@_K@std@@2HB 004a5400     chat_dialog.obj
 0002:00001404       ?max_digits10@?$numeric_limits@_K@std@@2HB 004a5404     chat_dialog.obj
 0002:00001408       ?digits@?$numeric_limits@M@std@@2HB 004a5408     chat_dialog.obj
 0002:0000140c       ?digits10@?$numeric_limits@M@std@@2HB 004a540c     chat_dialog.obj
 0002:00001410       ?max_digits10@?$numeric_limits@M@std@@2HB 004a5410     chat_dialog.obj
 0002:00001414       ?max_exponent@?$numeric_limits@M@std@@2HB 004a5414     chat_dialog.obj
 0002:00001418       ?max_exponent10@?$numeric_limits@M@std@@2HB 004a5418     chat_dialog.obj
 0002:0000141c       ?min_exponent@?$numeric_limits@M@std@@2HB 004a541c     chat_dialog.obj
 0002:00001420       ?min_exponent10@?$numeric_limits@M@std@@2HB 004a5420     chat_dialog.obj
 0002:00001424       ?digits@?$numeric_limits@N@std@@2HB 004a5424     chat_dialog.obj
 0002:00001428       ?digits10@?$numeric_limits@N@std@@2HB 004a5428     chat_dialog.obj
 0002:0000142c       ?max_digits10@?$numeric_limits@N@std@@2HB 004a542c     chat_dialog.obj
 0002:00001430       ?max_exponent@?$numeric_limits@N@std@@2HB 004a5430     chat_dialog.obj
 0002:00001434       ?max_exponent10@?$numeric_limits@N@std@@2HB 004a5434     chat_dialog.obj
 0002:00001438       ?min_exponent@?$numeric_limits@N@std@@2HB 004a5438     chat_dialog.obj
 0002:0000143c       ?min_exponent10@?$numeric_limits@N@std@@2HB 004a543c     chat_dialog.obj
 0002:00001440       ?digits@?$numeric_limits@O@std@@2HB 004a5440     chat_dialog.obj
 0002:00001444       ?digits10@?$numeric_limits@O@std@@2HB 004a5444     chat_dialog.obj
 0002:00001448       ?max_digits10@?$numeric_limits@O@std@@2HB 004a5448     chat_dialog.obj
 0002:0000144c       ?max_exponent@?$numeric_limits@O@std@@2HB 004a544c     chat_dialog.obj
 0002:00001450       ?max_exponent10@?$numeric_limits@O@std@@2HB 004a5450     chat_dialog.obj
 0002:00001454       ?min_exponent@?$numeric_limits@O@std@@2HB 004a5454     chat_dialog.obj
 0002:00001458       ?min_exponent10@?$numeric_limits@O@std@@2HB 004a5458     chat_dialog.obj
 0002:0000145c       ?value@?$integral_constant@_N$0A@@tr1@std@@2_NB 004a545c     chat_dialog.obj
 0002:0000145d       ?value@?$integral_constant@_N$00@tr1@std@@2_NB 004a545d     chat_dialog.obj
 0002:00001460       ?value@?$integral_constant@I$0A@@tr1@std@@2IB 004a5460     chat_dialog.obj
 0002:00001464       ?_Rank@?$_Arithmetic_traits@_N@std@@2HB 004a5464     chat_dialog.obj
 0002:00001468       ?_Rank@?$_Arithmetic_traits@D@std@@2HB 004a5468     chat_dialog.obj
 0002:0000146c       ?_Rank@?$_Arithmetic_traits@C@std@@2HB 004a546c     chat_dialog.obj
 0002:00001470       ?_Rank@?$_Arithmetic_traits@E@std@@2HB 004a5470     chat_dialog.obj
 0002:00001474       ?_Rank@?$_Arithmetic_traits@F@std@@2HB 004a5474     chat_dialog.obj
 0002:00001478       ?_Rank@?$_Arithmetic_traits@G@std@@2HB 004a5478     chat_dialog.obj
 0002:0000147c       ?_Rank@?$_Arithmetic_traits@H@std@@2HB 004a547c     chat_dialog.obj
 0002:00001480       ?_Rank@?$_Arithmetic_traits@I@std@@2HB 004a5480     chat_dialog.obj
 0002:00001484       ?_Rank@?$_Arithmetic_traits@J@std@@2HB 004a5484     chat_dialog.obj
 0002:00001488       ?_Rank@?$_Arithmetic_traits@K@std@@2HB 004a5488     chat_dialog.obj
 0002:0000148c       ?_Rank@?$_Arithmetic_traits@_J@std@@2HB 004a548c     chat_dialog.obj
 0002:00001490       ?_Rank@?$_Arithmetic_traits@_K@std@@2HB 004a5490     chat_dialog.obj
 0002:00001494       ?_Rank@?$_Arithmetic_traits@M@std@@2HB 004a5494     chat_dialog.obj
 0002:00001498       ?_Rank@?$_Arithmetic_traits@N@std@@2HB 004a5498     chat_dialog.obj
 0002:0000149c       ?_Rank@?$_Arithmetic_traits@O@std@@2HB 004a549c     chat_dialog.obj
 0002:000014a0       ?collate@?$_Locbase@H@std@@2HB 004a54a0     chat_dialog.obj
 0002:000014a4       ?ctype@?$_Locbase@H@std@@2HB 004a54a4     chat_dialog.obj
 0002:000014a8       ?monetary@?$_Locbase@H@std@@2HB 004a54a8     chat_dialog.obj
 0002:000014ac       ?numeric@?$_Locbase@H@std@@2HB 004a54ac     chat_dialog.obj
 0002:000014b0       ?time@?$_Locbase@H@std@@2HB 004a54b0     chat_dialog.obj
 0002:000014b4       ?messages@?$_Locbase@H@std@@2HB 004a54b4     chat_dialog.obj
 0002:000014b8       ?all@?$_Locbase@H@std@@2HB 004a54b8     chat_dialog.obj
 0002:000014bc       ?none@?$_Locbase@H@std@@2HB 004a54bc     chat_dialog.obj
 0002:000014c0       ?table_size@?$ctype@D@std@@2IB 004a54c0     chat_dialog.obj
 0002:000014c4       ?skipws@?$_Iosb@H@std@@2W4_Fmtflags@12@B 004a54c4     chat_dialog.obj
 0002:000014c8       ?unitbuf@?$_Iosb@H@std@@2W4_Fmtflags@12@B 004a54c8     chat_dialog.obj
 0002:000014cc       ?uppercase@?$_Iosb@H@std@@2W4_Fmtflags@12@B 004a54cc     chat_dialog.obj
 0002:000014d0       ?showbase@?$_Iosb@H@std@@2W4_Fmtflags@12@B 004a54d0     chat_dialog.obj
 0002:000014d4       ?showpoint@?$_Iosb@H@std@@2W4_Fmtflags@12@B 004a54d4     chat_dialog.obj
 0002:000014d8       ?showpos@?$_Iosb@H@std@@2W4_Fmtflags@12@B 004a54d8     chat_dialog.obj
 0002:000014dc       ?left@?$_Iosb@H@std@@2W4_Fmtflags@12@B 004a54dc     chat_dialog.obj
 0002:000014e0       ?right@?$_Iosb@H@std@@2W4_Fmtflags@12@B 004a54e0     chat_dialog.obj
 0002:000014e4       ?internal@?$_Iosb@H@std@@2W4_Fmtflags@12@B 004a54e4     chat_dialog.obj
 0002:000014e8       ?dec@?$_Iosb@H@std@@2W4_Fmtflags@12@B 004a54e8     chat_dialog.obj
 0002:000014ec       ?oct@?$_Iosb@H@std@@2W4_Fmtflags@12@B 004a54ec     chat_dialog.obj
 0002:000014f0       ?hex@?$_Iosb@H@std@@2W4_Fmtflags@12@B 004a54f0     chat_dialog.obj
 0002:000014f4       ?scientific@?$_Iosb@H@std@@2W4_Fmtflags@12@B 004a54f4     chat_dialog.obj
 0002:000014f8       ?fixed@?$_Iosb@H@std@@2W4_Fmtflags@12@B 004a54f8     chat_dialog.obj
 0002:000014fc       ?hexfloat@?$_Iosb@H@std@@2W4_Fmtflags@12@B 004a54fc     chat_dialog.obj
 0002:00001500       ?boolalpha@?$_Iosb@H@std@@2W4_Fmtflags@12@B 004a5500     chat_dialog.obj
 0002:00001504       ?_Stdio@?$_Iosb@H@std@@2W4_Fmtflags@12@B 004a5504     chat_dialog.obj
 0002:00001508       ?adjustfield@?$_Iosb@H@std@@2W4_Fmtflags@12@B 004a5508     chat_dialog.obj
 0002:0000150c       ?basefield@?$_Iosb@H@std@@2W4_Fmtflags@12@B 004a550c     chat_dialog.obj
 0002:00001510       ?floatfield@?$_Iosb@H@std@@2W4_Fmtflags@12@B 004a5510     chat_dialog.obj
 0002:00001514       ?goodbit@?$_Iosb@H@std@@2W4_Iostate@12@B 004a5514     chat_dialog.obj
 0002:00001518       ?eofbit@?$_Iosb@H@std@@2W4_Iostate@12@B 004a5518     chat_dialog.obj
 0002:0000151c       ?failbit@?$_Iosb@H@std@@2W4_Iostate@12@B 004a551c     chat_dialog.obj
 0002:00001520       ?badbit@?$_Iosb@H@std@@2W4_Iostate@12@B 004a5520     chat_dialog.obj
 0002:00001524       ?_Hardfail@?$_Iosb@H@std@@2W4_Iostate@12@B 004a5524     chat_dialog.obj
 0002:00001528       ?in@?$_Iosb@H@std@@2W4_Openmode@12@B 004a5528     chat_dialog.obj
 0002:0000152c       ?out@?$_Iosb@H@std@@2W4_Openmode@12@B 004a552c     chat_dialog.obj
 0002:00001530       ?ate@?$_Iosb@H@std@@2W4_Openmode@12@B 004a5530     chat_dialog.obj
 0002:00001534       ?app@?$_Iosb@H@std@@2W4_Openmode@12@B 004a5534     chat_dialog.obj
 0002:00001538       ?trunc@?$_Iosb@H@std@@2W4_Openmode@12@B 004a5538     chat_dialog.obj
 0002:0000153c       ?_Nocreate@?$_Iosb@H@std@@2W4_Openmode@12@B 004a553c     chat_dialog.obj
 0002:00001540       ?_Noreplace@?$_Iosb@H@std@@2W4_Openmode@12@B 004a5540     chat_dialog.obj
 0002:00001544       ?binary@?$_Iosb@H@std@@2W4_Openmode@12@B 004a5544     chat_dialog.obj
 0002:00001548       ?beg@?$_Iosb@H@std@@2W4_Seekdir@12@B 004a5548     chat_dialog.obj
 0002:0000154c       ?cur@?$_Iosb@H@std@@2W4_Seekdir@12@B 004a554c     chat_dialog.obj
 0002:00001550       ?end@?$_Iosb@H@std@@2W4_Seekdir@12@B 004a5550     chat_dialog.obj
 0002:00001558       ??_7ChatDialog@@6B@        004a5558     chat_dialog.obj
 0002:00001574       ??_7ChatDialog@@6BIDialogBuilderCallback@DuiLib@@@ 004a5574     chat_dialog.obj
 0002:00001580       ??_7ChatDialog@@6BIMessageFilterUI@DuiLib@@@ 004a5580     chat_dialog.obj
 0002:0000158c       ??_7ChatDialog@@6BINotifyUI@DuiLib@@@ 004a558c     chat_dialog.obj
 0002:0000159c       ??_7ChatDialog@@6BCWindowWnd@DuiLib@@@ 004a559c     chat_dialog.obj
 0002:00001624       ?npos@?$basic_string@DU?$char_traits@D@std@@V?$allocator@D@2@@std@@2IB 004a5624     chat_dialog.obj
 0002:0000162c       ??_7?$ReceiverImpl@HUSkinChangedParam@@@@6B@ 004a562c     chat_dialog.obj
 0002:00001648       ??_7?$ReceiverImplBase@HUSkinChangedParam@@@@6B@ 004a5648     chat_dialog.obj
 0002:0000165c       ??_C@_1DC@POOIKBAO@?$AAI?$AAT?$AAE?$AAR?$AAA?$AAT?$AAO?$AAR?$AA?5?$AAL?$AAI?$AAS?$AAT?$AA?5?$AAC?$AAO?$AAR?$AAR?$AAU?$AAP?$AAT?$AAE?$AAD?$AA?$CB?$AA?$AA@ 004a565c     chat_dialog.obj
 0002:00001698       ??_C@_1IE@PHGAPAJD@?$AAC?$AA?3?$AA?2?$AAP?$AAr?$AAo?$AAg?$AAr?$AAa?$AAm?$AA?5?$AAF?$AAi?$AAl?$AAe?$AAs?$AA?2?$AAM?$AAi?$AAc?$AAr?$AAo?$AAs?$AAo?$AAf?$AAt?$AA?5?$AAV?$AAi?$AAs?$AAu?$AAa@ 004a5698     chat_dialog.obj
 0002:00001738       ??_C@_1IC@EGFKLHI@?$AAC?$AA?3?$AA?2?$AAP?$AAr?$AAo?$AAg?$AAr?$AAa?$AAm?$AA?5?$AAF?$AAi?$AAl?$AAe?$AAs?$AA?2?$AAM?$AAi?$AAc?$AAr?$AAo?$AAs?$AAo?$AAf?$AAt?$AA?5?$AAV?$AAi?$AAs?$AAu?$AAa@ 004a5738     chat_dialog.obj
 0002:000017d4       ??_C@_0BI@CFPLBAOH@invalid?5string?5position?$AA@ 004a57d4     chat_dialog.obj
 0002:000017f0       ??_C@_1BO@MEPPHOO@?$AA?$CC?$AAo?$AAu?$AAt?$AA?5?$AAo?$AAf?$AA?5?$AAr?$AAa?$AAn?$AAg?$AAe?$AA?$CC?$AA?$AA@ 004a57f0     chat_dialog.obj
 0002:00001818       ??_C@_1CCK@FMKDKNKA@?$AAs?$AAt?$AAd?$AA?3?$AA?3?$AA_?$AAT?$AAr?$AAe?$AAe?$AA_?$AAc?$AAo?$AAn?$AAs?$AAt?$AA_?$AAi?$AAt?$AAe?$AAr?$AAa?$AAt?$AAo?$AAr?$AA?$DM?$AAc?$AAl?$AAa?$AAs?$AAs?$AA?5@ 004a5818     chat_dialog.obj
 0002:00001ab0       ??_C@_1FG@IBPIFFN@?$AA?$CC?$AAS?$AAt?$AAa?$AAn?$AAd?$AAa?$AAr?$AAd?$AA?5?$AAC?$AA?$CL?$AA?$CL?$AA?5?$AAL?$AAi?$AAb?$AAr?$AAa?$AAr?$AAi?$AAe?$AAs?$AA?5?$AAO?$AAu?$AAt?$AA?5?$AAo?$AAf?$AA?5?$AAR@ 004a5ab0     chat_dialog.obj
 0002:00001b18       ??_C@_0CE@OFMIGAMM@Standard?5C?$CL?$CL?5Libraries?5Out?5of?5Ra@ 004a5b18     chat_dialog.obj
 0002:00001b48       ??_C@_1EG@EHJFMBHJ@?$AAm?$AAa?$AAp?$AA?1?$AAs?$AAe?$AAt?$AA?5?$AAi?$AAt?$AAe?$AAr?$AAa?$AAt?$AAo?$AAr?$AA?5?$AAn?$AAo?$AAt?$AA?5?$AAi?$AAn?$AAc?$AAr?$AAe?$AAm?$AAe?$AAn?$AAt?$AAa?$AAb@ 004a5b48     chat_dialog.obj
 0002:00001ba0       ??_C@_1HO@BOAEEDMD@?$AAC?$AA?3?$AA?2?$AAP?$AAr?$AAo?$AAg?$AAr?$AAa?$AAm?$AA?5?$AAF?$AAi?$AAl?$AAe?$AAs?$AA?2?$AAM?$AAi?$AAc?$AAr?$AAo?$AAs?$AAo?$AAf?$AAt?$AA?5?$AAV?$AAi?$AAs?$AAu?$AAa@ 004a5ba0     chat_dialog.obj
 0002:00001c38       ??_C@_1CG@JNLFBNGN@?$AA?$CC?$AAi?$AAn?$AAv?$AAa?$AAl?$AAi?$AAd?$AA?5?$AAa?$AAr?$AAg?$AAu?$AAm?$AAe?$AAn?$AAt?$AA?$CC?$AA?$AA@ 004a5c38     chat_dialog.obj
 0002:00001c68       ??_C@_1CCK@PMFOEEGF@?$AAs?$AAt?$AAd?$AA?3?$AA?3?$AA_?$AAT?$AAr?$AAe?$AAe?$AA_?$AAc?$AAo?$AAn?$AAs?$AAt?$AA_?$AAi?$AAt?$AAe?$AAr?$AAa?$AAt?$AAo?$AAr?$AA?$DM?$AAc?$AAl?$AAa?$AAs?$AAs?$AA?5@ 004a5c68     chat_dialog.obj
 0002:00001f00       ??_C@_1FO@GJIHNDLM@?$AA?$CC?$AAS?$AAt?$AAa?$AAn?$AAd?$AAa?$AAr?$AAd?$AA?5?$AAC?$AA?$CL?$AA?$CL?$AA?5?$AAL?$AAi?$AAb?$AAr?$AAa?$AAr?$AAi?$AAe?$AAs?$AA?5?$AAI?$AAn?$AAv?$AAa?$AAl?$AAi?$AAd?$AA?5@ 004a5f00     chat_dialog.obj
 0002:00001f70       ??_C@_0CI@FNPHFCCM@Standard?5C?$CL?$CL?5Libraries?5Invalid?5A@ 004a5f70     chat_dialog.obj
 0002:00001fa0       ??_C@_1DO@CFEEPGGJ@?$AAm?$AAa?$AAp?$AA?1?$AAs?$AAe?$AAt?$AA?5?$AAi?$AAt?$AAe?$AAr?$AAa?$AAt?$AAo?$AAr?$AAs?$AA?5?$AAi?$AAn?$AAc?$AAo?$AAm?$AAp?$AAa?$AAt?$AAi?$AAb?$AAl?$AAe?$AA?$AA@ 004a5fa0     chat_dialog.obj
 0002:00001fec       ??_C@_0BA@JFNIOLAK@string?5too?5long?$AA@ 004a5fec     chat_dialog.obj
 0002:00002000       ??_C@_1CCI@NDBCHLJG@?$AAs?$AAt?$AAd?$AA?3?$AA?3?$AA_?$AAT?$AAr?$AAe?$AAe?$AA_?$AAc?$AAo?$AAn?$AAs?$AAt?$AA_?$AAi?$AAt?$AAe?$AAr?$AAa?$AAt?$AAo?$AAr?$AA?$DM?$AAc?$AAl?$AAa?$AAs?$AAs?$AA?5@ 004a6000     chat_dialog.obj
 0002:00002298       ??_C@_1EI@FHEHNNNM@?$AAm?$AAa?$AAp?$AA?1?$AAs?$AAe?$AAt?$AA?5?$AAi?$AAt?$AAe?$AAr?$AAa?$AAt?$AAo?$AAr?$AA?5?$AAn?$AAo?$AAt?$AA?5?$AAd?$AAe?$AAr?$AAe?$AAf?$AAe?$AAr?$AAe?$AAn?$AAc?$AAa@ 004a6298     chat_dialog.obj
 0002:000022f0       ??_C@_1EK@PPDBPCAN@?$AAm?$AAa?$AAp?$AA?1?$AAs?$AAe?$AAt?$AA?5?$AAe?$AAr?$AAa?$AAs?$AAe?$AA?5?$AAi?$AAt?$AAe?$AAr?$AAa?$AAt?$AAo?$AAr?$AA?5?$AAo?$AAu?$AAt?$AAs?$AAi?$AAd?$AAe?$AA?5?$AAr@ 004a62f0     chat_dialog.obj
 0002:00002348       ??_C@_1CK@EOPGIILJ@?$AAi?$AAn?$AAv?$AAa?$AAl?$AAi?$AAd?$AA?5?$AAn?$AAu?$AAl?$AAl?$AA?5?$AAp?$AAo?$AAi?$AAn?$AAt?$AAe?$AAr?$AA?$AA@ 004a6348     chat_dialog.obj
 0002:00002380       ??_7bad_alloc@std@@6B@     004a6380     chat_dialog.obj
 0002:0000238c       ??_C@_1CE@IGJMOCCK@?$AAi?$AAn?$AAv?$AAa?$AAl?$AAi?$AAd?$AA?5?$AAo?$AAp?$AAe?$AAr?$AAa?$AAt?$AAo?$AAr?$AA?$DM?$AA?$AA@ 004a638c     chat_dialog.obj
 0002:000023b8       ??_C@_1EM@MHOKKPFH@?$AAm?$AAa?$AAp?$AA?1?$AAs?$AAe?$AAt?$AA?5?$AAi?$AAn?$AAs?$AAe?$AAr?$AAt?$AA?5?$AAi?$AAt?$AAe?$AAr?$AAa?$AAt?$AAo?$AAr?$AA?5?$AAo?$AAu?$AAt?$AAs?$AAi?$AAd?$AAe?$AA?5@ 004a63b8     chat_dialog.obj
 0002:00002414       ??_C@_0BE@JONHPENG@map?1set?$DMT?$DO?5too?5long?$AA@ 004a6414     chat_dialog.obj
 0002:00002430       ??_C@_1CCK@KPJBBBGB@?$AAs?$AAt?$AAd?$AA?3?$AA?3?$AA_?$AAT?$AAr?$AAe?$AAe?$AA_?$AAc?$AAo?$AAn?$AAs?$AAt?$AA_?$AAi?$AAt?$AAe?$AAr?$AAa?$AAt?$AAo?$AAr?$AA?$DM?$AAc?$AAl?$AAa?$AAs?$AAs?$AA?5@ 004a6430     chat_dialog.obj
 0002:000026c8       ??_C@_1EG@OKCGOALM@?$AAm?$AAa?$AAp?$AA?1?$AAs?$AAe?$AAt?$AA?5?$AAi?$AAt?$AAe?$AAr?$AAa?$AAt?$AAo?$AAr?$AA?5?$AAn?$AAo?$AAt?$AA?5?$AAd?$AAe?$AAc?$AAr?$AAe?$AAm?$AAe?$AAn?$AAt?$AAa?$AAb@ 004a66c8     chat_dialog.obj
 0002:000027c8       ??_7CColorPicker@@6BIDialogBuilderCallback@DuiLib@@@ 004a67c8     ColorPicker.obj
 0002:000027d4       ??_7CColorPicker@@6BIMessageFilterUI@DuiLib@@@ 004a67d4     ColorPicker.obj
 0002:000027e0       ??_7CColorPicker@@6BINotifyUI@DuiLib@@@ 004a67e0     ColorPicker.obj
 0002:000027ec       ??_7CColorPicker@@6BCWindowWnd@DuiLib@@@ 004a67ec     ColorPicker.obj
 0002:0000287c       ??_SCControlUI@DuiLib@@6B@ 004a687c     ColorPicker.obj
 0002:000029ec       ??_SCButtonUI@DuiLib@@6B@  004a69ec     ColorPicker.obj
 0002:00002b5c       ??_SCHorizontalLayoutUI@DuiLib@@6BCControlUI@1@@ 004a6b5c     ColorPicker.obj
 0002:0000439c       ?_Min@?$AtlLimits@H@ATL@@2HB 004a839c     main.obj
 0002:000043a0       ?_Max@?$AtlLimits@H@ATL@@2HB 004a83a0     main.obj
 0002:000043a4       ?_Min@?$AtlLimits@I@ATL@@2IB 004a83a4     main.obj
 0002:000043a8       ?_Max@?$AtlLimits@I@ATL@@2IB 004a83a8     main.obj
 0002:000043ac       ?_Min@?$AtlLimits@J@ATL@@2JB 004a83ac     main.obj
 0002:000043b0       ?_Max@?$AtlLimits@J@ATL@@2JB 004a83b0     main.obj
 0002:000043b4       ?_Min@?$AtlLimits@K@ATL@@2KB 004a83b4     main.obj
 0002:000043b8       ?_Max@?$AtlLimits@K@ATL@@2KB 004a83b8     main.obj
 0002:000043c0       ?_Min@?$AtlLimits@_J@ATL@@2_JB 004a83c0     main.obj
 0002:000043d0       ?_Max@?$AtlLimits@_J@ATL@@2_JB 004a83d0     main.obj
 0002:000043e0       ?_Min@?$AtlLimits@_K@ATL@@2_KB 004a83e0     main.obj
 0002:000043f0       ?_Max@?$AtlLimits@_K@ATL@@2_KB 004a83f0     main.obj
 0002:000043fc       ?VT@?$CVarTypeInfo@D@ATL@@2GB 004a83fc     main.obj
 0002:00004400       ?pmField@?$CVarTypeInfo@D@ATL@@2QQtagVARIANT@@DQ3@ 004a8400     main.obj
 0002:00004404       ?VT@?$CVarTypeInfo@E@ATL@@2GB 004a8404     main.obj
 0002:00004408       ?pmField@?$CVarTypeInfo@E@ATL@@2QQtagVARIANT@@EQ3@ 004a8408     main.obj
 0002:0000440c       ?VT@?$CVarTypeInfo@PAD@ATL@@2GB 004a840c     main.obj
 0002:00004410       ?pmField@?$CVarTypeInfo@PAD@ATL@@2QQtagVARIANT@@PADQ3@ 004a8410     main.obj
 0002:00004414       ?VT@?$CVarTypeInfo@PAE@ATL@@2GB 004a8414     main.obj
 0002:00004418       ?pmField@?$CVarTypeInfo@PAE@ATL@@2QQtagVARIANT@@PAEQ3@ 004a8418     main.obj
 0002:0000441c       ?VT@?$CVarTypeInfo@F@ATL@@2GB 004a841c     main.obj
 0002:00004420       ?pmField@?$CVarTypeInfo@F@ATL@@2QQtagVARIANT@@FQ3@ 004a8420     main.obj
 0002:00004424       ?VT@?$CVarTypeInfo@PAF@ATL@@2GB 004a8424     main.obj
 0002:00004428       ?pmField@?$CVarTypeInfo@PAF@ATL@@2QQtagVARIANT@@PAFQ3@ 004a8428     main.obj
 0002:0000442c       ?VT@?$CVarTypeInfo@G@ATL@@2GB 004a842c     main.obj
 0002:00004430       ?pmField@?$CVarTypeInfo@G@ATL@@2QQtagVARIANT@@GQ3@ 004a8430     main.obj
 0002:00004434       ?VT@?$CVarTypeInfo@PAG@ATL@@2GB 004a8434     main.obj
 0002:00004438       ?pmField@?$CVarTypeInfo@PAG@ATL@@2QQtagVARIANT@@PAGQ3@ 004a8438     main.obj
 0002:0000443c       ?VT@?$CVarTypeInfo@H@ATL@@2GB 004a843c     main.obj
 0002:00004440       ?pmField@?$CVarTypeInfo@H@ATL@@2QQtagVARIANT@@HQ3@ 004a8440     main.obj
 0002:00004444       ?VT@?$CVarTypeInfo@PAH@ATL@@2GB 004a8444     main.obj
 0002:00004448       ?pmField@?$CVarTypeInfo@PAH@ATL@@2QQtagVARIANT@@PAHQ3@ 004a8448     main.obj
 0002:0000444c       ?VT@?$CVarTypeInfo@I@ATL@@2GB 004a844c     main.obj
 0002:00004450       ?pmField@?$CVarTypeInfo@I@ATL@@2QQtagVARIANT@@IQ3@ 004a8450     main.obj
 0002:00004454       ?VT@?$CVarTypeInfo@PAI@ATL@@2GB 004a8454     main.obj
 0002:00004458       ?pmField@?$CVarTypeInfo@PAI@ATL@@2QQtagVARIANT@@PAIQ3@ 004a8458     main.obj
 0002:0000445c       ?VT@?$CVarTypeInfo@J@ATL@@2GB 004a845c     main.obj
 0002:00004460       ?pmField@?$CVarTypeInfo@J@ATL@@2QQtagVARIANT@@JQ3@ 004a8460     main.obj
 0002:00004464       ?VT@?$CVarTypeInfo@PAJ@ATL@@2GB 004a8464     main.obj
 0002:00004468       ?pmField@?$CVarTypeInfo@PAJ@ATL@@2QQtagVARIANT@@PAJQ3@ 004a8468     main.obj
 0002:0000446c       ?VT@?$CVarTypeInfo@K@ATL@@2GB 004a846c     main.obj
 0002:00004470       ?pmField@?$CVarTypeInfo@K@ATL@@2QQtagVARIANT@@KQ3@ 004a8470     main.obj
 0002:00004474       ?VT@?$CVarTypeInfo@PAK@ATL@@2GB 004a8474     main.obj
 0002:00004478       ?pmField@?$CVarTypeInfo@PAK@ATL@@2QQtagVARIANT@@PAKQ3@ 004a8478     main.obj
 0002:0000447c       ?VT@?$CVarTypeInfo@_J@ATL@@2GB 004a847c     main.obj
 0002:00004480       ?pmField@?$CVarTypeInfo@_J@ATL@@2QQtagVARIANT@@_JQ3@ 004a8480     main.obj
 0002:00004484       ?VT@?$CVarTypeInfo@PA_J@ATL@@2GB 004a8484     main.obj
 0002:00004488       ?pmField@?$CVarTypeInfo@PA_J@ATL@@2QQtagVARIANT@@PA_JQ3@ 004a8488     main.obj
 0002:0000448c       ?VT@?$CVarTypeInfo@_K@ATL@@2GB 004a848c     main.obj
 0002:00004490       ?pmField@?$CVarTypeInfo@_K@ATL@@2QQtagVARIANT@@_KQ3@ 004a8490     main.obj
 0002:00004494       ?VT@?$CVarTypeInfo@PA_K@ATL@@2GB 004a8494     main.obj
 0002:00004498       ?pmField@?$CVarTypeInfo@PA_K@ATL@@2QQtagVARIANT@@PA_KQ3@ 004a8498     main.obj
 0002:0000449c       ?VT@?$CVarTypeInfo@M@ATL@@2GB 004a849c     main.obj
 0002:000044a0       ?pmField@?$CVarTypeInfo@M@ATL@@2QQtagVARIANT@@MQ3@ 004a84a0     main.obj
 0002:000044a4       ?VT@?$CVarTypeInfo@PAM@ATL@@2GB 004a84a4     main.obj
 0002:000044a8       ?pmField@?$CVarTypeInfo@PAM@ATL@@2QQtagVARIANT@@PAMQ3@ 004a84a8     main.obj
 0002:000044ac       ?VT@?$CVarTypeInfo@N@ATL@@2GB 004a84ac     main.obj
 0002:000044b0       ?pmField@?$CVarTypeInfo@N@ATL@@2QQtagVARIANT@@NQ3@ 004a84b0     main.obj
 0002:000044b4       ?VT@?$CVarTypeInfo@PAN@ATL@@2GB 004a84b4     main.obj
 0002:000044b8       ?pmField@?$CVarTypeInfo@PAN@ATL@@2QQtagVARIANT@@PANQ3@ 004a84b8     main.obj
 0002:000044bc       ?VT@?$CVarTypeInfo@PAUtagVARIANT@@@ATL@@2GB 004a84bc     main.obj
 0002:000044c0       ?VT@?$CVarTypeInfo@PA_W@ATL@@2GB 004a84c0     main.obj
 0002:000044c4       ?pmField@?$CVarTypeInfo@PA_W@ATL@@2QQtagVARIANT@@PA_WQ3@ 004a84c4     main.obj
 0002:000044c8       ?VT@?$CVarTypeInfo@PAPA_W@ATL@@2GB 004a84c8     main.obj
 0002:000044cc       ?pmField@?$CVarTypeInfo@PAPA_W@ATL@@2QQtagVARIANT@@PAPA_WQ3@ 004a84cc     main.obj
 0002:000044d0       ?VT@?$CVarTypeInfo@PAUIUnknown@@@ATL@@2GB 004a84d0     main.obj
 0002:000044d4       ?pmField@?$CVarTypeInfo@PAUIUnknown@@@ATL@@2QQtagVARIANT@@PAUIUnknown@@Q3@ 004a84d4     main.obj
 0002:000044d8       ?VT@?$CVarTypeInfo@PAPAUIUnknown@@@ATL@@2GB 004a84d8     main.obj
 0002:000044dc       ?pmField@?$CVarTypeInfo@PAPAUIUnknown@@@ATL@@2QQtagVARIANT@@PAPAUIUnknown@@Q3@ 004a84dc     main.obj
 0002:000044e0       ?VT@?$CVarTypeInfo@PAUIDispatch@@@ATL@@2GB 004a84e0     main.obj
 0002:000044e4       ?pmField@?$CVarTypeInfo@PAUIDispatch@@@ATL@@2QQtagVARIANT@@PAUIDispatch@@Q3@ 004a84e4     main.obj
 0002:000044e8       ?VT@?$CVarTypeInfo@PAPAUIDispatch@@@ATL@@2GB 004a84e8     main.obj
 0002:000044ec       ?pmField@?$CVarTypeInfo@PAPAUIDispatch@@@ATL@@2QQtagVARIANT@@PAPAUIDispatch@@Q3@ 004a84ec     main.obj
 0002:000044f0       ?VT@?$CVarTypeInfo@TtagCY@@@ATL@@2GB 004a84f0     main.obj
 0002:000044f4       ?pmField@?$CVarTypeInfo@TtagCY@@@ATL@@2QQtagVARIANT@@TtagCY@@Q3@ 004a84f4     main.obj
 0002:000044f8       ?VT@?$CVarTypeInfo@PATtagCY@@@ATL@@2GB 004a84f8     main.obj
 0002:000044fc       ?pmField@?$CVarTypeInfo@PATtagCY@@@ATL@@2QQtagVARIANT@@PATtagCY@@Q3@ 004a84fc     main.obj
 0002:00004500       _LIBID_ATLLib              004a8500     main.obj
 0002:00004514       _CLSID_Registrar           004a8514     main.obj
 0002:00004528       _IID_IRegistrar            004a8528     main.obj
 0002:0000453c       _IID_IAxWinHostWindow      004a853c     main.obj
 0002:00004550       _IID_IAxWinAmbientDispatch 004a8550     main.obj
 0002:00004564       _IID_IInternalConnection   004a8564     main.obj
 0002:00004578       _IID_IDocHostUIHandlerDispatch 004a8578     main.obj
 0002:0000458c       _IID_IAxWinHostWindowLic   004a858c     main.obj
 0002:000045a0       _IID_IAxWinAmbientDispatchEx 004a85a0     main.obj
 0002:000045b4       ?MAX_VALUE@CRegParser@ATL@@1HB 004a85b4     main.obj
 0002:000045b8       ?MAX_TYPE@CRegParser@ATL@@1HB 004a85b8     main.obj
 0002:000045bc       ?rgszNeverDelete@CRegParser@ATL@@1QBQBDB 004a85bc     main.obj
 0002:000045f8       ?cbNeverDelete@CRegParser@ATL@@1HB 004a85f8     main.obj
 0002:00004600       ??_C@_1JM@MOBJCFLG@?$AAC?$AA?3?$AA?2?$AAP?$AAr?$AAo?$AAg?$AAr?$AAa?$AAm?$AA?5?$AAF?$AAi?$AAl?$AAe?$AAs?$AA?2?$AAM?$AAi?$AAc?$AAr?$AAo?$AAs?$AAo?$AAf?$AAt?$AA?5?$AAV?$AAi?$AAs?$AAu?$AAa@ 004a8600     main.obj
 0002:000046c0       ??_C@_1EA@JHMKKLFC@?$AAn?$AAI?$AAn?$AAd?$AAe?$AAx?$AA?5?$AA?$DO?$AA?$DN?$AA?5?$AA0?$AA?5?$AA?$CG?$AA?$CG?$AA?5?$AAn?$AAI?$AAn?$AAd?$AAe?$AAx?$AA?5?$AA?$DM?$AA?5?$AAm?$AA_?$AAn?$AAS?$AAi?$AAz?$AAe?$AA?$AA@ 004a86c0     main.obj
 0002:00004710       ??_7Thank_you@Define_the_symbol__ATL_MIXED@@6B@ 004a8710     main.obj
 0002:00004718       ??_C@_1JE@DAFEIBM@?$AAC?$AA?3?$AA?2?$AAP?$AAr?$AAo?$AAg?$AAr?$AAa?$AAm?$AA?5?$AAF?$AAi?$AAl?$AAe?$AAs?$AA?2?$AAM?$AAi?$AAc?$AAr?$AAo?$AAs?$AAo?$AAf?$AAt?$AA?5?$AAV?$AAi?$AAs?$AAu?$AAa@ 004a8718     main.obj
 0002:000047cc       ??_C@_1BM@NFPICFEL@?$AA_?$AAp?$AAM?$AAo?$AAd?$AAu?$AAl?$AAe?$AA?5?$AA?$DN?$AA?$DN?$AA?5?$AA0?$AA?$AA@ 004a87cc     main.obj
 0002:000047f4       ??_7CComModule@ATL@@6B@    004a87f4     main.obj
 0002:00004824       ??_C@_1BI@JBLBCKD@?$AAm?$AA_?$AAp?$AAG?$AAI?$AAT?$AA?5?$AA?$CB?$AA?$DN?$AA?5?$AA0?$AA?$AA@ 004a8824     main.obj
 0002:00004840       __GUID_00000146_0000_0000_c000_000000000046 004a8840     main.obj
 0002:00004854       ??_C@_1BG@LENCCAOJ@?$AAp?$AAp?$AAG?$AAI?$AAT?$AA?5?$AA?$CB?$AA?$DN?$AA?5?$AA0?$AA?$AA@ 004a8854     main.obj
 0002:00004870       ??_C@_1BC@KAILKFFG@?$AAR?$AAE?$AAG?$AAI?$AAS?$AAT?$AAR?$AAY?$AA?$AA@ 004a8870     main.obj
 0002:00004888       ??_C@_1BG@JBACFMF@?$AAM?$AAo?$AAd?$AAu?$AAl?$AAe?$AA_?$AAR?$AAa?$AAw?$AA?$AA@ 004a8888     main.obj
 0002:000048a4       ??_C@_1O@MNLDABAF@?$AAM?$AAo?$AAd?$AAu?$AAl?$AAe?$AA?$AA@ 004a88a4     main.obj
 0002:000048b4       ??_C@_1DC@HEJCCJC@?$AA0?$AA?5?$AA?$CB?$AA?$DN?$AA?5?$AAp?$AAM?$AAa?$AAp?$AAE?$AAn?$AAt?$AAr?$AAi?$AAe?$AAs?$AA?9?$AA?$DO?$AAs?$AAz?$AAD?$AAa?$AAt?$AAa?$AA?$AA@ 004a88b4     main.obj
 0002:000048f0       ??_C@_1JG@PMOHFALG@?$AAC?$AA?3?$AA?2?$AAP?$AAr?$AAo?$AAg?$AAr?$AAa?$AAm?$AA?5?$AAF?$AAi?$AAl?$AAe?$AAs?$AA?2?$AAM?$AAi?$AAc?$AAr?$AAo?$AAs?$AAo?$AAf?$AAt?$AA?5?$AAV?$AAi?$AAs?$AAu?$AAa@ 004a88f0     main.obj
 0002:000049a4       ??_C@_13COJANIEC@?$AA0?$AA?$AA@ 004a89a4     main.obj
 0002:000049a8       ??_C@_1BC@GCPDCDFJ@?$AAl?$AAp?$AAw?$AA?5?$AA?$CB?$AA?$DN?$AA?5?$AA0?$AA?$AA@ 004a89a8     main.obj
 0002:000049c0       ??_C@_1JE@FHFPEGOE@?$AAC?$AA?3?$AA?2?$AAP?$AAr?$AAo?$AAg?$AAr?$AAa?$AAm?$AA?5?$AAF?$AAi?$AAl?$AAe?$AAs?$AA?2?$AAM?$AAi?$AAc?$AAr?$AAo?$AAs?$AAo?$AAf?$AAt?$AA?5?$AAV?$AAi?$AAs?$AAu?$AAa@ 004a89c0     main.obj
 0002:00004a74       ??_C@_1BC@PMIDFEID@?$AAl?$AAp?$AAa?$AA?5?$AA?$CB?$AA?$DN?$AA?5?$AA0?$AA?$AA@ 004a8a74     main.obj
 0002:00004a90       ??_7CRegObject@ATL@@6B@    004a8a90     main.obj
 0002:00004ab0       ??_C@_1JE@KNCEGJOI@?$AAC?$AA?3?$AA?2?$AAP?$AAr?$AAo?$AAg?$AAr?$AAa?$AAm?$AA?5?$AAF?$AAi?$AAl?$AAe?$AAs?$AA?2?$AAM?$AAi?$AAc?$AAr?$AAo?$AAs?$AAo?$AAf?$AAt?$AA?5?$AAV?$AAi?$AAs?$AAu?$AAa@ 004a8ab0     main.obj
 0002:00004b68       ??_C@_1KA@DCHELMLM@?$AA?$CC?$AAs?$AAt?$AAa?$AAt?$AAi?$AAc?$AAa?$AAl?$AAl?$AAy?$AA?5?$AAl?$AAi?$AAn?$AAk?$AAe?$AAd?$AA?5?$AAi?$AAn?$AA?5?$AAC?$AAR?$AAe?$AAg?$AAO?$AAb?$AAj?$AAe?$AAc?$AAt@ 004a8b68     main.obj
 0002:00004c28       ??_C@_0EO@FOFJGMBM@statically?5linked?5in?5CRegObject?5@ 004a8c28     main.obj
 0002:00004c88       ??_C@_1JE@JIPJBBEK@?$AAC?$AA?3?$AA?2?$AAP?$AAr?$AAo?$AAg?$AAr?$AAa?$AAm?$AA?5?$AAF?$AAi?$AAl?$AAe?$AAs?$AA?2?$AAM?$AAi?$AAc?$AAr?$AAo?$AAs?$AAo?$AAf?$AAt?$AA?5?$AAV?$AAi?$AAs?$AAu?$AAa@ 004a8c88     main.obj
 0002:00004d3c       ??_C@_1CA@MNJCDMEH@?$AA?$CB?$AAm?$AA_?$AAb?$AAI?$AAn?$AAi?$AAt?$AAi?$AAa?$AAl?$AAi?$AAz?$AAe?$AAd?$AA?$AA@ 004a8d3c     main.obj
 0002:00004d64       ??_C@_1BO@BPPEIPCH@?$AAm?$AA_?$AAb?$AAI?$AAn?$AAi?$AAt?$AAi?$AAa?$AAl?$AAi?$AAz?$AAe?$AAd?$AA?$AA@ 004a8d64     main.obj
 0002:00004d88       ??_C@_1BK@LDPHGFPN@?$AAs?$AAz?$AAV?$AAa?$AAl?$AAu?$AAe?$AA?5?$AA?$CB?$AA?$DN?$AA?5?$AA0?$AA?$AA@ 004a8d88     main.obj
 0002:00004da8       ??_C@_1BG@MMFPEKL@?$AAs?$AAz?$AAK?$AAe?$AAy?$AA?5?$AA?$CB?$AA?$DN?$AA?5?$AA0?$AA?$AA@ 004a8da8     main.obj
 0002:00004dc4       ??_C@_1DO@EIGOLNAA@?$AAl?$AAp?$AAs?$AAz?$AAK?$AAe?$AAy?$AA?5?$AA?$CB?$AA?$DN?$AA?5?$AA0?$AA?5?$AA?$CG?$AA?$CG?$AA?5?$AAl?$AAp?$AAs?$AAz?$AAV?$AAa?$AAl?$AAu?$AAe?$AA?5?$AA?$CB?$AA?$DN?$AA?5?$AA0?$AA?$AA@ 004a8dc4     main.obj
 0002:00004e10       ??_C@_0EM@PBPACHBB@C?3?2Program?5Files?2Microsoft?5Visua@ 004a8e10     main.obj
 0002:00004e6c       ??_C@_0BF@IAAKIJDJ@AtlThrow?3?5hr?5?$DN?50x?$CFx?6?$AA@ 004a8e6c     main.obj
 0002:00004e88       ??_C@_0BI@LNHJMEOP@Failed?5to?5LoadResource?6?$AA@ 004a8e88     main.obj
 0002:00004ea4       ??_C@_0CJ@COPMGFKA@Failed?5to?5FindResource?5on?5ID?3?$CFs?5@ 004a8ea4     main.obj
 0002:00004ed8       ??_C@_0CJ@KJDBLEOI@Failed?5to?5FindResource?5on?5ID?3?$CFd?5@ 004a8ed8     main.obj
 0002:00004f10       ??_C@_0EK@NAFGOJIA@C?3?2Program?5Files?2Microsoft?5Visua@ 004a8f10     main.obj
 0002:00004f68       ??_C@_0BN@HGJLNPOD@Failed?5to?5LoadLibrary?5on?5?$CFs?6?$AA@ 004a8f68     main.obj
 0002:00004f8c       ??_C@_0CC@MOJNOPNN@Failed?5to?5register?0?5cleaning?5up?$CB@ 004a8f8c     main.obj
 0002:00004fb4       ??_C@_0CJ@JJEGIHLG@Syntax?5error?0?5expecting?5a?5?$HL?0?5fou@ 004a8fb4     main.obj
 0002:00004fe8       ??_C@_0BN@HJIJAHEL@HKeyFromString?5failed?5on?5?$CFs?6?$AA@ 004a8fe8     main.obj
 0002:0000500c       ??_C@_03OFAPEBGM@?$CFs?6?$AA@ 004a900c     main.obj
 0002:00005010       ?map@?1??HKeyFromString@CRegParser@ATL@@KAPAUHKEY__@@PAD@Z@4QBUkeymap@?1??123@KAPAU4@0@Z@B 004a9010     main.obj
 0002:00005098       ??_C@_04OHBKMIBJ@HKCR?$AA@ 004a9098     main.obj
 0002:000050a0       ??_C@_04KIFLFONO@HKCU?$AA@ 004a90a0     main.obj
 0002:000050a8       ??_C@_04CBBMIBLK@HKLM?$AA@ 004a90a8     main.obj
 0002:000050b0       ??_C@_03DLBIJLAB@HKU?$AA@  004a90b0     main.obj
 0002:000050b4       ??_C@_04OFOCGAOH@HKPD?$AA@ 004a90b4     main.obj
 0002:000050bc       ??_C@_04POMNGLEL@HKDD?$AA@ 004a90bc     main.obj
 0002:000050c4       ??_C@_04LEMDOLAJ@HKCC?$AA@ 004a90c4     main.obj
 0002:000050cc       ??_C@_0BC@JBJOLKMF@HKEY_CLASSES_ROOT?$AA@ 004a90cc     main.obj
 0002:000050e4       ??_C@_0BC@GMMMKLBI@HKEY_CURRENT_USER?$AA@ 004a90e4     main.obj
 0002:000050fc       ??_C@_0BD@GIIFIKDM@HKEY_LOCAL_MACHINE?$AA@ 004a90fc     main.obj
 0002:00005114       ??_C@_0L@OEMMANAM@HKEY_USERS?$AA@ 004a9114     main.obj
 0002:00005124       ??_C@_0BG@IDBEHNDO@HKEY_PERFORMANCE_DATA?$AA@ 004a9124     main.obj
 0002:00005140       ??_C@_0O@MJDLIIGK@HKEY_DYN_DATA?$AA@ 004a9140     main.obj
 0002:00005150       ??_C@_0BE@NLNNHLLF@HKEY_CURRENT_CONFIG?$AA@ 004a9150     main.obj
 0002:00005168       ??_C@_0CE@HPLFHOFC@NextToken?5?3?5Unexpected?5End?5of?5Fi@ 004a9168     main.obj
 0002:00005194       ??_C@_0BL@HDJEDLOC@Error?5no?5closing?5?$CF?$CF?5found?6?$AA@ 004a9194     main.obj
 0002:000051b4       ??_C@_1BE@LJOLIMEM@?$AA?$AN?$AA?6?$AA?7?$AA?$HN?$AA?$AN?$AA?6?$AA?$HN?$AA?$AN?$AA?6?$AA?$AA@ 004a91b4     main.obj
 0002:000051d0       ??_C@_1EA@NHKLICFA@?$AAH?$AAK?$AAC?$AAU?$AA?$AN?$AA?6?$AA?$HL?$AA?7?$AAS?$AAo?$AAf?$AAt?$AAw?$AAa?$AAr?$AAe?$AA?$AN?$AA?6?$AA?7?$AA?$HL?$AA?$AN?$AA?6?$AA?7?$AA?7?$AAC?$AAl?$AAa?$AAs?$AAs?$AAe?$AAs?$AA?$AA@ 004a91d0     main.obj
 0002:0000521c       ??_C@_1BK@DGLFCBHI@?$AAp?$AAp?$AAs?$AAz?$AAR?$AAe?$AAg?$AA?5?$AA?$CB?$AA?$DN?$AA?5?$AA0?$AA?$AA@ 004a921c     main.obj
 0002:0000523c       ??_C@_1BK@ODFKMBGC@?$AAl?$AAp?$AAs?$AAz?$AAR?$AAe?$AAg?$AA?5?$AA?$CB?$AA?$DN?$AA?5?$AA0?$AA?$AA@ 004a923c     main.obj
 0002:0000525c       ??_C@_1O@JFMKDNFA@?$AAp?$AA?5?$AA?$CB?$AA?$DN?$AA?5?$AA0?$AA?$AA@ 004a925c     main.obj
 0002:0000526c       ??_C@_0BF@KHDDAOIJ@Map?5Entry?5not?5found?6?$AA@ 004a926c     main.obj
 0002:00005288       ??_C@_0BB@FDAMNOMP@Deleting?5Key?5?$CFs?6?$AA@ 004a9288     main.obj
 0002:0000529c       ??_C@_0CH@OEJDLABI@Deleting?5non?9empty?5subkey?5?$CFs?5by?5@ 004a929c     main.obj
 0002:000052cc       ??_C@_0BG@OEFMOOAA@Ending?5Recovery?5Mode?6?$AA@ 004a92cc     main.obj
 0002:000052e8       ??_C@_0CM@LEFFDKCG@Ignoring?5Open?5key?5on?5?$CFs?5?3?5In?5Rec@ 004a92e8     main.obj
 0002:0000531c       ??_C@_0P@IONAJCEO@Opened?5Key?5?$CFs?6?$AA@ 004a931c     main.obj
 0002:00005330       ??_C@_0BB@POOIJOEN@Creating?5key?5?$CFs?6?$AA@ 004a9330     main.obj
 0002:00005344       ??_C@_0N@GKIPNAL@Deleting?5?$CFs?6?$AA@ 004a9344     main.obj
 0002:00005354       ??_C@_0O@EHICPHFJ@Num?5Els?5?$DN?5?$CFd?6?$AA@ 004a9354     main.obj
 0002:00005364       ??_C@_1BI@JPOONHGO@?$AAm?$AA_?$AAh?$AAK?$AAe?$AAy?$AA?5?$AA?$DN?$AA?$DN?$AA?5?$AA0?$AA?$AA@ 004a9364     main.obj
 0002:00005380       ??_C@_0BA@KECIECLD@RegDeleteKeyExA?$AA@ 004a9380     main.obj
 0002:00005394       ??_C@_0N@DOHINHCI@Advapi32?4dll?$AA@ 004a9394     main.obj
 0002:000053a4       ??_C@_1BI@KCHMLGAI@?$AAm?$AA_?$AAh?$AAK?$AAe?$AAy?$AA?5?$AA?$CB?$AA?$DN?$AA?5?$AA0?$AA?$AA@ 004a93a4     main.obj
 0002:000053c0       ??_C@_0BI@GMDDFLLI@RegDeleteKeyTransactedA?$AA@ 004a93c0     main.obj
 0002:000053e0       ??_C@_1LA@NDINOEGN@?$AAC?$AA?3?$AA?2?$AAP?$AAr?$AAo?$AAg?$AAr?$AAa?$AAm?$AA?5?$AAF?$AAi?$AAl?$AAe?$AAs?$AA?2?$AAM?$AAi?$AAc?$AAr?$AAo?$AAs?$AAo?$AAf?$AAt?$AA?5?$AAV?$AAi?$AAs?$AAu?$AAa@ 004a93e0     main.obj
 0002:000054b4       ??_C@_1BO@KNMGNOCJ@?$AAh?$AAA?$AAd?$AAv?$AAA?$AAP?$AAI?$AA3?$AA2?$AA?5?$AA?$CB?$AA?$DN?$AA?5?$AA0?$AA?$AA@ 004a94b4     main.obj
 0002:000054d8       ??_C@_1CA@JAHJEEHI@?$AAh?$AAK?$AAe?$AAy?$AAP?$AAa?$AAr?$AAe?$AAn?$AAt?$AA?5?$AA?$CB?$AA?$DN?$AA?5?$AA0?$AA?$AA@ 004a94d8     main.obj
 0002:00005500       ??_C@_0BI@NBLNJKIN@RegCreateKeyTransactedA?$AA@ 004a9500     main.obj
 0002:0000551c       ??_C@_1BG@OMKLFNDM@?$AAl?$AAR?$AAe?$AAs?$AA?5?$AA?$DN?$AA?$DN?$AA?5?$AA0?$AAL?$AA?$AA@ 004a951c     main.obj
 0002:00005538       ??_C@_0BG@FGMNHMFJ@RegOpenKeyTransactedA?$AA@ 004a9538     main.obj
 0002:00005558       ??_C@_0EK@KMONNOOM@C?3?2Program?5Files?2Microsoft?5Visua@ 004a9558     main.obj
 0002:000055b0       ??_C@_0DP@JOHDIOJH@CRegKey?3?3RecurseDeleteKey?5?3?5Fail@ 004a95b0     main.obj
 0002:000055fc       ??_C@_0CN@BAKOHBFP@Binary?5Data?5does?5not?5fall?5on?5BYT@ 004a95fc     main.obj
 0002:00005634       ??_C@_0BI@NDCHGJG@Setting?5Value?5?$CFd?5at?5?$CFs?6?$AA@ 004a9634     main.obj
 0002:00005650       ??_C@_0BI@MFJDFJCO@Setting?5Value?5?$CFs?5at?5?$CFs?6?$AA@ 004a9650     main.obj
 0002:0000566c       ??_C@_07DLHCIBDH@default?$AA@ 004a966c     main.obj
 0002:00005678       ??_C@_0BH@IHOFLOMJ@?$CFs?5Type?5not?5supported?6?$AA@ 004a9678     main.obj
 0002:00005698       ??_C@_1EO@OGKOBPLN@?$AA?$CI?$AAd?$AAw?$AAT?$AAy?$AAp?$AAe?$AA?5?$AA?$DN?$AA?$DN?$AA?5?$AA?$CI?$AA?5?$AA1?$AA?5?$AA?$CJ?$AA?$CJ?$AA?5?$AA?$HM?$AA?$HM?$AA?5?$AA?$CI?$AAd?$AAw?$AAT?$AAy?$AAp?$AAe?$AA?5?$AA?$DN?$AA?$DN?$AA?5@ 004a9698     main.obj
 0002:000056f8       ??_C@_1BM@GBBOFEAE@?$AA_?$AA_?$AAa?$AAt?$AAl?$AA_?$AAc?$AAo?$AAn?$AAd?$AAV?$AAa?$AAl?$AA?$AA@ 004a96f8     main.obj
 0002:0000571c       ??_C@_0CL@PILPOMLI@Bogus?5value?5?$CFc?5passed?5as?5binary?5@ 004a971c     main.obj
 0002:00005750       ??_C@_0BG@OFKLEKA@Should?5not?5be?5here?$CB?$CB?6?$AA@ 004a9750     main.obj
 0002:0000576c       ??_C@_0DN@JALIHHGH@ERROR?5?3?5Unable?5to?5initialize?5cri@ 004a976c     main.obj
 0002:000057b8       ??_C@_1CC@DNHFMIHP@?$AA_?$AAp?$AAA?$AAt?$AAl?$AAM?$AAo?$AAd?$AAu?$AAl?$AAe?$AA?5?$AA?$DN?$AA?$DN?$AA?5?$AA0?$AA?$AA@ 004a97b8     main.obj
 0002:000057e0       ??_C@_1M@PPPPCDEP@?$AAA?$AAP?$AAP?$AAI?$AAD?$AA?$AA@ 004a97e0     main.obj
 0002:000057f0       ??_C@_1BC@EMCLECFJ@?$AAm?$AA_?$AAp?$AA?5?$AA?$DN?$AA?$DN?$AA?5?$AA0?$AA?$AA@ 004a97f0     main.obj
 0002:00005808       ??_C@_11LOCGONAA@?$AA?$AA@ 004a9808     main.obj
 0002:00005d08       ??_7MainFrame@@6BIDialogBuilderCallback@DuiLib@@@ 004a9d08     main_frame.obj
 0002:00005d14       ??_7MainFrame@@6BIMessageFilterUI@DuiLib@@@ 004a9d14     main_frame.obj
 0002:00005d20       ??_7MainFrame@@6BINotifyUI@DuiLib@@@ 004a9d20     main_frame.obj
 0002:00005d2c       ??_7MainFrame@@6BCWindowWnd@DuiLib@@@ 004a9d2c     main_frame.obj
 0002:00005db8       ??_7?$ObserverImpl@HUSkinChangedParam@@@@6B@ 004a9db8     main_frame.obj
 0002:00005dd0       ??_C@_1BDK@NGMHLHEH@?$AAs?$AAt?$AAd?$AA?3?$AA?3?$AA_?$AAV?$AAe?$AAc?$AAt?$AAo?$AAr?$AA_?$AAc?$AAo?$AAn?$AAs?$AAt?$AA_?$AAi?$AAt?$AAe?$AAr?$AAa?$AAt?$AAo?$AAr?$AA?$DM?$AAc?$AAl?$AAa?$AAs@ 004a9dd0     main_frame.obj
 0002:00005f48       ??_C@_1EG@FOHJJHAC@?$AAv?$AAe?$AAc?$AAt?$AAo?$AAr?$AA?5?$AAi?$AAt?$AAe?$AAr?$AAa?$AAt?$AAo?$AAr?$AA?5?$AAn?$AAo?$AAt?$AA?5?$AAd?$AAe?$AAr?$AAe?$AAf?$AAe?$AAr?$AAe?$AAn?$AAc?$AAa?$AAb@ 004a9f48     main_frame.obj
 0002:00005fa0       ??_C@_1IA@ELPEOOKC@?$AAC?$AA?3?$AA?2?$AAP?$AAr?$AAo?$AAg?$AAr?$AAa?$AAm?$AA?5?$AAF?$AAi?$AAl?$AAe?$AAs?$AA?2?$AAM?$AAi?$AAc?$AAr?$AAo?$AAs?$AAo?$AAf?$AAt?$AA?5?$AAV?$AAi?$AAs?$AAu?$AAa@ 004a9fa0     main_frame.obj
 0002:00006040       ??_C@_1BDM@FGFCNCLA@?$AAs?$AAt?$AAd?$AA?3?$AA?3?$AA_?$AAV?$AAe?$AAc?$AAt?$AAo?$AAr?$AA_?$AAc?$AAo?$AAn?$AAs?$AAt?$AA_?$AAi?$AAt?$AAe?$AAr?$AAa?$AAt?$AAo?$AAr?$AA?$DM?$AAc?$AAl?$AAa?$AAs@ 004aa040     main_frame.obj
 0002:000061c0       ??_C@_1EE@EJDKCLKB@?$AAv?$AAe?$AAc?$AAt?$AAo?$AAr?$AA?5?$AAi?$AAt?$AAe?$AAr?$AAa?$AAt?$AAo?$AAr?$AA?5?$AAn?$AAo?$AAt?$AA?5?$AAi?$AAn?$AAc?$AAr?$AAe?$AAm?$AAe?$AAn?$AAt?$AAa?$AAb?$AAl@ 004aa1c0     main_frame.obj
 0002:00006218       ??_7?$ObserverImplBase@HUSkinChangedParam@@@@6B@ 004aa218     main_frame.obj
 0002:00006230       ??_C@_1EI@HGIDLLCM@?$AAv?$AAe?$AAc?$AAt?$AAo?$AAr?$AA?5?$AAe?$AAr?$AAa?$AAs?$AAe?$AA?5?$AAi?$AAt?$AAe?$AAr?$AAa?$AAt?$AAo?$AAr?$AA?5?$AAo?$AAu?$AAt?$AAs?$AAi?$AAd?$AAe?$AA?5?$AAr?$AAa@ 004aa230     main_frame.obj
 0002:00006288       ??_C@_0BD@OLBABOEK@vector?$DMT?$DO?5too?5long?$AA@ 004aa288     main_frame.obj
 0002:000062a0       ??_C@_1BDE@NDCNOOKH@?$AAs?$AAt?$AAd?$AA?3?$AA?3?$AA_?$AAV?$AAe?$AAc?$AAt?$AAo?$AAr?$AA_?$AAc?$AAo?$AAn?$AAs?$AAt?$AA_?$AAi?$AAt?$AAe?$AAr?$AAa?$AAt?$AAo?$AAr?$AA?$DM?$AAc?$AAl?$AAa?$AAs@ 004aa2a0     main_frame.obj
 0002:00006414       ??_C@_1DM@HINDPMBP@?$AAv?$AAe?$AAc?$AAt?$AAo?$AAr?$AA?5?$AAi?$AAt?$AAe?$AAr?$AAa?$AAt?$AAo?$AAr?$AAs?$AA?5?$AAi?$AAn?$AAc?$AAo?$AAm?$AAp?$AAa?$AAt?$AAi?$AAb?$AAl?$AAe?$AA?$AA@ 004aa414     main_frame.obj
 0002:00006460       ??_C@_1CCK@INCPFPIG@?$AAs?$AAt?$AAd?$AA?3?$AA?3?$AA_?$AAT?$AAr?$AAe?$AAe?$AA_?$AAc?$AAo?$AAn?$AAs?$AAt?$AA_?$AAi?$AAt?$AAe?$AAr?$AAa?$AAt?$AAo?$AAr?$AA?$DM?$AAc?$AAl?$AAa?$AAs?$AAs?$AA?5@ 004aa460     main_frame.obj
 0002:000066f8       ??_C@_1CCK@CNNCLGED@?$AAs?$AAt?$AAd?$AA?3?$AA?3?$AA_?$AAT?$AAr?$AAe?$AAe?$AA_?$AAc?$AAo?$AAn?$AAs?$AAt?$AA_?$AAi?$AAt?$AAe?$AAr?$AAa?$AAt?$AAo?$AAr?$AA?$DM?$AAc?$AAl?$AAa?$AAs?$AAs?$AA?5@ 004aa6f8     main_frame.obj
 0002:00006990       ??_C@_1CCI@JOPOCPHN@?$AAs?$AAt?$AAd?$AA?3?$AA?3?$AA_?$AAT?$AAr?$AAe?$AAe?$AA_?$AAc?$AAo?$AAn?$AAs?$AAt?$AA_?$AAi?$AAt?$AAe?$AAr?$AAa?$AAt?$AAo?$AAr?$AA?$DM?$AAc?$AAl?$AAa?$AAs?$AAs?$AA?5@ 004aa990     main_frame.obj
 0002:00006c28       ??_C@_1CCK@HOBNODEH@?$AAs?$AAt?$AAd?$AA?3?$AA?3?$AA_?$AAT?$AAr?$AAe?$AAe?$AA_?$AAc?$AAo?$AAn?$AAs?$AAt?$AA_?$AAi?$AAt?$AAe?$AAr?$AAa?$AAt?$AAo?$AAr?$AA?$DM?$AAc?$AAl?$AAa?$AAs?$AAs?$AA?5@ 004aac28     main_frame.obj
 0002:00006ec0       ??_C@_1IA@DFCPGCKJ@?$AAC?$AA?3?$AA?2?$AAP?$AAr?$AAo?$AAg?$AAr?$AAa?$AAm?$AA?5?$AAF?$AAi?$AAl?$AAe?$AAs?$AA?2?$AAM?$AAi?$AAc?$AAr?$AAo?$AAs?$AAo?$AAf?$AAt?$AA?5?$AAV?$AAi?$AAs?$AAu?$AAa@ 004aaec0     main_frame.obj
 0002:00006f5c       ??_C@_1CO@DGLIKNHI@?$AAi?$AAn?$AAv?$AAa?$AAl?$AAi?$AAd?$AA?5?$AAi?$AAt?$AAe?$AAr?$AAa?$AAt?$AAo?$AAr?$AA?5?$AAr?$AAa?$AAn?$AAg?$AAe?$AA?$AA@ 004aaf5c     main_frame.obj
 0002:0000718c       ??_7CFriendsUI@DuiLib@@6B@ 004ab18c     UIFriends.obj
 0002:000071c0       ??_7CFriendsUI@DuiLib@@6BIContainerUI@1@@ 004ab1c0     UIFriends.obj
 0002:000071f4       ??_7CFriendsUI@DuiLib@@6BCControlUI@1@@ 004ab1f4     UIFriends.obj
 0002:000073f8       ??_7CDelegateStatic@DuiLib@@6B@ 004ab3f8     UIFriends.obj
 0002:000075ec       ??_7CGroupsUI@DuiLib@@6B@  004ab5ec     UIGroups.obj
 0002:00007620       ??_7CGroupsUI@DuiLib@@6BIContainerUI@1@@ 004ab620     UIGroups.obj
 0002:00007654       ??_7CGroupsUI@DuiLib@@6BCControlUI@1@@ 004ab654     UIGroups.obj
 0002:00007858       ??_C@_1LG@HOCOJDCC@?$AAs?$AAt?$AAd?$AA?3?$AA?3?$AAv?$AAe?$AAc?$AAt?$AAo?$AAr?$AA?$DM?$AAc?$AAl?$AAa?$AAs?$AAs?$AA?5?$AAD?$AAu?$AAi?$AAL?$AAi?$AAb?$AA?3?$AA?3?$AAN?$AAo?$AAd?$AAe?$AA?5?$AA?$CK@ 004ab858     UIListCommonDefine.obj
 0002:00007934       ??_C@_1DM@LHGCHCBA@?$AAv?$AAe?$AAc?$AAt?$AAo?$AAr?$AA?5?$AAs?$AAu?$AAb?$AAs?$AAc?$AAr?$AAi?$AAp?$AAt?$AA?5?$AAo?$AAu?$AAt?$AA?5?$AAo?$AAf?$AA?5?$AAr?$AAa?$AAn?$AAg?$AAe?$AA?$AA@ 004ab934     UIListCommonDefine.obj
 0002:00007980       ??_C@_1BAG@FLGEOAKB@?$AAs?$AAt?$AAd?$AA?3?$AA?3?$AA_?$AAV?$AAe?$AAc?$AAt?$AAo?$AAr?$AA_?$AAc?$AAo?$AAn?$AAs?$AAt?$AA_?$AAi?$AAt?$AAe?$AAr?$AAa?$AAt?$AAo?$AAr?$AA?$DM?$AAc?$AAl?$AAa?$AAs@ 004ab980     UIListCommonDefine.obj
 0002:00007ac0       ??_C@_1BAI@KLHJMPCO@?$AAs?$AAt?$AAd?$AA?3?$AA?3?$AA_?$AAV?$AAe?$AAc?$AAt?$AAo?$AAr?$AA_?$AAc?$AAo?$AAn?$AAs?$AAt?$AA_?$AAi?$AAt?$AAe?$AAr?$AAa?$AAt?$AAo?$AAr?$AA?$DM?$AAc?$AAl?$AAa?$AAs@ 004abac0     UIListCommonDefine.obj
 0002:00007c00       ??_C@_1BAA@LEEPIKIJ@?$AAs?$AAt?$AAd?$AA?3?$AA?3?$AA_?$AAV?$AAe?$AAc?$AAt?$AAo?$AAr?$AA_?$AAc?$AAo?$AAn?$AAs?$AAt?$AA_?$AAi?$AAt?$AAe?$AAr?$AAa?$AAt?$AAo?$AAr?$AA?$DM?$AAc?$AAl?$AAa?$AAs@ 004abc00     UIListCommonDefine.obj
 0002:00007d38       __real@3ff0000000000000    004abd38     UIListCommonDefine.obj
 0002:00007d48       ??_7CMicroBlogUI@DuiLib@@6B@ 004abd48     UIMicroBlog.obj
 0002:00007d7c       ??_7CMicroBlogUI@DuiLib@@6BIContainerUI@1@@ 004abd7c     UIMicroBlog.obj
 0002:00007dac       ??_7CMicroBlogUI@DuiLib@@6BCControlUI@1@@ 004abdac     UIMicroBlog.obj
 0002:00008004       ??_7WindowImplBase@@6BIDialogBuilderCallback@DuiLib@@@ 004ac004     win_impl_base.obj
 0002:00008010       ??_7WindowImplBase@@6BIMessageFilterUI@DuiLib@@@ 004ac010     win_impl_base.obj
 0002:0000801c       ??_7WindowImplBase@@6BINotifyUI@DuiLib@@@ 004ac01c     win_impl_base.obj
 0002:0000802c       ??_7WindowImplBase@@6BCWindowWnd@DuiLib@@@ 004ac02c     win_impl_base.obj
 0002:000080b8       ??_7INotifyUI@DuiLib@@6B@  004ac0b8     win_impl_base.obj
 0002:000080c4       ??_7IMessageFilterUI@DuiLib@@6B@ 004ac0c4     win_impl_base.obj
 0002:000080d0       ??_7IDialogBuilderCallback@DuiLib@@6B@ 004ac0d0     win_impl_base.obj
 0002:000093b8       ?inflate_copyright@@3QBDB  004ad3b8     XUnzip.obj
 0002:0000a5b0       ??_7ColorSkinWindow@@6BIDialogBuilderCallback@DuiLib@@@ 004ae5b0     color_skin.obj
 0002:0000a5bc       ??_7ColorSkinWindow@@6BIMessageFilterUI@DuiLib@@@ 004ae5bc     color_skin.obj
 0002:0000a5c8       ??_7ColorSkinWindow@@6BINotifyUI@DuiLib@@@ 004ae5c8     color_skin.obj
 0002:0000a5d4       ??_7ColorSkinWindow@@6BCWindowWnd@DuiLib@@@ 004ae5d4     color_skin.obj
 0002:0000a65c       _GUID_NULL                 004ae65c     uuid:cguid_i.obj
 0002:0000a66c       _CATID_MARSHALER           004ae66c     uuid:cguid_i.obj
 0002:0000a67c       _IID_IRpcChannel           004ae67c     uuid:cguid_i.obj
 0002:0000a68c       _IID_IRpcStub              004ae68c     uuid:cguid_i.obj
 0002:0000a69c       _IID_IStubManager          004ae69c     uuid:cguid_i.obj
 0002:0000a6ac       _IID_IRpcProxy             004ae6ac     uuid:cguid_i.obj
 0002:0000a6bc       _IID_IProxyManager         004ae6bc     uuid:cguid_i.obj
 0002:0000a6cc       _IID_IPSFactory            004ae6cc     uuid:cguid_i.obj
 0002:0000a6dc       _IID_IInternalMoniker      004ae6dc     uuid:cguid_i.obj
 0002:0000a6ec       _IID_IDfReserved1          004ae6ec     uuid:cguid_i.obj
 0002:0000a6fc       _IID_IDfReserved2          004ae6fc     uuid:cguid_i.obj
 0002:0000a70c       _IID_IDfReserved3          004ae70c     uuid:cguid_i.obj
 0002:0000a71c       _CLSID_StdMarshal          004ae71c     uuid:cguid_i.obj
 0002:0000a72c       _IID_IStub                 004ae72c     uuid:cguid_i.obj
 0002:0000a73c       _IID_IProxy                004ae73c     uuid:cguid_i.obj
 0002:0000a74c       _IID_IEnumGeneric          004ae74c     uuid:cguid_i.obj
 0002:0000a75c       _IID_IEnumHolder           004ae75c     uuid:cguid_i.obj
 0002:0000a76c       _IID_IEnumCallback         004ae76c     uuid:cguid_i.obj
 0002:0000a77c       _IID_IOleManager           004ae77c     uuid:cguid_i.obj
 0002:0000a78c       _IID_IOlePresObj           004ae78c     uuid:cguid_i.obj
 0002:0000a79c       _IID_IDebug                004ae79c     uuid:cguid_i.obj
 0002:0000a7ac       _IID_IDebugStream          004ae7ac     uuid:cguid_i.obj
 0002:0000a7bc       _CLSID_PSGenObject         004ae7bc     uuid:cguid_i.obj
 0002:0000a7cc       _CLSID_PSClientSite        004ae7cc     uuid:cguid_i.obj
 0002:0000a7dc       _CLSID_PSClassObject       004ae7dc     uuid:cguid_i.obj
 0002:0000a7ec       _CLSID_PSInPlaceActive     004ae7ec     uuid:cguid_i.obj
 0002:0000a7fc       _CLSID_PSInPlaceFrame      004ae7fc     uuid:cguid_i.obj
 0002:0000a80c       _CLSID_PSDragDrop          004ae80c     uuid:cguid_i.obj
 0002:0000a81c       _CLSID_PSBindCtx           004ae81c     uuid:cguid_i.obj
 0002:0000a82c       _CLSID_PSEnumerators       004ae82c     uuid:cguid_i.obj
 0002:0000a83c       _CLSID_StaticMetafile      004ae83c     uuid:cguid_i.obj
 0002:0000a84c       _CLSID_StaticDib           004ae84c     uuid:cguid_i.obj
 0002:0000a85c       _CLSID_Picture_Metafile    004ae85c     uuid:cguid_i.obj
 0002:0000a86c       _CLSID_Picture_EnhMetafile 004ae86c     uuid:cguid_i.obj
 0002:0000a87c       _CLSID_Picture_Dib         004ae87c     uuid:cguid_i.obj
 0002:0000a88c       _CLSID_DCOMAccessControl   004ae88c     uuid:cguid_i.obj
 0002:0000a89c       _CLSID_StdGlobalInterfaceTable 004ae89c     uuid:cguid_i.obj
 0002:0000a8ac       _CLSID_ManualResetEvent    004ae8ac     uuid:cguid_i.obj
 0002:0000a8bc       _CLSID_StdEvent            004ae8bc     uuid:cguid_i.obj
 0002:0000a8cc       _CLSID_SynchronizeContainer 004ae8cc     uuid:cguid_i.obj
 0002:0000a8dc       _CLSID_ComBinding          004ae8dc     uuid:cguid_i.obj
 0002:0000a8ec       _CLSID_StdAsyncActManager  004ae8ec     uuid:cguid_i.obj
 0002:0000a8fc       _CLSID_InProcFreeMarshaler 004ae8fc     uuid:cguid_i.obj
 0002:0000a90c       _CLSID_RemoteUnknownPSFactory 004ae90c     uuid:cguid_i.obj
 0002:0000a91c       _IID_IRichEditOle          004ae91c     uuid:cguid_i.obj
 0002:0000a92c       _IID_IRichEditOleCallback  004ae92c     uuid:cguid_i.obj
 0002:0000a93c       _CLSID_AllClasses          004ae93c     uuid:cguid_i.obj
 0002:0000a94c       _CLSID_LocalMachineClasses 004ae94c     uuid:cguid_i.obj
 0002:0000a95c       _CLSID_CurrentUserClasses  004ae95c     uuid:cguid_i.obj
 0002:0000a96c       _CLSID_AddrControl         004ae96c     uuid:cguid_i.obj
 0002:0000a97c       _CLSID_GlobalOptions       004ae97c     uuid:cguid_i.obj
 0002:0000a98c       _CLSID_SurrogateManager    004ae98c     uuid:cguid_i.obj
 0002:0000a99c       _CLSID_ContextSwitcher     004ae99c     uuid:cguid_i.obj
 0002:0000a9ac       _IID_IPropertyFrame        004ae9ac     uuid:cguid_i.obj
 0002:0000a9bc       _CLSID_CFontPropPage       004ae9bc     uuid:cguid_i.obj
 0002:0000a9cc       _CLSID_CColorPropPage      004ae9cc     uuid:cguid_i.obj
 0002:0000a9dc       _CLSID_CPicturePropPage    004ae9dc     uuid:cguid_i.obj
 0002:0000a9ec       _CLSID_StockFontPage       004ae9ec     uuid:cguid_i.obj
 0002:0000a9fc       _CLSID_StockColorPage      004ae9fc     uuid:cguid_i.obj
 0002:0000aa0c       _CLSID_StockPicturePage    004aea0c     uuid:cguid_i.obj
 0002:0000aa1c       _CLSID_PersistPropset      004aea1c     uuid:cguid_i.obj
 0002:0000aa2c       _CLSID_ConvertVBX          004aea2c     uuid:cguid_i.obj
 0002:0000aa3c       _CLSID_StdFont             004aea3c     uuid:cguid_i.obj
 0002:0000aa4c       _CLSID_StdPicture          004aea4c     uuid:cguid_i.obj
 0002:0000aa5c       _GUID_HIMETRIC             004aea5c     uuid:cguid_i.obj
 0002:0000aa6c       _GUID_COLOR                004aea6c     uuid:cguid_i.obj
 0002:0000aa7c       _GUID_XPOSPIXEL            004aea7c     uuid:cguid_i.obj
 0002:0000aa8c       _GUID_YPOSPIXEL            004aea8c     uuid:cguid_i.obj
 0002:0000aa9c       _GUID_XSIZEPIXEL           004aea9c     uuid:cguid_i.obj
 0002:0000aaac       _GUID_YSIZEPIXEL           004aeaac     uuid:cguid_i.obj
 0002:0000aabc       _GUID_XPOS                 004aeabc     uuid:cguid_i.obj
 0002:0000aacc       _GUID_YPOS                 004aeacc     uuid:cguid_i.obj
 0002:0000aadc       _GUID_XSIZE                004aeadc     uuid:cguid_i.obj
 0002:0000aaec       _GUID_YSIZE                004aeaec     uuid:cguid_i.obj
 0002:0000aafc       _GUID_TRISTATE             004aeafc     uuid:cguid_i.obj
 0002:0000ab0c       _GUID_OPTIONVALUEEXCLUSIVE 004aeb0c     uuid:cguid_i.obj
 0002:0000ab1c       _GUID_CHECKVALUEEXCLUSIVE  004aeb1c     uuid:cguid_i.obj
 0002:0000ab2c       _GUID_FONTNAME             004aeb2c     uuid:cguid_i.obj
 0002:0000ab3c       _GUID_FONTSIZE             004aeb3c     uuid:cguid_i.obj
 0002:0000ab4c       _GUID_FONTBOLD             004aeb4c     uuid:cguid_i.obj
 0002:0000ab5c       _GUID_FONTITALIC           004aeb5c     uuid:cguid_i.obj
 0002:0000ab6c       _GUID_FONTUNDERSCORE       004aeb6c     uuid:cguid_i.obj
 0002:0000ab7c       _GUID_FONTSTRIKETHROUGH    004aeb7c     uuid:cguid_i.obj
 0002:0000ab8c       _GUID_HANDLE               004aeb8c     uuid:cguid_i.obj
 0002:0000ab9c       _IID_StdOle                004aeb9c     uuid:cguid_i.obj
 0002:0000abac       _IID_ICursor               004aebac     uuid:cguid_i.obj
 0002:0000abbc       _IID_ICursorMove           004aebbc     uuid:cguid_i.obj
 0002:0000abcc       _IID_ICursorScroll         004aebcc     uuid:cguid_i.obj
 0002:0000abdc       _IID_ICursorUpdateARow     004aebdc     uuid:cguid_i.obj
 0002:0000abec       _IID_INotifyDBEvents       004aebec     uuid:cguid_i.obj
 0002:0000abfc       _IID_ICursorFind           004aebfc     uuid:cguid_i.obj
 0002:0000ac0c       _IID_IEntryID              004aec0c     uuid:cguid_i.obj
 0002:0000ac1c       __GUID_NAMEONLY            004aec1c     uuid:cguid_i.obj
 0002:0000ac2c       __DBBMKGUID                004aec2c     uuid:cguid_i.obj
 0002:0000ac3c       __DBCIDGUID                004aec3c     uuid:cguid_i.obj
 0002:0000ac4c       _IID_IBoundObject          004aec4c     uuid:cguid_i.obj
 0002:0000ac5c       _IID_IBoundObjectSite      004aec5c     uuid:cguid_i.obj
 0002:0000ac6c       _CLSID_GblComponentCategoriesMgr 004aec6c     uuid:cguid_i.obj
 0002:0000ac7c       _CLSID_ThumbnailFCNHandler 004aec7c     uuid:cguid_i.obj
 0002:0000ac8c       _CLSID_ThumbnailUpdater    004aec8c     uuid:cguid_i.obj
 0002:0000ac9c       _GUID_DEVCLASS_1394        004aec9c     uuid:cguid_i.obj
 0002:0000acac       _GUID_DEVCLASS_1394DEBUG   004aecac     uuid:cguid_i.obj
 0002:0000acbc       _GUID_DEVCLASS_61883       004aecbc     uuid:cguid_i.obj
 0002:0000accc       _GUID_DEVCLASS_ADAPTER     004aeccc     uuid:cguid_i.obj
 0002:0000acdc       _GUID_DEVCLASS_APMSUPPORT  004aecdc     uuid:cguid_i.obj
 0002:0000acec       _GUID_DEVCLASS_AVC         004aecec     uuid:cguid_i.obj
 0002:0000acfc       _GUID_DEVCLASS_BATTERY     004aecfc     uuid:cguid_i.obj
 0002:0000ad0c       _GUID_DEVCLASS_BIOMETRIC   004aed0c     uuid:cguid_i.obj
 0002:0000ad1c       _GUID_DEVCLASS_BLUETOOTH   004aed1c     uuid:cguid_i.obj
 0002:0000ad2c       _GUID_DEVCLASS_CDROM       004aed2c     uuid:cguid_i.obj
 0002:0000ad3c       _GUID_DEVCLASS_COMPUTER    004aed3c     uuid:cguid_i.obj
 0002:0000ad4c       _GUID_DEVCLASS_DECODER     004aed4c     uuid:cguid_i.obj
 0002:0000ad5c       _GUID_DEVCLASS_DISKDRIVE   004aed5c     uuid:cguid_i.obj
 0002:0000ad6c       _GUID_DEVCLASS_DISPLAY     004aed6c     uuid:cguid_i.obj
 0002:0000ad7c       _GUID_DEVCLASS_DOT4        004aed7c     uuid:cguid_i.obj
 0002:0000ad8c       _GUID_DEVCLASS_DOT4PRINT   004aed8c     uuid:cguid_i.obj
 0002:0000ad9c       _GUID_DEVCLASS_ENUM1394    004aed9c     uuid:cguid_i.obj
 0002:0000adac       _GUID_DEVCLASS_FDC         004aedac     uuid:cguid_i.obj
 0002:0000adbc       _GUID_DEVCLASS_FLOPPYDISK  004aedbc     uuid:cguid_i.obj
 0002:0000adcc       _GUID_DEVCLASS_GPS         004aedcc     uuid:cguid_i.obj
 0002:0000addc       _GUID_DEVCLASS_HDC         004aeddc     uuid:cguid_i.obj
 0002:0000adec       _GUID_DEVCLASS_HIDCLASS    004aedec     uuid:cguid_i.obj
 0002:0000adfc       _GUID_DEVCLASS_IMAGE       004aedfc     uuid:cguid_i.obj
 0002:0000ae0c       _GUID_DEVCLASS_INFINIBAND  004aee0c     uuid:cguid_i.obj
 0002:0000ae1c       _GUID_DEVCLASS_INFRARED    004aee1c     uuid:cguid_i.obj
 0002:0000ae2c       _GUID_DEVCLASS_KEYBOARD    004aee2c     uuid:cguid_i.obj
 0002:0000ae3c       _GUID_DEVCLASS_LEGACYDRIVER 004aee3c     uuid:cguid_i.obj
 0002:0000ae4c       _GUID_DEVCLASS_MEDIA       004aee4c     uuid:cguid_i.obj
 0002:0000ae5c       _GUID_DEVCLASS_MEDIUM_CHANGER 004aee5c     uuid:cguid_i.obj
 0002:0000ae6c       _GUID_DEVCLASS_MODEM       004aee6c     uuid:cguid_i.obj
 0002:0000ae7c       _GUID_DEVCLASS_MONITOR     004aee7c     uuid:cguid_i.obj
 0002:0000ae8c       _GUID_DEVCLASS_MOUSE       004aee8c     uuid:cguid_i.obj
 0002:0000ae9c       _GUID_DEVCLASS_MTD         004aee9c     uuid:cguid_i.obj
 0002:0000aeac       _GUID_DEVCLASS_MULTIFUNCTION 004aeeac     uuid:cguid_i.obj
 0002:0000aebc       _GUID_DEVCLASS_MULTIPORTSERIAL 004aeebc     uuid:cguid_i.obj
 0002:0000aecc       _GUID_DEVCLASS_NET         004aeecc     uuid:cguid_i.obj
 0002:0000aedc       _GUID_DEVCLASS_NETCLIENT   004aeedc     uuid:cguid_i.obj
 0002:0000aeec       _GUID_DEVCLASS_NETSERVICE  004aeeec     uuid:cguid_i.obj
 0002:0000aefc       _GUID_DEVCLASS_NETTRANS    004aeefc     uuid:cguid_i.obj
 0002:0000af0c       _GUID_DEVCLASS_NODRIVER    004aef0c     uuid:cguid_i.obj
 0002:0000af1c       _GUID_DEVCLASS_PCMCIA      004aef1c     uuid:cguid_i.obj
 0002:0000af2c       _GUID_DEVCLASS_PNPPRINTERS 004aef2c     uuid:cguid_i.obj
 0002:0000af3c       _GUID_DEVCLASS_PORTS       004aef3c     uuid:cguid_i.obj
 0002:0000af4c       _GUID_DEVCLASS_PRINTER     004aef4c     uuid:cguid_i.obj
 0002:0000af5c       _GUID_DEVCLASS_PRINTERUPGRADE 004aef5c     uuid:cguid_i.obj
 0002:0000af6c       _GUID_DEVCLASS_PROCESSOR   004aef6c     uuid:cguid_i.obj
 0002:0000af7c       _GUID_DEVCLASS_SBP2        004aef7c     uuid:cguid_i.obj
 0002:0000af8c       _GUID_DEVCLASS_SCSIADAPTER 004aef8c     uuid:cguid_i.obj
 0002:0000af9c       _GUID_DEVCLASS_SECURITYACCELERATOR 004aef9c     uuid:cguid_i.obj
 0002:0000afac       _GUID_DEVCLASS_SENSOR      004aefac     uuid:cguid_i.obj
 0002:0000afbc       _GUID_DEVCLASS_SIDESHOW    004aefbc     uuid:cguid_i.obj
 0002:0000afcc       _GUID_DEVCLASS_SMARTCARDREADER 004aefcc     uuid:cguid_i.obj
 0002:0000afdc       _GUID_DEVCLASS_SOUND       004aefdc     uuid:cguid_i.obj
 0002:0000afec       _GUID_DEVCLASS_SYSTEM      004aefec     uuid:cguid_i.obj
 0002:0000affc       _GUID_DEVCLASS_TAPEDRIVE   004aeffc     uuid:cguid_i.obj
 0002:0000b00c       _GUID_DEVCLASS_UNKNOWN     004af00c     uuid:cguid_i.obj
 0002:0000b01c       _GUID_DEVCLASS_USB         004af01c     uuid:cguid_i.obj
 0002:0000b02c       _GUID_DEVCLASS_VOLUME      004af02c     uuid:cguid_i.obj
 0002:0000b03c       _GUID_DEVCLASS_VOLUMESNAPSHOT 004af03c     uuid:cguid_i.obj
 0002:0000b04c       _GUID_DEVCLASS_WCEUSBS     004af04c     uuid:cguid_i.obj
 0002:0000b05c       _GUID_DEVCLASS_WPD         004af05c     uuid:cguid_i.obj
 0002:0000b06c       _GUID_DEVCLASS_FSFILTER_ACTIVITYMONITOR 004af06c     uuid:cguid_i.obj
 0002:0000b07c       _GUID_DEVCLASS_FSFILTER_UNDELETE 004af07c     uuid:cguid_i.obj
 0002:0000b08c       _GUID_DEVCLASS_FSFILTER_ANTIVIRUS 004af08c     uuid:cguid_i.obj
 0002:0000b09c       _GUID_DEVCLASS_FSFILTER_REPLICATION 004af09c     uuid:cguid_i.obj
 0002:0000b0ac       _GUID_DEVCLASS_FSFILTER_CONTINUOUSBACKUP 004af0ac     uuid:cguid_i.obj
 0002:0000b0bc       _GUID_DEVCLASS_FSFILTER_CONTENTSCREENER 004af0bc     uuid:cguid_i.obj
 0002:0000b0cc       _GUID_DEVCLASS_FSFILTER_QUOTAMANAGEMENT 004af0cc     uuid:cguid_i.obj
 0002:0000b0dc       _GUID_DEVCLASS_FSFILTER_SYSTEMRECOVERY 004af0dc     uuid:cguid_i.obj
 0002:0000b0ec       _GUID_DEVCLASS_FSFILTER_CFSMETADATASERVER 004af0ec     uuid:cguid_i.obj
 0002:0000b0fc       _GUID_DEVCLASS_FSFILTER_HSM 004af0fc     uuid:cguid_i.obj
 0002:0000b10c       _GUID_DEVCLASS_FSFILTER_COMPRESSION 004af10c     uuid:cguid_i.obj
 0002:0000b11c       _GUID_DEVCLASS_FSFILTER_ENCRYPTION 004af11c     uuid:cguid_i.obj
 0002:0000b12c       _GUID_DEVCLASS_FSFILTER_PHYSICALQUOTAMANAGEMENT 004af12c     uuid:cguid_i.obj
 0002:0000b13c       _GUID_DEVCLASS_FSFILTER_OPENFILEBACKUP 004af13c     uuid:cguid_i.obj
 0002:0000b14c       _GUID_DEVCLASS_FSFILTER_SECURITYENHANCER 004af14c     uuid:cguid_i.obj
 0002:0000b15c       _GUID_DEVCLASS_FSFILTER_COPYPROTECTION 004af15c     uuid:cguid_i.obj
 0002:0000b16c       _GUID_DEVCLASS_FSFILTER_SYSTEM 004af16c     uuid:cguid_i.obj
 0002:0000b17c       _GUID_DEVCLASS_FSFILTER_INFRASTRUCTURE 004af17c     uuid:cguid_i.obj
 0002:0000b18c       _GUID_DEVINTERFACE_DISK    004af18c     uuid:cguid_i.obj
 0002:0000b19c       _GUID_DEVINTERFACE_CDROM   004af19c     uuid:cguid_i.obj
 0002:0000b1ac       _GUID_DEVINTERFACE_PARTITION 004af1ac     uuid:cguid_i.obj
 0002:0000b1bc       _GUID_DEVINTERFACE_TAPE    004af1bc     uuid:cguid_i.obj
 0002:0000b1cc       _GUID_DEVINTERFACE_WRITEONCEDISK 004af1cc     uuid:cguid_i.obj
 0002:0000b1dc       _GUID_DEVINTERFACE_VOLUME  004af1dc     uuid:cguid_i.obj
 0002:0000b1ec       _GUID_DEVINTERFACE_MEDIUMCHANGER 004af1ec     uuid:cguid_i.obj
 0002:0000b1fc       _GUID_DEVINTERFACE_FLOPPY  004af1fc     uuid:cguid_i.obj
 0002:0000b20c       _GUID_DEVINTERFACE_CDCHANGER 004af20c     uuid:cguid_i.obj
 0002:0000b21c       _GUID_DEVINTERFACE_STORAGEPORT 004af21c     uuid:cguid_i.obj
 0002:0000b22c       _GUID_DEVINTERFACE_HIDDEN_VOLUME 004af22c     uuid:cguid_i.obj
 0002:0000b23c       _GUID_DEVINTERFACE_COMPORT 004af23c     uuid:cguid_i.obj
 0002:0000b24c       _GUID_DEVINTERFACE_SERENUM_BUS_ENUMERATOR 004af24c     uuid:cguid_i.obj
 0002:0000b260       ??_7invalid_argument@std@@6B@ 004af260     libcpmtd:xthrow.obj
 0002:0000b26c       ??_7logic_error@std@@6B@   004af26c     libcpmtd:xthrow.obj
 0002:0000b278       ??_7length_error@std@@6B@  004af278     libcpmtd:xthrow.obj
 0002:0000b284       ??_7out_of_range@std@@6B@  004af284     libcpmtd:xthrow.obj
 0002:0000b290       ??_7overflow_error@std@@6B@ 004af290     libcpmtd:xthrow.obj
 0002:0000b29c       ??_7runtime_error@std@@6B@ 004af29c     libcpmtd:xthrow.obj
 0002:0000b2a4       ?ProcessDetach@NativeDll@<CrtImplementationDetails>@@0IB 004af2a4     LIBCMTD:_trnsctrl_.obj
 0002:0000b2a8       ?ProcessAttach@NativeDll@<CrtImplementationDetails>@@0IB 004af2a8     LIBCMTD:_trnsctrl_.obj
 0002:0000b2ac       ?ThreadAttach@NativeDll@<CrtImplementationDetails>@@0IB 004af2ac     LIBCMTD:_trnsctrl_.obj
 0002:0000b2b0       ?ThreadDetach@NativeDll@<CrtImplementationDetails>@@0IB 004af2b0     LIBCMTD:_trnsctrl_.obj
 0002:0000b2b4       ?ProcessVerifier@NativeDll@<CrtImplementationDetails>@@0IB 004af2b4     LIBCMTD:_trnsctrl_.obj
 0002:0000b2bc       ??_7type_info@@6B@         004af2bc     LIBCMTD:typinfo.obj
 0002:0000b2c0       ??_C@_1GE@BDAODJCD@?$AAf?$AA?3?$AA?2?$AAd?$AAd?$AA?2?$AAv?$AAc?$AAt?$AAo?$AAo?$AAl?$AAs?$AA?2?$AAc?$AAr?$AAt?$AA_?$AAb?$AAl?$AAd?$AA?2?$AAs?$AAe?$AAl?$AAf?$AA_?$AAx?$AA8?$AA6?$AA?2?$AAc@ 004af2c0     LIBCMTD:dbgdel.obj
 0002:0000b328       ??_C@_1EO@LHDAJOCM@?$AA_?$AAB?$AAL?$AAO?$AAC?$AAK?$AA_?$AAT?$AAY?$AAP?$AAE?$AA_?$AAI?$AAS?$AA_?$AAV?$AAA?$AAL?$AAI?$AAD?$AA?$CI?$AAp?$AAH?$AAe?$AAa?$AAd?$AA?9?$AA?$DO?$AAn?$AAB?$AAl?$AAo@ 004af328     LIBCMTD:dbgdel.obj
 0002:0000b378       ??_C@_1CC@OLIJCKA@?$AA?$CI?$AAs?$AAt?$AAr?$AAi?$AAn?$AAg?$AA?5?$AA?$CB?$AA?$DN?$AA?5?$AAN?$AAU?$AAL?$AAL?$AA?$CJ?$AA?$AA@ 004af378     LIBCMTD:sprintf.obj
 0002:0000b39c       ??_C@_1BA@KBJJGFFE@?$AAs?$AAp?$AAr?$AAi?$AAn?$AAt?$AAf?$AA?$AA@ 004af39c     LIBCMTD:sprintf.obj
 0002:0000b3b0       ??_C@_1GC@BMNPEKNN@?$AAf?$AA?3?$AA?2?$AAd?$AAd?$AA?2?$AAv?$AAc?$AAt?$AAo?$AAo?$AAl?$AAs?$AA?2?$AAc?$AAr?$AAt?$AA_?$AAb?$AAl?$AAd?$AA?2?$AAs?$AAe?$AAl?$AAf?$AA_?$AAx?$AA8?$AA6?$AA?2?$AAc@ 004af3b0     LIBCMTD:sprintf.obj
 0002:0000b414       ??_C@_1CC@MGIEJOME@?$AA?$CI?$AAf?$AAo?$AAr?$AAm?$AAa?$AAt?$AA?5?$AA?$CB?$AA?$DN?$AA?5?$AAN?$AAU?$AAL?$AAL?$AA?$CJ?$AA?$AA@ 004af414     LIBCMTD:sprintf.obj
 0002:0000b438       ??_C@_0P@GHFPNOJB@bad?5allocation?$AA@ 004af438     LIBCMTD:new.obj
 0002:0000b448       ??_C@_1BG@GBJNMPFA@?$AAs?$AA2?$AA?5?$AA?$CB?$AA?$DN?$AA?5?$AAN?$AAU?$AAL?$AAL?$AA?$AA@ 004af448     LIBCMTD:mbsicmp.obj
 0002:0000b460       ??_C@_1BG@BMDHEPAJ@?$AA_?$AAm?$AAb?$AAs?$AAi?$AAc?$AAm?$AAp?$AA_?$AAl?$AA?$AA@ 004af460     LIBCMTD:mbsicmp.obj
 0002:0000b478       ??_C@_1GC@JPDOJPPF@?$AAf?$AA?3?$AA?2?$AAd?$AAd?$AA?2?$AAv?$AAc?$AAt?$AAo?$AAo?$AAl?$AAs?$AA?2?$AAc?$AAr?$AAt?$AA_?$AAb?$AAl?$AAd?$AA?2?$AAs?$AAe?$AAl?$AAf?$AA_?$AAx?$AA8?$AA6?$AA?2?$AAc@ 004af478     LIBCMTD:mbsicmp.obj
 0002:0000b4dc       ??_C@_1BG@MODEICJK@?$AAs?$AA1?$AA?5?$AA?$CB?$AA?$DN?$AA?5?$AAN?$AAU?$AAL?$AAL?$AA?$AA@ 004af4dc     LIBCMTD:mbsicmp.obj
 0002:0000b4f4       ??_C@_17LGKOMLJ@?$AA?4?$AA?4?$AA?4?$AA?$AA@ 004af4f4     LIBCMTD:dbgrptw.obj
 0002:0000b4fc       ??_C@_1CC@CGHMNGDG@?$AAA?$AAs?$AAs?$AAe?$AAr?$AAt?$AAi?$AAo?$AAn?$AA?5?$AAF?$AAa?$AAi?$AAl?$AAe?$AAd?$AA?$AA@ 004af4fc     LIBCMTD:dbgrptw.obj
 0002:0000b520       ??_C@_1M@ILHOPKA@?$AAE?$AAr?$AAr?$AAo?$AAr?$AA?$AA@ 004af520     LIBCMTD:dbgrptw.obj
 0002:0000b52c       ??_C@_1BA@GLMCNLEM@?$AAW?$AAa?$AAr?$AAn?$AAi?$AAn?$AAg?$AA?$AA@ 004af52c     LIBCMTD:dbgrptw.obj
 0002:0000b548       ??_C@_0DA@PCCBBBID@f?3?2dd?2vctools?2crt_bld?2self_x86?2c@ 004af548     LIBCMTD:dbgrptw.obj
 0002:0000b578       ??_C@_1FI@PHIAFFHM@?$AA?$CI?$AA?$CC?$AAT?$AAh?$AAe?$AA?5?$AAh?$AAo?$AAo?$AAk?$AA?5?$AAf?$AAu?$AAn?$AAc?$AAt?$AAi?$AAo?$AAn?$AA?5?$AAi?$AAs?$AA?5?$AAn?$AAo?$AAt?$AA?5?$AAi?$AAn?$AA?5?$AAt?$AAh@ 004af578     LIBCMTD:dbgrptw.obj
 0002:0000b5d0       ??_C@_1CG@JBJEFOCM@?$AAp?$AAf?$AAn?$AAN?$AAe?$AAw?$AAH?$AAo?$AAo?$AAk?$AA?5?$AA?$CB?$AA?$DN?$AA?5?$AAN?$AAU?$AAL?$AAL?$AA?$AA@ 004af5d0     LIBCMTD:dbgrptw.obj
 0002:0000b5f8       ??_C@_1CI@IIHEAKEI@?$AA_?$AAC?$AAr?$AAt?$AAS?$AAe?$AAt?$AAR?$AAe?$AAp?$AAo?$AAr?$AAt?$AAH?$AAo?$AAo?$AAk?$AAW?$AA2?$AA?$AA@ 004af5f8     LIBCMTD:dbgrptw.obj
 0002:0000b620       ??_C@_1GA@IBJGKIFE@?$AAf?$AA?3?$AA?2?$AAd?$AAd?$AA?2?$AAv?$AAc?$AAt?$AAo?$AAo?$AAl?$AAs?$AA?2?$AAc?$AAr?$AAt?$AA_?$AAb?$AAl?$AAd?$AA?2?$AAs?$AAe?$AAl?$AAf?$AA_?$AAx?$AA8?$AA6?$AA?2?$AAc@ 004af620     LIBCMTD:dbgrptw.obj
 0002:0000b680       ??_C@_1HI@OFEHGPPC@?$AAm?$AAo?$AAd?$AAe?$AA?5?$AA?$DN?$AA?$DN?$AA?5?$AA_?$AAC?$AAR?$AAT?$AA_?$AAR?$AAP?$AAT?$AAH?$AAO?$AAO?$AAK?$AA_?$AAI?$AAN?$AAS?$AAT?$AAA?$AAL?$AAL?$AA?5?$AA?$HM?$AA?$HM?$AA?5@ 004af680     LIBCMTD:dbgrptw.obj
 0002:0000b6f8       ??_C@_1EG@PEOEAKBB@?$AAM?$AAi?$AAc?$AAr?$AAo?$AAs?$AAo?$AAf?$AAt?$AA?5?$AAV?$AAi?$AAs?$AAu?$AAa?$AAl?$AA?5?$AAC?$AA?$CL?$AA?$CL?$AA?5?$AAD?$AAe?$AAb?$AAu?$AAg?$AA?5?$AAL?$AAi?$AAb?$AAr?$AAa@ 004af6f8     LIBCMTD:dbgrptw.obj
 0002:0000b740       ??_C@_1FG@BBOLDHGF@?$AA_?$AAC?$AAr?$AAt?$AAD?$AAb?$AAg?$AAR?$AAe?$AAp?$AAo?$AAr?$AAt?$AA?3?$AA?5?$AAS?$AAt?$AAr?$AAi?$AAn?$AAg?$AA?5?$AAt?$AAo?$AAo?$AA?5?$AAl?$AAo?$AAn?$AAg?$AA?5?$AAo@ 004af740     LIBCMTD:dbgrptw.obj
 0002:0000b798       ??_C@_1JI@EACPGHID@?$AAw?$AAc?$AAs?$AAc?$AAp?$AAy?$AA_?$AAs?$AA?$CI?$AAs?$AAz?$AAO?$AAu?$AAt?$AAM?$AAe?$AAs?$AAs?$AAa?$AAg?$AAe?$AA?0?$AA?5?$AA4?$AA0?$AA9?$AA6?$AA?0?$AA?5?$AAL?$AA?$CC?$AA_@ 004af798     LIBCMTD:dbgrptw.obj
 0002:0000b830       ??_C@_1BI@KALLJECN@?$AA?$CI?$AA?$CK?$AA_?$AAe?$AAr?$AAr?$AAn?$AAo?$AA?$CI?$AA?$CJ?$AA?$CJ?$AA?$AA@ 004af830     LIBCMTD:dbgrptw.obj
 0002:0000b848       ??_C@_1KK@MEFMPOLM@?$AAD?$AAe?$AAb?$AAu?$AAg?$AA?5?$AA?$CF?$AAs?$AA?$CB?$AA?6?$AA?6?$AAP?$AAr?$AAo?$AAg?$AAr?$AAa?$AAm?$AA?3?$AA?5?$AA?$CF?$AAs?$AA?$CF?$AAs?$AA?$CF?$AAs?$AA?$CF?$AAs?$AA?$CF?$AAs?$AA?$CF?$AAs@ 004af848     LIBCMTD:dbgrptw.obj
 0002:0000b8f4       ??_C@_1BE@CGCJKGHI@?$AA?6?$AAM?$AAo?$AAd?$AAu?$AAl?$AAe?$AA?3?$AA?5?$AA?$AA@ 004af8f4     LIBCMTD:dbgrptw.obj
 0002:0000b908       ??_C@_1BA@LNHECFIM@?$AA?6?$AAF?$AAi?$AAl?$AAe?$AA?3?$AA?5?$AA?$AA@ 004af908     LIBCMTD:dbgrptw.obj
 0002:0000b918       ??_C@_1BA@GLLGCPCK@?$AA?6?$AAL?$AAi?$AAn?$AAe?$AA?3?$AA?5?$AA?$AA@ 004af918     LIBCMTD:dbgrptw.obj
 0002:0000b928       ??_C@_15IABLJNFO@?$AA?6?$AA?6?$AA?$AA@ 004af928     LIBCMTD:dbgrptw.obj
 0002:0000b930       ??_C@_1BK@PEDCIPMA@?$AAE?$AAx?$AAp?$AAr?$AAe?$AAs?$AAs?$AAi?$AAo?$AAn?$AA?3?$AA?5?$AA?$AA@ 004af930     LIBCMTD:dbgrptw.obj
 0002:0000b950       ??_C@_1OG@PMPPFHAF@?$AA?6?$AA?6?$AAF?$AAo?$AAr?$AA?5?$AAi?$AAn?$AAf?$AAo?$AAr?$AAm?$AAa?$AAt?$AAi?$AAo?$AAn?$AA?5?$AAo?$AAn?$AA?5?$AAh?$AAo?$AAw?$AA?5?$AAy?$AAo?$AAu?$AAr?$AA?5?$AAp?$AAr@ 004af950     LIBCMTD:dbgrptw.obj
 0002:0000ba38       ??_C@_1NO@LECLLHOL@?$AAm?$AAe?$AAm?$AAc?$AAp?$AAy?$AA_?$AAs?$AA?$CI?$AAs?$AAz?$AAS?$AAh?$AAo?$AAr?$AAt?$AAP?$AAr?$AAo?$AAg?$AAN?$AAa?$AAm?$AAe?$AA?0?$AA?5?$AAs?$AAi?$AAz?$AAe?$AAo?$AAf@ 004afa38     LIBCMTD:dbgrptw.obj
 0002:0000bb18       ??_C@_1CO@EAEJAADC@?$AA?$DM?$AAp?$AAr?$AAo?$AAg?$AAr?$AAa?$AAm?$AA?5?$AAn?$AAa?$AAm?$AAe?$AA?5?$AAu?$AAn?$AAk?$AAn?$AAo?$AAw?$AAn?$AA?$DO?$AA?$AA@ 004afb18     LIBCMTD:dbgrptw.obj
 0002:0000bb48       ??_C@_1GI@DEDNNLCI@?$AAw?$AAc?$AAs?$AAc?$AAp?$AAy?$AA_?$AAs?$AA?$CI?$AAs?$AAz?$AAE?$AAx?$AAe?$AAN?$AAa?$AAm?$AAe?$AA?0?$AA?5?$AA2?$AA6?$AA0?$AA?0?$AA?5?$AAL?$AA?$CC?$AA?$DM?$AAp?$AAr?$AAo?$AAg@ 004afb48     LIBCMTD:dbgrptw.obj
 0002:0000bbb0       ??_C@_1CI@PGJIFDEK@?$AA_?$AA_?$AAc?$AAr?$AAt?$AAM?$AAe?$AAs?$AAs?$AAa?$AAg?$AAe?$AAW?$AAi?$AAn?$AAd?$AAo?$AAw?$AAW?$AA?$AA@ 004afbb0     LIBCMTD:dbgrptw.obj
 0002:0000bbfc       ??_7exception@std@@6B@     004afbfc     LIBCMTD:stdexcpt.obj
 0002:0000bc04       ??_C@_0BC@EOODALEL@Unknown?5exception?$AA@ 004afc04     LIBCMTD:stdexcpt.obj
 0002:0000bc1c       ??_7bad_cast@std@@6B@      004afc1c     LIBCMTD:stdexcpt.obj
 0002:0000bc28       ??_7bad_typeid@std@@6B@    004afc28     LIBCMTD:stdexcpt.obj
 0002:0000bc34       ??_7__non_rtti_object@std@@6B@ 004afc34     LIBCMTD:stdexcpt.obj
 0002:0000bc40       ??_C@_1EC@FABAOFFO@?$AA?$CI?$AAc?$AAo?$AAu?$AAn?$AAt?$AA?5?$AA?$DN?$AA?$DN?$AA?5?$AA0?$AA?$CJ?$AA?5?$AA?$HM?$AA?$HM?$AA?5?$AA?$CI?$AAs?$AAt?$AAr?$AAi?$AAn?$AAg?$AA?5?$AA?$CB?$AA?$DN?$AA?5?$AAN?$AAU?$AAL?$AAL?$AA?$CJ@ 004afc40     LIBCMTD:vsnprnc.obj
 0002:0000bc84       ??_C@_1CE@PCFPEIFI@?$AA_?$AAv?$AAs?$AAn?$AAp?$AAr?$AAi?$AAn?$AAt?$AAf?$AA_?$AAh?$AAe?$AAl?$AAp?$AAe?$AAr?$AA?$AA@ 004afc84     LIBCMTD:vsnprnc.obj
 0002:0000bca8       ??_C@_1GE@DPADKNCG@?$AAf?$AA?3?$AA?2?$AAd?$AAd?$AA?2?$AAv?$AAc?$AAt?$AAo?$AAo?$AAl?$AAs?$AA?2?$AAc?$AAr?$AAt?$AA_?$AAb?$AAl?$AAd?$AA?2?$AAs?$AAe?$AAl?$AAf?$AA_?$AAx?$AA8?$AA6?$AA?2?$AAc@ 004afca8     LIBCMTD:vsnprnc.obj
 0002:0000bd0c       ??_C@_1DA@HPBFKMEB@?$AA?$CI?$AA?$CC?$AAB?$AAu?$AAf?$AAf?$AAe?$AAr?$AA?5?$AAt?$AAo?$AAo?$AA?5?$AAs?$AAm?$AAa?$AAl?$AAl?$AA?$CC?$AA?0?$AA?5?$AA0?$AA?$CJ?$AA?$AA@ 004afd0c     LIBCMTD:vsnprnc.obj
 0002:0000bd40       ??_C@_1EE@OKCKIGFK@?$AAs?$AAt?$AAr?$AAi?$AAn?$AAg?$AA?5?$AA?$CB?$AA?$DN?$AA?5?$AAN?$AAU?$AAL?$AAL?$AA?5?$AA?$CG?$AA?$CG?$AA?5?$AAs?$AAi?$AAz?$AAe?$AAI?$AAn?$AAB?$AAy?$AAt?$AAe?$AAs?$AA?5?$AA?$DO?$AA?5@ 004afd40     LIBCMTD:vsnprnc.obj
 0002:0000bd84       ??_C@_1BM@BLJALHEF@?$AA_?$AAv?$AAs?$AAp?$AAr?$AAi?$AAn?$AAt?$AAf?$AA_?$AAs?$AA_?$AAl?$AA?$AA@ 004afd84     LIBCMTD:vsnprnc.obj
 0002:0000bda0       ??_C@_1BO@MLMCMBKN@?$AAf?$AAo?$AAr?$AAm?$AAa?$AAt?$AA?5?$AA?$CB?$AA?$DN?$AA?5?$AAN?$AAU?$AAL?$AAL?$AA?$AA@ 004afda0     LIBCMTD:vsnprnc.obj
 0002:0000bdc0       ??_C@_1BO@MMPELNIM@?$AA_?$AAv?$AAs?$AAn?$AAp?$AAr?$AAi?$AAn?$AAt?$AAf?$AA_?$AAs?$AA_?$AAl?$AA?$AA@ 004afdc0     LIBCMTD:vsnprnc.obj
 0002:0000bde0       ??_C@_1BAA@ODEGEDCK@?$AA?$CI?$AA?5?$AA?$CI?$AA_?$AAS?$AAt?$AAr?$AAe?$AAa?$AAm?$AA?9?$AA?$DO?$AA_?$AAf?$AAl?$AAa?$AAg?$AA?5?$AA?$CG?$AA?5?$AA_?$AAI?$AAO?$AAS?$AAT?$AAR?$AAG?$AA?$CJ?$AA?5?$AA?$HM?$AA?$HM?$AA?5@ 004afde0     LIBCMTD:vfprintf.obj
 0002:0000bee0       ??_C@_1CA@OEHMHBJF@?$AAv?$AAf?$AAp?$AAr?$AAi?$AAn?$AAt?$AAf?$AA_?$AAh?$AAe?$AAl?$AAp?$AAe?$AAr?$AA?$AA@ 004afee0     LIBCMTD:vfprintf.obj
 0002:0000bf00       ??_C@_1GE@PEEPNGBM@?$AAf?$AA?3?$AA?2?$AAd?$AAd?$AA?2?$AAv?$AAc?$AAt?$AAo?$AAo?$AAl?$AAs?$AA?2?$AAc?$AAr?$AAt?$AA_?$AAb?$AAl?$AAd?$AA?2?$AAs?$AAe?$AAl?$AAf?$AA_?$AAx?$AA8?$AA6?$AA?2?$AAc@ 004aff00     LIBCMTD:vfprintf.obj
 0002:0000bf64       ??_C@_1BM@JMKHIAHP@?$AA?$CI?$AAs?$AAt?$AAr?$AA?5?$AA?$CB?$AA?$DN?$AA?5?$AAN?$AAU?$AAL?$AAL?$AA?$CJ?$AA?$AA@ 004aff64     LIBCMTD:vfprintf.obj
 0002:0000bf80       ??_C@_1O@EGMJNCOI@?$AAf?$AAc?$AAl?$AAo?$AAs?$AAe?$AA?$AA@ 004aff80     LIBCMTD:fclose.obj
 0002:0000bf90       ??_C@_1GA@KMIDAPAP@?$AAf?$AA?3?$AA?2?$AAd?$AAd?$AA?2?$AAv?$AAc?$AAt?$AAo?$AAo?$AAl?$AAs?$AA?2?$AAc?$AAr?$AAt?$AA_?$AAb?$AAl?$AAd?$AA?2?$AAs?$AAe?$AAl?$AAf?$AA_?$AAx?$AA8?$AA6?$AA?2?$AAc@ 004aff90     LIBCMTD:fclose.obj
 0002:0000bff0       ??_C@_1CC@FADMNIL@?$AA?$CI?$AAs?$AAt?$AAr?$AAe?$AAa?$AAm?$AA?5?$AA?$CB?$AA?$DN?$AA?5?$AAN?$AAU?$AAL?$AAL?$AA?$CJ?$AA?$AA@ 004afff0     LIBCMTD:fclose.obj
 0002:0000c014       ??_C@_1BO@JINCABEC@?$AA_?$AAf?$AAc?$AAl?$AAo?$AAs?$AAe?$AA_?$AAn?$AAo?$AAl?$AAo?$AAc?$AAk?$AA?$AA@ 004b0014     LIBCMTD:fclose.obj
 0002:0000c034       ??_C@_1M@CKCKPMNP@?$AAf?$AAt?$AAe?$AAl?$AAl?$AA?$AA@ 004b0034     LIBCMTD:ftell.obj
 0002:0000c040       ??_C@_1FO@NBACIADE@?$AAf?$AA?3?$AA?2?$AAd?$AAd?$AA?2?$AAv?$AAc?$AAt?$AAo?$AAo?$AAl?$AAs?$AA?2?$AAc?$AAr?$AAt?$AA_?$AAb?$AAl?$AAd?$AA?2?$AAs?$AAe?$AAl?$AAf?$AA_?$AAx?$AA8?$AA6?$AA?2?$AAc@ 004b0040     LIBCMTD:ftell.obj
 0002:0000c0a0       ??_C@_1BM@EPIDANEK@?$AA_?$AAf?$AAt?$AAe?$AAl?$AAl?$AA_?$AAn?$AAo?$AAl?$AAo?$AAc?$AAk?$AA?$AA@ 004b00a0     LIBCMTD:ftell.obj
 0002:0000c0c0       ??_C@_1IO@PMHBOLJK@?$AA?$CI?$AA?$CI?$AAw?$AAh?$AAe?$AAn?$AAc?$AAe?$AA?5?$AA?$DN?$AA?$DN?$AA?5?$AAS?$AAE?$AAE?$AAK?$AA_?$AAS?$AAE?$AAT?$AA?$CJ?$AA?5?$AA?$HM?$AA?$HM?$AA?5?$AA?$CI?$AAw?$AAh?$AAe?$AAn?$AAc?$AAe@ 004b00c0     LIBCMTD:fseek.obj
 0002:0000c150       ??_C@_1M@HCCOIONH@?$AAf?$AAs?$AAe?$AAe?$AAk?$AA?$AA@ 004b0150     LIBCMTD:fseek.obj
 0002:0000c160       ??_C@_1FO@ECBPAICH@?$AAf?$AA?3?$AA?2?$AAd?$AAd?$AA?2?$AAv?$AAc?$AAt?$AAo?$AAo?$AAl?$AAs?$AA?2?$AAc?$AAr?$AAt?$AA_?$AAb?$AAl?$AAd?$AA?2?$AAs?$AAe?$AAl?$AAf?$AA_?$AAx?$AA8?$AA6?$AA?2?$AAc@ 004b0160     LIBCMTD:fseek.obj
 0002:0000c1c0       ??_C@_1CI@HBNALCBB@?$AA?$CI?$AA?$CK?$AAm?$AAo?$AAd?$AAe?$AA?5?$AA?$CB?$AA?$DN?$AA?5?$AA_?$AAT?$AA?$CI?$AA?8?$AA?2?$AA0?$AA?8?$AA?$CJ?$AA?$CJ?$AA?$AA@ 004b01c0     LIBCMTD:fopen.obj
 0002:0000c1e8       ??_C@_1BO@MJMKAKCJ@?$AA?$CI?$AAm?$AAo?$AAd?$AAe?$AA?5?$AA?$CB?$AA?$DN?$AA?5?$AAN?$AAU?$AAL?$AAL?$AA?$CJ?$AA?$AA@ 004b01e8     LIBCMTD:fopen.obj
 0002:0000c208       ??_C@_1BA@HNEAFMNL@?$AA_?$AAf?$AAs?$AAo?$AAp?$AAe?$AAn?$AA?$AA@ 004b0208     LIBCMTD:fopen.obj
 0002:0000c218       ??_C@_1FO@NCADDBOO@?$AAf?$AA?3?$AA?2?$AAd?$AAd?$AA?2?$AAv?$AAc?$AAt?$AAo?$AAo?$AAl?$AAs?$AA?2?$AAc?$AAr?$AAt?$AA_?$AAb?$AAl?$AAd?$AA?2?$AAs?$AAe?$AAl?$AAf?$AA_?$AAx?$AA8?$AA6?$AA?2?$AAc@ 004b0218     LIBCMTD:fopen.obj
 0002:0000c278       ??_C@_1BO@CLGIAEOJ@?$AA?$CI?$AAf?$AAi?$AAl?$AAe?$AA?5?$AA?$CB?$AA?$DN?$AA?5?$AAN?$AAU?$AAL?$AAL?$AA?$CJ?$AA?$AA@ 004b0278     LIBCMTD:fopen.obj
 0002:0000c298       ??_C@_1BA@PBGKCCAP@?$AAf?$AAo?$AAp?$AAe?$AAn?$AA_?$AAs?$AA?$AA@ 004b0298     LIBCMTD:fopen.obj
 0002:0000c2a8       ??_C@_1CA@LLJLFCDN@?$AA?$CI?$AAp?$AAf?$AAi?$AAl?$AAe?$AA?5?$AA?$CB?$AA?$DN?$AA?5?$AAN?$AAU?$AAL?$AAL?$AA?$CJ?$AA?$AA@ 004b02a8     LIBCMTD:fopen.obj
 0002:0000c2c8       ??_C@_0DA@HMCPFNKN@f?3?2dd?2vctools?2crt_bld?2self_x86?2c@ 004b02c8     LIBCMTD:onexit.obj
 0002:0000c2f8       ??_C@_0BI@BKLFFAPO@SetThreadStackGuarantee?$AA@ 004b02f8     LIBCMTD:resetstk.obj
 0002:0000c310       ??_C@_1BK@MGMFAEKH@?$AAk?$AAe?$AAr?$AAn?$AAe?$AAl?$AA3?$AA2?$AA?4?$AAd?$AAl?$AAl?$AA?$AA@ 004b0310     LIBCMTD:resetstk.obj
 0002:0000c32c       ??_C@_1CK@DDKKOLAN@?$AAs?$AAi?$AAz?$AAe?$AAI?$AAn?$AAB?$AAy?$AAt?$AAe?$AAs?$AA?5?$AA?$DO?$AA?$DN?$AA?5?$AAc?$AAo?$AAu?$AAn?$AAt?$AA?$AA@ 004b032c     LIBCMTD:memcpy_s.obj
 0002:0000c358       ??_C@_1BI@DCHLDCPP@?$AAs?$AAr?$AAc?$AA?5?$AA?$CB?$AA?$DN?$AA?5?$AAN?$AAU?$AAL?$AAL?$AA?$AA@ 004b0358     LIBCMTD:memcpy_s.obj
 0002:0000c370       ??_C@_1BC@GKHDJMGB@?$AAm?$AAe?$AAm?$AAc?$AAp?$AAy?$AA_?$AAs?$AA?$AA@ 004b0370     LIBCMTD:memcpy_s.obj
 0002:0000c388       ??_C@_1GE@NEOPGGBM@?$AAf?$AA?3?$AA?2?$AAd?$AAd?$AA?2?$AAv?$AAc?$AAt?$AAo?$AAo?$AAl?$AAs?$AA?2?$AAc?$AAr?$AAt?$AA_?$AAb?$AAl?$AAd?$AA?2?$AAs?$AAe?$AAl?$AAf?$AA_?$AAx?$AA8?$AA6?$AA?2?$AAc@ 004b0388     LIBCMTD:memcpy_s.obj
 0002:0000c3ec       ??_C@_1BI@GKKCBDMD@?$AAd?$AAs?$AAt?$AA?5?$AA?$CB?$AA?$DN?$AA?5?$AAN?$AAU?$AAL?$AAL?$AA?$AA@ 004b03ec     LIBCMTD:memcpy_s.obj
 0002:0000c404       ??_C@_1BK@DLEGNDH@?$AAs?$AAt?$AAr?$AA1?$AA?5?$AA?$CB?$AA?$DN?$AA?5?$AAN?$AAU?$AAL?$AAL?$AA?$AA@ 004b0404     LIBCMTD:mbsstr.obj
 0002:0000c420       ??_C@_1BE@KLCPDEDD@?$AA_?$AAm?$AAb?$AAs?$AAs?$AAt?$AAr?$AA_?$AAl?$AA?$AA@ 004b0420     LIBCMTD:mbsstr.obj
 0002:0000c438       ??_C@_1GA@FCKKOGFM@?$AAf?$AA?3?$AA?2?$AAd?$AAd?$AA?2?$AAv?$AAc?$AAt?$AAo?$AAo?$AAl?$AAs?$AA?2?$AAc?$AAr?$AAt?$AA_?$AAb?$AAl?$AAd?$AA?2?$AAs?$AAe?$AAl?$AAf?$AA_?$AAx?$AA8?$AA6?$AA?2?$AAc@ 004b0438     LIBCMTD:mbsstr.obj
 0002:0000c498       ??_C@_1BK@KMBNCAPN@?$AAs?$AAt?$AAr?$AA2?$AA?5?$AA?$CB?$AA?$DN?$AA?5?$AAN?$AAU?$AAL?$AAL?$AA?$AA@ 004b0498     LIBCMTD:mbsstr.obj
 0002:0000c4b4       ??_C@_06PJIGMIJB@Client?$AA@ 004b04b4     LIBCMTD:dbgheap.obj
 0002:0000c4bc       ??_C@_06KMEJCCGM@Ignore?$AA@ 004b04bc     LIBCMTD:dbgheap.obj
 0002:0000c4c4       ??_C@_03OGPFLFLO@CRT?$AA@  004b04c4     LIBCMTD:dbgheap.obj
 0002:0000c4c8       ??_C@_06EFAGIKOH@Normal?$AA@ 004b04c8     LIBCMTD:dbgheap.obj
 0002:0000c4d0       ??_C@_04HJMOFLDF@Free?$AA@ 004b04d0     LIBCMTD:dbgheap.obj
 0002:0000c4ec       ??_C@_0DC@JEMAGEKG@Error?3?5memory?5allocation?3?5bad?5me@ 004b04ec     LIBCMTD:dbgheap.obj
 0002:0000c520       ??_C@_0CF@BICKFLAF@Invalid?5allocation?5size?3?5?$CFIu?5byt@ 004b0520     LIBCMTD:dbgheap.obj
 0002:0000c548       ??_C@_02DKCKIIND@?$CFs?$AA@ 004b0548     LIBCMTD:dbgheap.obj
 0002:0000c54c       ??_C@_0CB@CCLOLAHO@Client?5hook?5allocation?5failure?4?6@ 004b054c     LIBCMTD:dbgheap.obj
 0002:0000c570       ??_C@_0DF@BBEGIFEK@Client?5hook?5allocation?5failure?5a@ 004b0570     LIBCMTD:dbgheap.obj
 0002:0000c5a8       ??_C@_1GC@DNJKKEAA@?$AAf?$AA?3?$AA?2?$AAd?$AAd?$AA?2?$AAv?$AAc?$AAt?$AAo?$AAo?$AAl?$AAs?$AA?2?$AAc?$AAr?$AAt?$AA_?$AAb?$AAl?$AAd?$AA?2?$AAs?$AAe?$AAl?$AAf?$AA_?$AAx?$AA8?$AA6?$AA?2?$AAc@ 004b05a8     LIBCMTD:dbgheap.obj
 0002:0000c60c       ??_C@_1CE@LJFEPPMP@?$AA_?$AAC?$AAr?$AAt?$AAC?$AAh?$AAe?$AAc?$AAk?$AAM?$AAe?$AAm?$AAo?$AAr?$AAy?$AA?$CI?$AA?$CJ?$AA?$AA@ 004b060c     LIBCMTD:dbgheap.obj
 0002:0000c630       ??_C@_1DE@KOOKLFBB@?$AA_?$AAp?$AAF?$AAi?$AAr?$AAs?$AAt?$AAB?$AAl?$AAo?$AAc?$AAk?$AA?5?$AA?$DN?$AA?$DN?$AA?5?$AAp?$AAO?$AAl?$AAd?$AAB?$AAl?$AAo?$AAc?$AAk?$AA?$AA@ 004b0630     LIBCMTD:dbgheap.obj
 0002:0000c664       ??_C@_1DC@GEFKNOOL@?$AA_?$AAp?$AAL?$AAa?$AAs?$AAt?$AAB?$AAl?$AAo?$AAc?$AAk?$AA?5?$AA?$DN?$AA?$DN?$AA?5?$AAp?$AAO?$AAl?$AAd?$AAB?$AAl?$AAo?$AAc?$AAk?$AA?$AA@ 004b0664     LIBCMTD:dbgheap.obj
 0002:0000c698       ??_C@_1GE@PCKLOLAO@?$AAf?$AAR?$AAe?$AAa?$AAl?$AAl?$AAo?$AAc?$AA?5?$AA?$HM?$AA?$HM?$AA?5?$AA?$CI?$AA?$CB?$AAf?$AAR?$AAe?$AAa?$AAl?$AAl?$AAo?$AAc?$AA?5?$AA?$CG?$AA?$CG?$AA?5?$AAp?$AAN?$AAe?$AAw?$AAB?$AAl@ 004b0698     LIBCMTD:dbgheap.obj
 0002:0000c6fc       ??_C@_0DA@HFBKENN@Error?3?5possible?5heap?5corruption?5@ 004b06fc     LIBCMTD:dbgheap.obj
 0002:0000c730       ??_C@_1IK@DCPKDGNH@?$AAp?$AAO?$AAl?$AAd?$AAB?$AAl?$AAo?$AAc?$AAk?$AA?9?$AA?$DO?$AAn?$AAL?$AAi?$AAn?$AAe?$AA?5?$AA?$DN?$AA?$DN?$AA?5?$AAI?$AAG?$AAN?$AAO?$AAR?$AAE?$AA_?$AAL?$AAI?$AAN?$AAE?$AA?5@ 004b0730     LIBCMTD:dbgheap.obj
 0002:0000c7c0       ??_C@_1EE@GFOPCECE@?$AA_?$AAC?$AAr?$AAt?$AAI?$AAs?$AAV?$AAa?$AAl?$AAi?$AAd?$AAH?$AAe?$AAa?$AAp?$AAP?$AAo?$AAi?$AAn?$AAt?$AAe?$AAr?$AA?$CI?$AAp?$AAU?$AAs?$AAe?$AAr?$AAD?$AAa?$AAt?$AAa@ 004b07c0     LIBCMTD:dbgheap.obj
 0002:0000c808       ??_C@_0EM@LGFLMAGJ@The?5Block?5at?50x?$CFp?5was?5allocated?5@ 004b0808     LIBCMTD:dbgheap.obj
 0002:0000c858       ??_C@_0FA@EFEIGJKG@Error?3?5memory?5allocation?3?5bad?5me@ 004b0858     LIBCMTD:dbgheap.obj
 0002:0000c8a8       ??_C@_0ED@GPCPBAGP@Invalid?5allocation?5size?3?5?$CFIu?5byt@ 004b08a8     LIBCMTD:dbgheap.obj
 0002:0000c8ec       ??_C@_0CE@DOFMDOL@Client?5hook?5re?9allocation?5failur@ 004b08ec     LIBCMTD:dbgheap.obj
 0002:0000c910       ??_C@_0DI@KKJPDPGM@Client?5hook?5re?9allocation?5failur@ 004b0910     LIBCMTD:dbgheap.obj
 0002:0000c948       ??_C@_1BI@HAPNGHDP@?$AA_?$AAe?$AAx?$AAp?$AAa?$AAn?$AAd?$AA_?$AAd?$AAb?$AAg?$AA?$AA@ 004b0948     LIBCMTD:dbgheap.obj
 0002:0000c960       ??_C@_1CE@CJACEFBA@?$AAp?$AAU?$AAs?$AAe?$AAr?$AAD?$AAa?$AAt?$AAa?$AA?5?$AA?$CB?$AA?$DN?$AA?5?$AAN?$AAU?$AAL?$AAL?$AA?$AA@ 004b0960     LIBCMTD:dbgheap.obj
 0002:0000c984       ??_C@_1CM@MMAADDMD@?$AA_?$AAp?$AAF?$AAi?$AAr?$AAs?$AAt?$AAB?$AAl?$AAo?$AAc?$AAk?$AA?5?$AA?$DN?$AA?$DN?$AA?5?$AAp?$AAH?$AAe?$AAa?$AAd?$AA?$AA@ 004b0984     LIBCMTD:dbgheap.obj
 0002:0000c9b0       ??_C@_1CK@DMAGEMBG@?$AA_?$AAp?$AAL?$AAa?$AAs?$AAt?$AAB?$AAl?$AAo?$AAc?$AAk?$AA?5?$AA?$DN?$AA?$DN?$AA?5?$AAp?$AAH?$AAe?$AAa?$AAd?$AA?$AA@ 004b09b0     LIBCMTD:dbgheap.obj
 0002:0000c9dc       ??_C@_1DM@ODCJIDCP@?$AAp?$AAH?$AAe?$AAa?$AAd?$AA?9?$AA?$DO?$AAn?$AAB?$AAl?$AAo?$AAc?$AAk?$AAU?$AAs?$AAe?$AA?5?$AA?$DN?$AA?$DN?$AA?5?$AAn?$AAB?$AAl?$AAo?$AAc?$AAk?$AAU?$AAs?$AAe?$AA?$AA@ 004b09dc     LIBCMTD:dbgheap.obj
 0002:0000ca18       ??_C@_1HK@HPCBMDFG@?$AAp?$AAH?$AAe?$AAa?$AAd?$AA?9?$AA?$DO?$AAn?$AAL?$AAi?$AAn?$AAe?$AA?5?$AA?$DN?$AA?$DN?$AA?5?$AAI?$AAG?$AAN?$AAO?$AAR?$AAE?$AA_?$AAL?$AAI?$AAN?$AAE?$AA?5?$AA?$CG?$AA?$CG?$AA?5?$AAp@ 004b0a18     LIBCMTD:dbgheap.obj
 0002:0000ca98       ??_C@_0IG@LEMBDCJK@HEAP?5CORRUPTION?5DETECTED?3?5after?5@ 004b0a98     LIBCMTD:dbgheap.obj
 0002:0000cb20       ??_C@_0KE@MBMNHHHN@HEAP?5CORRUPTION?5DETECTED?3?5after?5@ 004b0b20     LIBCMTD:dbgheap.obj
 0002:0000cbc8       ??_C@_0IK@PJCGLBOB@HEAP?5CORRUPTION?5DETECTED?3?5before@ 004b0bc8     LIBCMTD:dbgheap.obj
 0002:0000cc58       ??_C@_0KI@JGFOHMEB@HEAP?5CORRUPTION?5DETECTED?3?5before@ 004b0c58     LIBCMTD:dbgheap.obj
 0002:0000cd00       ??_C@_0BL@KEIPLFAC@Client?5hook?5free?5failure?4?6?$AA@ 004b0d00     LIBCMTD:dbgheap.obj
 0002:0000cd20       ??_C@_0EJ@HEIBCIMJ@The?5Block?5at?50x?$CFp?5was?5allocated?5@ 004b0d20     LIBCMTD:dbgheap.obj
 0002:0000cd6c       ??_C@_1BG@MBKOGDLD@?$AA_?$AAm?$AAs?$AAi?$AAz?$AAe?$AA_?$AAd?$AAb?$AAg?$AA?$AA@ 004b0d6c     LIBCMTD:dbgheap.obj
 0002:0000cd84       ??_C@_0CI@JMLBEDHJ@?$CFhs?5located?5at?50x?$CFp?5is?5?$CFIu?5bytes@ 004b0d84     LIBCMTD:dbgheap.obj
 0002:0000cdb0       ??_C@_0EG@DGJMPDBH@?$CFhs?5located?5at?50x?$CFp?5is?5?$CFIu?5bytes@ 004b0db0     LIBCMTD:dbgheap.obj
 0002:0000cdf8       ??_C@_0IC@BBJIOOJH@HEAP?5CORRUPTION?5DETECTED?3?5on?5top@ 004b0df8     LIBCMTD:dbgheap.obj
 0002:0000ce80       ??_C@_0KA@IHNJJKPL@HEAP?5CORRUPTION?5DETECTED?3?5on?5top@ 004b0e80     LIBCMTD:dbgheap.obj
 0002:0000cf20       ??_C@_07OHKEFPKJ@DAMAGED?$AA@ 004b0f20     LIBCMTD:dbgheap.obj
 0002:0000cf28       ??_C@_0CL@HNNNMKMJ@_heapchk?5fails?5with?5unknown?5retu@ 004b0f28     LIBCMTD:dbgheap.obj
 0002:0000cf54       ??_C@_0CC@MFFCHFHO@_heapchk?5fails?5with?5_HEAPBADPTR?4@ 004b0f54     LIBCMTD:dbgheap.obj
 0002:0000cf78       ??_C@_0CC@MJGLGBDG@_heapchk?5fails?5with?5_HEAPBADEND?4@ 004b0f78     LIBCMTD:dbgheap.obj
 0002:0000cf9c       ??_C@_0CD@CPKEAPBD@_heapchk?5fails?5with?5_HEAPBADNODE@ 004b0f9c     LIBCMTD:dbgheap.obj
 0002:0000cfc0       ??_C@_0CE@MKKHMBMK@_heapchk?5fails?5with?5_HEAPBADBEGI@ 004b0fc0     LIBCMTD:dbgheap.obj
 0002:0000cfe4       ??_C@_1BO@GJFDNMNF@?$AA_?$AAC?$AAr?$AAt?$AAS?$AAe?$AAt?$AAD?$AAb?$AAg?$AAF?$AAl?$AAa?$AAg?$AA?$AA@ 004b0fe4     LIBCMTD:dbgheap.obj
 0002:0000d008       ??_C@_1BHO@NNANJNF@?$AA?$CI?$AAf?$AAN?$AAe?$AAw?$AAB?$AAi?$AAt?$AAs?$AA?$DN?$AA?$DN?$AA_?$AAC?$AAR?$AAT?$AAD?$AAB?$AAG?$AA_?$AAR?$AAE?$AAP?$AAO?$AAR?$AAT?$AA_?$AAF?$AAL?$AAA?$AAG?$AA?$CJ?$AA?5@ 004b1008     LIBCMTD:dbgheap.obj
 0002:0000d188       ??_C@_1DE@GJCKCKEC@?$AA_?$AAC?$AAr?$AAt?$AAD?$AAo?$AAF?$AAo?$AAr?$AAA?$AAl?$AAl?$AAC?$AAl?$AAi?$AAe?$AAn?$AAt?$AAO?$AAb?$AAj?$AAe?$AAc?$AAt?$AAs?$AA?$AA@ 004b1188     LIBCMTD:dbgheap.obj
 0002:0000d1bc       ??_C@_1BI@CJGCEEDL@?$AAp?$AAf?$AAn?$AA?5?$AA?$CB?$AA?$DN?$AA?5?$AAN?$AAU?$AAL?$AAL?$AA?$AA@ 004b11bc     LIBCMTD:dbgheap.obj
 0002:0000d1d4       ??_C@_0CB@EAAIGELO@Bad?5memory?5block?5found?5at?50x?$CFp?4?6@ 004b11d4     LIBCMTD:dbgheap.obj
 0002:0000d1f8       ??_C@_0DP@LEFMFBOD@Bad?5memory?5block?5found?5at?50x?$CFp?4?6@ 004b11f8     LIBCMTD:dbgheap.obj
 0002:0000d238       ??_C@_1CE@NJJKELF@?$AA_?$AAC?$AAr?$AAt?$AAM?$AAe?$AAm?$AAC?$AAh?$AAe?$AAc?$AAk?$AAp?$AAo?$AAi?$AAn?$AAt?$AA?$AA@ 004b1238     LIBCMTD:dbgheap.obj
 0002:0000d25c       ??_C@_1BM@MIMANDHC@?$AAs?$AAt?$AAa?$AAt?$AAe?$AA?5?$AA?$CB?$AA?$DN?$AA?5?$AAN?$AAU?$AAL?$AAL?$AA?$AA@ 004b125c     LIBCMTD:dbgheap.obj
 0002:0000d278       ??_C@_1CC@DFPEDFBP@?$AAn?$AAe?$AAw?$AAS?$AAt?$AAa?$AAt?$AAe?$AA?5?$AA?$CB?$AA?$DN?$AA?5?$AAN?$AAU?$AAL?$AAL?$AA?$AA@ 004b1278     LIBCMTD:dbgheap.obj
 0002:0000d29c       ??_C@_1CC@DHPFEMMN@?$AAo?$AAl?$AAd?$AAS?$AAt?$AAa?$AAt?$AAe?$AA?5?$AA?$CB?$AA?$DN?$AA?5?$AAN?$AAU?$AAL?$AAL?$AA?$AA@ 004b129c     LIBCMTD:dbgheap.obj
 0002:0000d2c0       ??_C@_1CE@PDIENACM@?$AA_?$AAC?$AAr?$AAt?$AAM?$AAe?$AAm?$AAD?$AAi?$AAf?$AAf?$AAe?$AAr?$AAe?$AAn?$AAc?$AAe?$AA?$AA@ 004b12c0     LIBCMTD:dbgheap.obj
 0002:0000d2e4       ??_C@_0BH@GFGKJDCO@Object?5dump?5complete?4?6?$AA@ 004b12e4     LIBCMTD:dbgheap.obj
 0002:0000d2fc       ??_C@_0DA@MDLBNIBM@crt?5block?5at?50x?$CFp?0?5subtype?5?$CFx?0?5?$CF@ 004b12fc     LIBCMTD:dbgheap.obj
 0002:0000d32c       ??_C@_0CH@FAGDDGPN@normal?5block?5at?50x?$CFp?0?5?$CFIu?5bytes?5@ 004b132c     LIBCMTD:dbgheap.obj
 0002:0000d354       ??_C@_0DD@GHNAAKBB@client?5block?5at?50x?$CFp?0?5subtype?5?$CFx@ 004b1354     LIBCMTD:dbgheap.obj
 0002:0000d388       ??_C@_06PKLGBFGM@?$HL?$CFld?$HN?5?$AA@ 004b1388     LIBCMTD:dbgheap.obj
 0002:0000d390       ??_C@_0L@JMEFFCCJ@?$CFhs?$CI?$CFd?$CJ?5?3?5?$AA@ 004b1390     LIBCMTD:dbgheap.obj
 0002:0000d39c       ??_C@_0BE@OIEFNFL@?$CDFile?5Error?$CD?$CI?$CFd?$CJ?5?3?5?$AA@ 004b139c     LIBCMTD:dbgheap.obj
 0002:0000d3b0       ??_C@_0BE@KCIPKCIA@Dumping?5objects?5?9?$DO?6?$AA@ 004b13b0     LIBCMTD:dbgheap.obj
 0002:0000d3c4       ??_C@_0BA@HJBKCELP@?5Data?3?5?$DM?$CFs?$DO?5?$CFs?6?$AA@ 004b13c4     LIBCMTD:dbgheap.obj
 0002:0000d3d4       ??_C@_1CG@LPFIACGM@?$AA_?$AAp?$AAr?$AAi?$AAn?$AAt?$AAM?$AAe?$AAm?$AAB?$AAl?$AAo?$AAc?$AAk?$AAD?$AAa?$AAt?$AAa?$AA?$AA@ 004b13d4     LIBCMTD:dbgheap.obj
 0002:0000d3fc       ??_C@_05MKKEDADM@?$CF?42X?5?$AA@ 004b13fc     LIBCMTD:dbgheap.obj
 0002:0000d404       ??_C@_0BI@JBFPOEJA@Detected?5memory?5leaks?$CB?6?$AA@ 004b1404     LIBCMTD:dbgheap.obj
 0002:0000d41c       ??_C@_0BP@DEDHGGGI@Total?5allocations?3?5?$CFId?5bytes?4?6?$AA@ 004b141c     LIBCMTD:dbgheap.obj
 0002:0000d43c       ??_C@_0CB@BLHDAFNE@Largest?5number?5used?3?5?$CFId?5bytes?4?6@ 004b143c     LIBCMTD:dbgheap.obj
 0002:0000d460       ??_C@_0BO@DACNIABB@?$CFId?5bytes?5in?5?$CFId?5?$CFhs?5Blocks?4?6?$AA@ 004b1460     LIBCMTD:dbgheap.obj
 0002:0000d480       ??_C@_1CM@MPNIBKGK@?$AA_?$AAC?$AAr?$AAt?$AAM?$AAe?$AAm?$AAD?$AAu?$AAm?$AAp?$AAS?$AAt?$AAa?$AAt?$AAi?$AAs?$AAt?$AAi?$AAc?$AAs?$AA?$AA@ 004b1480     LIBCMTD:dbgheap.obj
 0002:0000d4ac       ??_C@_1DK@LFLKFPDA@?$AAo?$AAf?$AAf?$AAs?$AAe?$AAt?$AA?5?$AA?$DN?$AA?$DN?$AA?5?$AA0?$AA?5?$AA?$HM?$AA?$HM?$AA?5?$AAo?$AAf?$AAf?$AAs?$AAe?$AAt?$AA?5?$AA?$DM?$AA?5?$AAs?$AAi?$AAz?$AAe?$AA?$AA@ 004b14ac     LIBCMTD:dbgheap.obj
 0002:0000d4e8       ??_C@_1DG@DONCJBBJ@?$AA_?$AAa?$AAl?$AAi?$AAg?$AAn?$AAe?$AAd?$AA_?$AAo?$AAf?$AAf?$AAs?$AAe?$AAt?$AA_?$AAm?$AAa?$AAl?$AAl?$AAo?$AAc?$AA_?$AAd?$AAb?$AAg?$AA?$AA@ 004b14e8     LIBCMTD:dbgheap.obj
 0002:0000d520       ??_C@_1CE@NPMGPNNP@?$AAI?$AAS?$AA_?$AA2?$AA_?$AAP?$AAO?$AAW?$AA_?$AAN?$AA?$CI?$AAa?$AAl?$AAi?$AAg?$AAn?$AA?$CJ?$AA?$AA@ 004b1520     LIBCMTD:dbgheap.obj
 0002:0000d544       ??_C@_1DI@NINIKFFK@?$AA_?$AAa?$AAl?$AAi?$AAg?$AAn?$AAe?$AAd?$AA_?$AAo?$AAf?$AAf?$AAs?$AAe?$AAt?$AA_?$AAr?$AAe?$AAa?$AAl?$AAl?$AAo?$AAc?$AA_?$AAd?$AAb?$AAg?$AA?$AA@ 004b1544     LIBCMTD:dbgheap.obj
 0002:0000d57c       ??_C@_0DL@PGHMMKNE@Damage?5before?50x?$CFp?5which?5was?5all@ 004b157c     LIBCMTD:dbgheap.obj
 0002:0000d5b8       ??_C@_0EI@NDNJMAJK@The?5block?5at?50x?$CFp?5was?5not?5alloca@ 004b15b8     LIBCMTD:dbgheap.obj
 0002:0000d600       ??_C@_0EF@PGELACII@The?5block?5at?50x?$CFp?5was?5not?5alloca@ 004b1600     LIBCMTD:dbgheap.obj
 0002:0000d648       ??_C@_1CG@CEGMHIMN@?$AA_?$AAa?$AAl?$AAi?$AAg?$AAn?$AAe?$AAd?$AA_?$AAm?$AAs?$AAi?$AAz?$AAe?$AA_?$AAd?$AAb?$AAg?$AA?$AA@ 004b1648     LIBCMTD:dbgheap.obj
 0002:0000d670       ??_C@_1CC@MOBIKHH@?$AAm?$AAe?$AAm?$AAb?$AAl?$AAo?$AAc?$AAk?$AA?5?$AA?$CB?$AA?$DN?$AA?5?$AAN?$AAU?$AAL?$AAL?$AA?$AA@ 004b1670     LIBCMTD:dbgheap.obj
 0002:0000d694       __FPinit                   004b1694     LIBCMTD:_fpinit_.obj
 0002:0000d698       ??_C@_1CC@FPMHPAM@?$AA?$CI?$AA?5?$AAt?$AAi?$AAm?$AAp?$AA?5?$AA?$CB?$AA?$DN?$AA?5?$AAN?$AAU?$AAL?$AAL?$AA?5?$AA?$CJ?$AA?$AA@ 004b1698     LIBCMTD:gmtime64.obj
 0002:0000d6bc       ??_C@_1BI@BFNFPMLP@?$AA_?$AAg?$AAm?$AAt?$AAi?$AAm?$AAe?$AA6?$AA4?$AA_?$AAs?$AA?$AA@ 004b16bc     LIBCMTD:gmtime64.obj
 0002:0000d6d8       ??_C@_1GE@CKMEKJPD@?$AAf?$AA?3?$AA?2?$AAd?$AAd?$AA?2?$AAv?$AAc?$AAt?$AAo?$AAo?$AAl?$AAs?$AA?2?$AAc?$AAr?$AAt?$AA_?$AAb?$AAl?$AAd?$AA?2?$AAs?$AAe?$AAl?$AAf?$AA_?$AAx?$AA8?$AA6?$AA?2?$AAc@ 004b16d8     LIBCMTD:gmtime64.obj
 0002:0000d73c       ??_C@_1CA@NJFECEIO@?$AA?$CI?$AA?5?$AAp?$AAt?$AAm?$AA?5?$AA?$CB?$AA?$DN?$AA?5?$AAN?$AAU?$AAL?$AAL?$AA?5?$AA?$CJ?$AA?$AA@ 004b173c     LIBCMTD:gmtime64.obj
 0002:0000d75c       ??_C@_1DA@LIIANGMH@?$AAs?$AAr?$AAc?$AA?5?$AA?$CB?$AA?$DN?$AA?5?$AAN?$AAU?$AAL?$AAL?$AA?5?$AA?$HM?$AA?$HM?$AA?5?$AAc?$AAn?$AAt?$AA?5?$AA?$DN?$AA?$DN?$AA?5?$AA0?$AA?$AA@ 004b175c     LIBCMTD:mbsnbcpy.obj
 0002:0000d78c       ??_C@_1BI@HCGBGHAL@?$AA_?$AAm?$AAb?$AAs?$AAn?$AAb?$AAc?$AAp?$AAy?$AA_?$AAl?$AA?$AA@ 004b178c     LIBCMTD:mbsnbcpy.obj
 0002:0000d7a8       ??_C@_1GE@EFAKHFIO@?$AAf?$AA?3?$AA?2?$AAd?$AAd?$AA?2?$AAv?$AAc?$AAt?$AAo?$AAo?$AAl?$AAs?$AA?2?$AAc?$AAr?$AAt?$AA_?$AAb?$AAl?$AAd?$AA?2?$AAs?$AAe?$AAl?$AAf?$AA_?$AAx?$AA8?$AA6?$AA?2?$AAc@ 004b17a8     LIBCMTD:mbsnbcpy.obj
 0002:0000d80c       ??_C@_1DA@DGICPMP@?$AAd?$AAs?$AAt?$AA?5?$AA?$CB?$AA?$DN?$AA?5?$AAN?$AAU?$AAL?$AAL?$AA?5?$AA?$HM?$AA?$HM?$AA?5?$AAc?$AAn?$AAt?$AA?5?$AA?$DN?$AA?$DN?$AA?5?$AA0?$AA?$AA@ 004b180c     LIBCMTD:mbsnbcpy.obj
 0002:0000d840       ??_C@_1FE@CEHLKAHD@?$AAi?$AAb?$AAa?$AAs?$AAe?$AA?5?$AA?$DN?$AA?$DN?$AA?5?$AA0?$AA?5?$AA?$HM?$AA?$HM?$AA?5?$AA?$CI?$AA2?$AA?5?$AA?$DM?$AA?$DN?$AA?5?$AAi?$AAb?$AAa?$AAs?$AAe?$AA?5?$AA?$CG?$AA?$CG?$AA?5?$AAi?$AAb?$AAa@ 004b1840     LIBCMTD:strtol.obj
 0002:0000d894       ??_C@_1BA@LOLAMAJG@?$AAs?$AAt?$AAr?$AAt?$AAo?$AAx?$AAl?$AA?$AA@ 004b1894     LIBCMTD:strtol.obj
 0002:0000d8a8       ??_C@_1GA@IPHKKOEI@?$AAf?$AA?3?$AA?2?$AAd?$AAd?$AA?2?$AAv?$AAc?$AAt?$AAo?$AAo?$AAl?$AAs?$AA?2?$AAc?$AAr?$AAt?$AA_?$AAb?$AAl?$AAd?$AA?2?$AAs?$AAe?$AAl?$AAf?$AA_?$AAx?$AA8?$AA6?$AA?2?$AAc@ 004b18a8     LIBCMTD:strtol.obj
 0002:0000d908       ??_C@_1BK@LAOAACLJ@?$AAn?$AAp?$AAt?$AAr?$AA?5?$AA?$CB?$AA?$DN?$AA?5?$AAN?$AAU?$AAL?$AAL?$AA?$AA@ 004b1908     LIBCMTD:strtol.obj
 0002:0000d924       __pDestructExceptionObject 004b1924     LIBCMTD:frame.obj
 0002:0000d928       ??_C@_0O@DPKOEFFH@bad?5exception?$AA@ 004b1928     LIBCMTD:frame.obj
 0002:0000d93c       ??_7bad_exception@std@@6B@ 004b193c     LIBCMTD:frame.obj
 0002:0000d944       ??_C@_0DC@LMJHGCKC@f?3?2dd?2vctools?2crt_bld?2self_x86?2c@ 004b1944     LIBCMTD:tidtable.obj
 0002:0000d978       ??_C@_07PEJMOBNF@FlsFree?$AA@ 004b1978     LIBCMTD:tidtable.obj
 0002:0000d980       ??_C@_0M@JCPCPOEF@FlsSetValue?$AA@ 004b1980     LIBCMTD:tidtable.obj
 0002:0000d98c       ??_C@_0M@GDNOONDI@FlsGetValue?$AA@ 004b198c     LIBCMTD:tidtable.obj
 0002:0000d998       ??_C@_08KNHFBNJ@FlsAlloc?$AA@ 004b1998     LIBCMTD:tidtable.obj
 0002:0000d9a4       ??_C@_1BK@DBDEIDLH@?$AAK?$AAE?$AAR?$AAN?$AAE?$AAL?$AA3?$AA2?$AA?4?$AAD?$AAL?$AAL?$AA?$AA@ 004b19a4     LIBCMTD:tidtable.obj
 0002:0000d9c8       ??_C@_0BO@GNIAFIKK@Unknown?5Runtime?5Check?5Error?6?$AN?$AA@ 004b19c8     LIBCMTD:_error_.obj
 0002:0000d9e8       ??_C@_0CM@NGINOKPC@Stack?5memory?5around?5_alloca?5was?5@ 004b19e8     LIBCMTD:_error_.obj
 0002:0000da14       ??_C@_0DG@HKJMLLLP@A?5local?5variable?5was?5used?5before@ 004b1a14     LIBCMTD:_error_.obj
 0002:0000da4c       ??_C@_0BN@FFOINMNJ@Stack?5memory?5was?5corrupted?6?$AN?$AA@ 004b1a4c     LIBCMTD:_error_.obj
 0002:0000da70       ??_C@_0BBN@GPMLNJCF@A?5cast?5to?5a?5smaller?5data?5type?5ha@ 004b1a70     LIBCMTD:_error_.obj
 0002:0000db90       ??_C@_0NN@NGPKDKPD@The?5value?5of?5ESP?5was?5not?5properl@ 004b1b90     LIBCMTD:_error_.obj
 0002:0000dd0c       ??_C@_0CA@IODNCDPG@Run?9Time?5Check?5Failure?5?$CD?$CFd?5?9?5?$CFs?$AA@ 004b1d0c     LIBCMTD:_error_.obj
 0002:0000dd2c       ??_C@_0BE@GNBOBNCK@Unknown?5Module?5Name?$AA@ 004b1d2c     LIBCMTD:_error_.obj
 0002:0000dd40       ??_C@_0BB@PFFGGCJP@Unknown?5Filename?$AA@ 004b1d40     LIBCMTD:_error_.obj
 0002:0000dd58       ??_C@_1EA@NFKNIFJP@?$AAR?$AAu?$AAn?$AA?9?$AAT?$AAi?$AAm?$AAe?$AA?5?$AAC?$AAh?$AAe?$AAc?$AAk?$AA?5?$AAF?$AAa?$AAi?$AAl?$AAu?$AAr?$AAe?$AA?5?$AA?$CD?$AA?$CF?$AAd?$AA?5?$AA?9?$AA?5?$AA?$CF?$AAs?$AA?$AA@ 004b1d58     LIBCMTD:_error_.obj
 0002:0000dd98       ??_C@_1GM@OLMCBDMB@?$AAR?$AAu?$AAn?$AAt?$AAi?$AAm?$AAe?$AA?5?$AAC?$AAh?$AAe?$AAc?$AAk?$AA?5?$AAE?$AAr?$AAr?$AAo?$AAr?$AA?4?$AA?6?$AA?$AN?$AA?5?$AAU?$AAn?$AAa?$AAb?$AAl?$AAe?$AA?5?$AAt?$AAo@ 004b1d98     LIBCMTD:_error_.obj
 0002:0000de04       ??_C@_0CG@IAFNJNEE@Stack?5corrupted?5near?5unknown?5var@ 004b1e04     LIBCMTD:_error_.obj
 0002:0000de30       ??_C@_0EJ@LJKNEOLN@Stack?5area?5around?5_alloca?5memory@ 004b1e30     LIBCMTD:_error_.obj
 0002:0000de7c       ??_C@_08KJEDNCKC@?$CFs?$CFs?$CFs?$CFs?$AA@ 004b1e7c     LIBCMTD:_error_.obj
 0002:0000de88       ??_C@_02LLMPMKNF@?$DO?5?$AA@ 004b1e88     LIBCMTD:_error_.obj
 0002:0000de8c       ??_C@_01EEMJAFIK@?6?$AA@   004b1e8c     LIBCMTD:_error_.obj
 0002:0000de90       ??_C@_0BC@KIBAILCI@?$CFs?$CFs?$CFp?$CFs?$CFld?$CFs?$CFd?$CFs?$AA@ 004b1e90     LIBCMTD:_error_.obj
 0002:0000dea8       ??_C@_0EI@CLEPFNGI@Stack?5area?5around?5_alloca?5memory@ 004b1ea8     LIBCMTD:_error_.obj
 0002:0000def0       ??_C@_0N@MHFFIMFG@?6Address?3?50x?$AA@ 004b1ef0     LIBCMTD:_error_.obj
 0002:0000df00       ??_C@_07DFDJCKFN@?6Size?3?5?$AA@ 004b1f00     LIBCMTD:_error_.obj
 0002:0000df08       ??_C@_0CK@DKGBICFE@?6Allocation?5number?5within?5this?5f@ 004b1f08     LIBCMTD:_error_.obj
 0002:0000df34       ??_C@_08OMAHNMHJ@?6Data?3?5?$DM?$AA@ 004b1f34     LIBCMTD:_error_.obj
 0002:0000df40       ??_C@_09FOPFMPEJ@wsprintfA?$AA@ 004b1f40     LIBCMTD:_error_.obj
 0002:0000df4c       ??_C@_1BG@OILDLIOJ@?$AAu?$AAs?$AAe?$AAr?$AA3?$AA2?$AA?4?$AAd?$AAl?$AAl?$AA?$AA@ 004b1f4c     LIBCMTD:_error_.obj
 0002:0000df64       ??_C@_0DE@OHJBPMBP@A?5variable?5is?5being?5used?5without@ 004b1f64     LIBCMTD:_error_.obj
 0002:0000df98       ??_C@_0BP@OGBCLIBO@Stack?5around?5_alloca?5corrupted?$AA@ 004b1f98     LIBCMTD:_userapi_.obj
 0002:0000dfb8       ??_C@_0CK@CNLNOEPB@Local?5variable?5used?5before?5initi@ 004b1fb8     LIBCMTD:_userapi_.obj
 0002:0000dfe4       ??_C@_0BI@CIGMDCBH@Stack?5memory?5corruption?$AA@ 004b1fe4     LIBCMTD:_userapi_.obj
 0002:0000dffc       ??_C@_0CK@FEGOIOPB@Cast?5to?5smaller?5type?5causing?5los@ 004b1ffc     LIBCMTD:_userapi_.obj
 0002:0000e028       ??_C@_0BJ@HEGAHDFO@Stack?5pointer?5corruption?$AA@ 004b2028     LIBCMTD:_userapi_.obj
 0002:0000e058       ??_C@_0DP@CBBAPGOP@f?3?2dd?2vctools?2crt_bld?2self_x86?2c@ 004b2058     LIBCMTD:chkesp.obj
 0002:0000e097       ??_C@_00CNPNBAHC@?$AA@     004b2097     LIBCMTD:chkesp.obj
 0002:0000e098       ??_C@_0NM@DNEDKLDF@The?5value?5of?5ESP?5was?5not?5properl@ 004b2098     LIBCMTD:chkesp.obj
 0002:0000e178       ??_C@_1HG@KNCBMCDD@?$AAf?$AA?3?$AA?2?$AAd?$AAd?$AA?2?$AAv?$AAc?$AAt?$AAo?$AAo?$AAl?$AAs?$AA?2?$AAc?$AAr?$AAt?$AA_?$AAb?$AAl?$AAd?$AA?2?$AAs?$AAe?$AAl?$AAf?$AA_?$AAx?$AA8?$AA6?$AA?2?$AAc@ 004b2178     LIBCMTD:typname.obj
 0002:0000e1f0       ??_C@_1CK@GELGGBDK@?$AAp?$AAN?$AAo?$AAd?$AAe?$AA?9?$AA?$DO?$AA_?$AAN?$AAe?$AAx?$AAt?$AA?5?$AA?$CB?$AA?$DN?$AA?5?$AAN?$AAU?$AAL?$AAL?$AA?$AA@ 004b21f0     LIBCMTD:typname.obj
 0002:0000e220       ??_C@_1JK@NAFNEPGC@?$AAs?$AAt?$AAr?$AAc?$AAp?$AAy?$AA_?$AAs?$AA?5?$AA?$CI?$AA?$CI?$AAc?$AAh?$AAa?$AAr?$AA?5?$AA?$CK?$AA?$CJ?$AA?$CI?$AA?$CI?$AAt?$AAy?$AAp?$AAe?$AA_?$AAi?$AAn?$AAf?$AAo?$AA?5?$AA?$CK?$AA?$CJ@ 004b2220     LIBCMTD:typname.obj
 0002:0000e2bc       ??_C@_1CM@OOICDMK@?$AAt?$AAy?$AAp?$AAe?$AA_?$AAi?$AAn?$AAf?$AAo?$AA?3?$AA?3?$AA_?$AAN?$AAa?$AAm?$AAe?$AA_?$AAb?$AAa?$AAs?$AAe?$AA?$AA@ 004b22bc     LIBCMTD:typname.obj
 0002:0000e2e8       ??_C@_1GI@EAJKJPED@?$AAs?$AAt?$AAr?$AAc?$AAp?$AAy?$AA_?$AAs?$AA?5?$AA?$CI?$AAp?$AAT?$AAm?$AAp?$AAT?$AAy?$AAp?$AAe?$AAN?$AAa?$AAm?$AAe?$AA?0?$AA?5?$AAl?$AAe?$AAn?$AA?$CL?$AA2?$AA?0?$AA?5?$AA?$CI@ 004b22e8     LIBCMTD:typname.obj
 0002:0000e350       ??_C@_1DO@OJJLFJPE@?$AAt?$AAy?$AAp?$AAe?$AA_?$AAi?$AAn?$AAf?$AAo?$AA?3?$AA?3?$AA_?$AAN?$AAa?$AAm?$AAe?$AA_?$AAb?$AAa?$AAs?$AAe?$AA_?$AAi?$AAn?$AAt?$AAe?$AAr?$AAn?$AAa?$AAl?$AA?$AA@ 004b2350     LIBCMTD:typname.obj
 0002:0000e390       ??_C@_0CP@MKONOLCI@f?3?2dd?2vctools?2crt_bld?2self_x86?2c@ 004b2390     LIBCMTD:mlock.obj
 0002:0000e3c0       ??_C@_1HO@MLMGPAFH@?$AA?$CI?$AA?$CC?$AAi?$AAn?$AAc?$AAo?$AAn?$AAs?$AAi?$AAs?$AAt?$AAe?$AAn?$AAt?$AA?5?$AAI?$AAO?$AAB?$AA?5?$AAf?$AAi?$AAe?$AAl?$AAd?$AAs?$AA?$CC?$AA?0?$AA?5?$AAs?$AAt?$AAr?$AAe@ 004b23c0     LIBCMTD:_flsbuf.obj
 0002:0000e440       ??_C@_1GC@GNCCMPNN@?$AAf?$AA?3?$AA?2?$AAd?$AAd?$AA?2?$AAv?$AAc?$AAt?$AAo?$AAo?$AAl?$AAs?$AA?2?$AAc?$AAr?$AAt?$AA_?$AAb?$AAl?$AAd?$AA?2?$AAs?$AAe?$AAl?$AAf?$AA_?$AAx?$AA8?$AA6?$AA?2?$AAc@ 004b2440     LIBCMTD:_flsbuf.obj
 0002:0000e4a4       ??_C@_1BI@MFCLPIBM@?$AAs?$AAt?$AAr?$AA?5?$AA?$CB?$AA?$DN?$AA?5?$AAN?$AAU?$AAL?$AAL?$AA?$AA@ 004b24a4     LIBCMTD:_flsbuf.obj
 0002:0000e4bc       ??_C@_1O@CEDCILHN@?$AA?$CI?$AAn?$AAu?$AAl?$AAl?$AA?$CJ?$AA?$AA@ 004b24bc     LIBCMTD:output.obj
 0002:0000e4cc       ??_C@_06OJHGLDPL@?$CInull?$CJ?$AA@ 004b24cc     LIBCMTD:output.obj
 0002:0000e4d8       ___lookuptable             004b24d8     LIBCMTD:output.obj
 0002:0000e534       ??_C@_0DA@NFBEBPEE@f?3?2dd?2vctools?2crt_bld?2self_x86?2c@ 004b2534     LIBCMTD:output.obj
 0002:0000e568       ??_C@_1EK@PNGFDECN@?$AA?$CI?$AA?$CC?$AA?8?$AAn?$AA?8?$AA?5?$AAf?$AAo?$AAr?$AAm?$AAa?$AAt?$AA?5?$AAs?$AAp?$AAe?$AAc?$AAi?$AAf?$AAi?$AAe?$AAr?$AA?5?$AAd?$AAi?$AAs?$AAa?$AAb?$AAl?$AAe?$AAd?$AA?$CC@ 004b2568     LIBCMTD:output.obj
 0002:0000e5b4       ??_C@_1CC@IFFHEMNF@?$AA?$CI?$AAc?$AAh?$AA?5?$AA?$CB?$AA?$DN?$AA?5?$AA_?$AAT?$AA?$CI?$AA?8?$AA?2?$AA0?$AA?8?$AA?$CJ?$AA?$CJ?$AA?$AA@ 004b25b4     LIBCMTD:output.obj
 0002:0000e5d8       ??_C@_1BE@IONLIDNC@?$AA_?$AAo?$AAu?$AAt?$AAp?$AAu?$AAt?$AA_?$AAl?$AA?$AA@ 004b25d8     LIBCMTD:output.obj
 0002:0000e5f0       ??_C@_1GA@HHFOFBLN@?$AAf?$AA?3?$AA?2?$AAd?$AAd?$AA?2?$AAv?$AAc?$AAt?$AAo?$AAo?$AAl?$AAs?$AA?2?$AAc?$AAr?$AAt?$AA_?$AAb?$AAl?$AAd?$AA?2?$AAs?$AAe?$AAl?$AAf?$AA_?$AAx?$AA8?$AA6?$AA?2?$AAc@ 004b25f0     LIBCMTD:output.obj
 0002:0000e650       ??_C@_1BG@KCMPBBDK@?$AA_?$AAg?$AAe?$AAt?$AA_?$AAe?$AAr?$AAr?$AAn?$AAo?$AA?$AA@ 004b2650     LIBCMTD:dosmap.obj
 0002:0000e668       ??_C@_1GA@MFGIMPNL@?$AAf?$AA?3?$AA?2?$AAd?$AAd?$AA?2?$AAv?$AAc?$AAt?$AAo?$AAo?$AAl?$AAs?$AA?2?$AAc?$AAr?$AAt?$AA_?$AAb?$AAl?$AAd?$AA?2?$AAs?$AAe?$AAl?$AAf?$AA_?$AAx?$AA8?$AA6?$AA?2?$AAc@ 004b2668     LIBCMTD:dosmap.obj
 0002:0000e6c8       ??_C@_1BO@LKEBEKJP@?$AAp?$AAV?$AAa?$AAl?$AAu?$AAe?$AA?5?$AA?$CB?$AA?$DN?$AA?5?$AAN?$AAU?$AAL?$AAL?$AA?$AA@ 004b26c8     LIBCMTD:dosmap.obj
 0002:0000e6e8       ??_C@_1BM@INIPHHDD@?$AA_?$AAg?$AAe?$AAt?$AA_?$AAd?$AAo?$AAs?$AAe?$AAr?$AAr?$AAn?$AAo?$AA?$AA@ 004b26e8     LIBCMTD:dosmap.obj
 0002:0000e704       ??_C@_1BI@IGILPKD@?$AA_?$AAv?$AAs?$AAp?$AAr?$AAi?$AAn?$AAt?$AAf?$AA_?$AAl?$AA?$AA@ 004b2704     LIBCMTD:vsprintf.obj
 0002:0000e71c       ??_C@_1CE@HMKDJHB@?$AA_?$AAv?$AAs?$AAc?$AAp?$AAr?$AAi?$AAn?$AAt?$AAf?$AA_?$AAh?$AAe?$AAl?$AAp?$AAe?$AAr?$AA?$AA@ 004b271c     LIBCMTD:vsprintf.obj
 0002:0000e740       ??_C@_1BA@BMMDEPNE@?$AAs?$AAt?$AAr?$AAt?$AAo?$AAx?$AAq?$AA?$AA@ 004b2740     LIBCMTD:strtoq.obj
 0002:0000e750       ??_C@_1GA@GIMEIKLC@?$AAf?$AA?3?$AA?2?$AAd?$AAd?$AA?2?$AAv?$AAc?$AAt?$AAo?$AAo?$AAl?$AAs?$AA?2?$AAc?$AAr?$AAt?$AA_?$AAb?$AAl?$AAd?$AA?2?$AAs?$AAe?$AAl?$AAf?$AA_?$AAx?$AA8?$AA6?$AA?2?$AAc@ 004b2750     LIBCMTD:strtoq.obj
 0002:0000e7b0       ??_C@_1GG@CDHAPCGF@?$AAf?$AA?3?$AA?2?$AAd?$AAd?$AA?2?$AAv?$AAc?$AAt?$AAo?$AAo?$AAl?$AAs?$AA?2?$AAc?$AAr?$AAt?$AA_?$AAb?$AAl?$AAd?$AA?2?$AAs?$AAe?$AAl?$AAf?$AA_?$AAx?$AA8?$AA6?$AA?2?$AAc@ 004b27b0     LIBCMTD:handler.obj
 0002:0000e818       ??_C@_1BC@JLLICHIC@?$AAp?$AAn?$AAh?$AA?5?$AA?$DN?$AA?$DN?$AA?5?$AA0?$AA?$AA@ 004b2818     LIBCMTD:handler.obj
 0002:0000e830       ??_C@_1GA@INJGGEBC@?$AAf?$AA?3?$AA?2?$AAd?$AAd?$AA?2?$AAv?$AAc?$AAt?$AAo?$AAo?$AAl?$AAs?$AA?2?$AAc?$AAr?$AAt?$AA_?$AAb?$AAl?$AAd?$AA?2?$AAs?$AAe?$AAl?$AAf?$AA_?$AAx?$AA8?$AA6?$AA?2?$AAc@ 004b2830     LIBCMTD:a_map.obj
 0002:0000e890       ??_C@_1FE@KNPCCODH@?$AA?$CI?$AA?$CC?$AAC?$AAo?$AAr?$AAr?$AAu?$AAp?$AAt?$AAe?$AAd?$AA?5?$AAp?$AAo?$AAi?$AAn?$AAt?$AAe?$AAr?$AA?5?$AAp?$AAa?$AAs?$AAs?$AAe?$AAd?$AA?5?$AAt?$AAo?$AA?5?$AA_?$AAf@ 004b2890     LIBCMTD:a_map.obj
 0002:0000e8e4       ??_C@_1BG@GLLONOEH@?$AA_?$AAs?$AAt?$AAr?$AAi?$AAc?$AAm?$AAp?$AA_?$AAl?$AA?$AA@ 004b28e4     LIBCMTD:stricmp.obj
 0002:0000e900       ??_C@_1GC@OILHAOLL@?$AAf?$AA?3?$AA?2?$AAd?$AAd?$AA?2?$AAv?$AAc?$AAt?$AAo?$AAo?$AAl?$AAs?$AA?2?$AAc?$AAr?$AAt?$AA_?$AAb?$AAl?$AAd?$AA?2?$AAs?$AAe?$AAl?$AAf?$AA_?$AAx?$AA8?$AA6?$AA?2?$AAc@ 004b2900     LIBCMTD:stricmp.obj
 0002:0000e964       ??_C@_1BC@JLGKKIIG@?$AA_?$AAs?$AAt?$AAr?$AAi?$AAc?$AAm?$AAp?$AA?$AA@ 004b2964     LIBCMTD:stricmp.obj
 0002:0000e978       ??_C@_0DB@MHMEONEC@f?3?2dd?2vctools?2crt_bld?2self_x86?2c@ 004b2978     LIBCMTD:mbctype.obj
 0002:0000e9b0       ??_C@_1GE@HMAALBPJ@?$AAf?$AA?3?$AA?2?$AAd?$AAd?$AA?2?$AAv?$AAc?$AAt?$AAo?$AAo?$AAl?$AAs?$AA?2?$AAc?$AAr?$AAt?$AA_?$AAb?$AAl?$AAd?$AA?2?$AAs?$AAe?$AAl?$AAf?$AA_?$AAx?$AA8?$AA6?$AA?2?$AAc@ 004b29b0     LIBCMTD:localref.obj
 0002:0000ea18       ??_C@_1BKC@GGIENNAK@?$AA?$CI?$AA?$CI?$AAp?$AAt?$AAl?$AAo?$AAc?$AAi?$AA?9?$AA?$DO?$AAl?$AAc?$AA_?$AAc?$AAa?$AAt?$AAe?$AAg?$AAo?$AAr?$AAy?$AA?$FL?$AAc?$AAa?$AAt?$AAe?$AAg?$AAo?$AAr?$AAy?$AA?$FN?$AA?4@ 004b2a18     LIBCMTD:localref.obj
 0002:0000ebbc       ??_C@_1BC@GDGBMEMK@?$AAH?$AAH?$AA?3?$AAm?$AAm?$AA?3?$AAs?$AAs?$AA?$AA@ 004b2bbc     LIBCMTD:nlsdata2.obj
 0002:0000ebd0       ??_C@_1CI@KNAKOEBC@?$AAd?$AAd?$AAd?$AAd?$AA?0?$AA?5?$AAM?$AAM?$AAM?$AAM?$AA?5?$AAd?$AAd?$AA?0?$AA?5?$AAy?$AAy?$AAy?$AAy?$AA?$AA@ 004b2bd0     LIBCMTD:nlsdata2.obj
 0002:0000ebf8       ??_C@_1BC@IEBCMHCM@?$AAM?$AAM?$AA?1?$AAd?$AAd?$AA?1?$AAy?$AAy?$AA?$AA@ 004b2bf8     LIBCMTD:nlsdata2.obj
 0002:0000ec0c       ??_C@_15CLMNNGEL@?$AAP?$AAM?$AA?$AA@ 004b2c0c     LIBCMTD:nlsdata2.obj
 0002:0000ec14       ??_C@_15ODEHAHHF@?$AAA?$AAM?$AA?$AA@ 004b2c14     LIBCMTD:nlsdata2.obj
 0002:0000ec1c       ??_C@_1BC@FEMKIFH@?$AAD?$AAe?$AAc?$AAe?$AAm?$AAb?$AAe?$AAr?$AA?$AA@ 004b2c1c     LIBCMTD:nlsdata2.obj
 0002:0000ec30       ??_C@_1BC@BGLIFPF@?$AAN?$AAo?$AAv?$AAe?$AAm?$AAb?$AAe?$AAr?$AA?$AA@ 004b2c30     LIBCMTD:nlsdata2.obj
 0002:0000ec44       ??_C@_1BA@EPANDLNG@?$AAO?$AAc?$AAt?$AAo?$AAb?$AAe?$AAr?$AA?$AA@ 004b2c44     LIBCMTD:nlsdata2.obj
 0002:0000ec54       ??_C@_1BE@DKAAMBJL@?$AAS?$AAe?$AAp?$AAt?$AAe?$AAm?$AAb?$AAe?$AAr?$AA?$AA@ 004b2c54     LIBCMTD:nlsdata2.obj
 0002:0000ec68       ??_C@_1O@PAHLKOAC@?$AAA?$AAu?$AAg?$AAu?$AAs?$AAt?$AA?$AA@ 004b2c68     LIBCMTD:nlsdata2.obj
 0002:0000ec78       ??_C@_19BIFMLPCD@?$AAJ?$AAu?$AAl?$AAy?$AA?$AA@ 004b2c78     LIBCMTD:nlsdata2.obj
 0002:0000ec84       ??_C@_19EPFLPGAP@?$AAJ?$AAu?$AAn?$AAe?$AA?$AA@ 004b2c84     LIBCMTD:nlsdata2.obj
 0002:0000ec90       ??_C@_1M@GJNLMHFD@?$AAA?$AAp?$AAr?$AAi?$AAl?$AA?$AA@ 004b2c90     LIBCMTD:nlsdata2.obj
 0002:0000ec9c       ??_C@_1M@IKEENEDF@?$AAM?$AAa?$AAr?$AAc?$AAh?$AA?$AA@ 004b2c9c     LIBCMTD:nlsdata2.obj
 0002:0000eca8       ??_C@_1BC@JGDDFFAM@?$AAF?$AAe?$AAb?$AAr?$AAu?$AAa?$AAr?$AAy?$AA?$AA@ 004b2ca8     LIBCMTD:nlsdata2.obj
 0002:0000ecbc       ??_C@_1BA@EFMEIEBA@?$AAJ?$AAa?$AAn?$AAu?$AAa?$AAr?$AAy?$AA?$AA@ 004b2cbc     LIBCMTD:nlsdata2.obj
 0002:0000eccc       ??_C@_17EGKACKIF@?$AAD?$AAe?$AAc?$AA?$AA@ 004b2ccc     LIBCMTD:nlsdata2.obj
 0002:0000ecd4       ??_C@_17BBDMLCIG@?$AAN?$AAo?$AAv?$AA?$AA@ 004b2cd4     LIBCMTD:nlsdata2.obj
 0002:0000ecdc       ??_C@_17FNLKOI@?$AAO?$AAc?$AAt?$AA?$AA@ 004b2cdc     LIBCMTD:nlsdata2.obj
 0002:0000ece4       ??_C@_17HCHCOKMG@?$AAS?$AAe?$AAp?$AA?$AA@ 004b2ce4     LIBCMTD:nlsdata2.obj
 0002:0000ecec       ??_C@_17ICPELBCN@?$AAA?$AAu?$AAg?$AA?$AA@ 004b2cec     LIBCMTD:nlsdata2.obj
 0002:0000ecf4       ??_C@_17IJPCKHK@?$AAJ?$AAu?$AAl?$AA?$AA@ 004b2cf4     LIBCMTD:nlsdata2.obj
 0002:0000ecfc       ??_C@_17KCJGOCPB@?$AAJ?$AAu?$AAn?$AA?$AA@ 004b2cfc     LIBCMTD:nlsdata2.obj
 0002:0000ed04       ??_C@_17PNNKMEED@?$AAM?$AAa?$AAy?$AA?$AA@ 004b2d04     LIBCMTD:nlsdata2.obj
 0002:0000ed0c       ??_C@_17LFPOIHDD@?$AAA?$AAp?$AAr?$AA?$AA@ 004b2d0c     LIBCMTD:nlsdata2.obj
 0002:0000ed14       ??_C@_17CKNLEDEC@?$AAM?$AAa?$AAr?$AA?$AA@ 004b2d14     LIBCMTD:nlsdata2.obj
 0002:0000ed1c       ??_C@_17LMDJEKJN@?$AAF?$AAe?$AAb?$AA?$AA@ 004b2d1c     LIBCMTD:nlsdata2.obj
 0002:0000ed24       ??_C@_17DKNBKCHM@?$AAJ?$AAa?$AAn?$AA?$AA@ 004b2d24     LIBCMTD:nlsdata2.obj
 0002:0000ed2c       ??_C@_1BC@ENMNNPAJ@?$AAS?$AAa?$AAt?$AAu?$AAr?$AAd?$AAa?$AAy?$AA?$AA@ 004b2d2c     LIBCMTD:nlsdata2.obj
 0002:0000ed40       ??_C@_1O@PDICJHAG@?$AAF?$AAr?$AAi?$AAd?$AAa?$AAy?$AA?$AA@ 004b2d40     LIBCMTD:nlsdata2.obj
 0002:0000ed50       ??_C@_1BC@HHMNLIHE@?$AAT?$AAh?$AAu?$AAr?$AAs?$AAd?$AAa?$AAy?$AA?$AA@ 004b2d50     LIBCMTD:nlsdata2.obj
 0002:0000ed64       ??_C@_1BE@EBOGMDOH@?$AAW?$AAe?$AAd?$AAn?$AAe?$AAs?$AAd?$AAa?$AAy?$AA?$AA@ 004b2d64     LIBCMTD:nlsdata2.obj
 0002:0000ed78       ??_C@_1BA@ENFBFFEK@?$AAT?$AAu?$AAe?$AAs?$AAd?$AAa?$AAy?$AA?$AA@ 004b2d78     LIBCMTD:nlsdata2.obj
 0002:0000ed88       ??_C@_1O@MMNBFLIA@?$AAM?$AAo?$AAn?$AAd?$AAa?$AAy?$AA?$AA@ 004b2d88     LIBCMTD:nlsdata2.obj
 0002:0000ed98       ??_C@_1O@IHNHDHPB@?$AAS?$AAu?$AAn?$AAd?$AAa?$AAy?$AA?$AA@ 004b2d98     LIBCMTD:nlsdata2.obj
 0002:0000eda8       ??_C@_17GGIBDPIH@?$AAS?$AAa?$AAt?$AA?$AA@ 004b2da8     LIBCMTD:nlsdata2.obj
 0002:0000edb0       ??_C@_17HFOLPPLP@?$AAF?$AAr?$AAi?$AA?$AA@ 004b2db0     LIBCMTD:nlsdata2.obj
 0002:0000edb8       ??_C@_17PDPHAADD@?$AAT?$AAh?$AAu?$AA?$AA@ 004b2db8     LIBCMTD:nlsdata2.obj
 0002:0000edc0       ??_C@_17CJEDCEPE@?$AAW?$AAe?$AAd?$AA?$AA@ 004b2dc0     LIBCMTD:nlsdata2.obj
 0002:0000edc8       ??_C@_17BMKGEGOJ@?$AAT?$AAu?$AAe?$AA?$AA@ 004b2dc8     LIBCMTD:nlsdata2.obj
 0002:0000edd0       ??_C@_17KBOMKBF@?$AAM?$AAo?$AAn?$AA?$AA@ 004b2dd0     LIBCMTD:nlsdata2.obj
 0002:0000edd8       ??_C@_17MBGCMIPB@?$AAS?$AAu?$AAn?$AA?$AA@ 004b2dd8     LIBCMTD:nlsdata2.obj
 0002:0000ede0       ??_C@_08JCCMCCIL@HH?3mm?3ss?$AA@ 004b2de0     LIBCMTD:nlsdata2.obj
 0002:0000edec       ??_C@_0BE@CKGJFCPC@dddd?0?5MMMM?5dd?0?5yyyy?$AA@ 004b2dec     LIBCMTD:nlsdata2.obj
 0002:0000ee00       ??_C@_08BPBNCDIB@MM?1dd?1yy?$AA@ 004b2e00     LIBCMTD:nlsdata2.obj
 0002:0000ee0c       ??_C@_02CJNFDJBF@PM?$AA@   004b2e0c     LIBCMTD:nlsdata2.obj
 0002:0000ee10       ??_C@_02DEDBPAFC@AM?$AA@   004b2e10     LIBCMTD:nlsdata2.obj
 0002:0000ee14       ??_C@_08EDHMEBNP@December?$AA@ 004b2e14     LIBCMTD:nlsdata2.obj
 0002:0000ee20       ??_C@_08HCHEGEOA@November?$AA@ 004b2e20     LIBCMTD:nlsdata2.obj
 0002:0000ee2c       ??_C@_07JJNFCEND@October?$AA@ 004b2e2c     LIBCMTD:nlsdata2.obj
 0002:0000ee34       ??_C@_09BHHEALKD@September?$AA@ 004b2e34     LIBCMTD:nlsdata2.obj
 0002:0000ee40       ??_C@_06LBBHFDDG@August?$AA@ 004b2e40     LIBCMTD:nlsdata2.obj
 0002:0000ee48       ??_C@_04MIEPOIFP@July?$AA@ 004b2e48     LIBCMTD:nlsdata2.obj
 0002:0000ee50       ??_C@_04CNLMGBGM@June?$AA@ 004b2e50     LIBCMTD:nlsdata2.obj
 0002:0000ee58       ??_C@_05DMJDNLEJ@April?$AA@ 004b2e58     LIBCMTD:nlsdata2.obj
 0002:0000ee60       ??_C@_05HPCKOFNC@March?$AA@ 004b2e60     LIBCMTD:nlsdata2.obj
 0002:0000ee68       ??_C@_08GNJGEPFN@February?$AA@ 004b2e68     LIBCMTD:nlsdata2.obj
 0002:0000ee74       ??_C@_07CGJPFGJA@January?$AA@ 004b2e74     LIBCMTD:nlsdata2.obj
 0002:0000ee7c       ??_C@_03MKABNOCG@Dec?$AA@  004b2e7c     LIBCMTD:nlsdata2.obj
 0002:0000ee80       ??_C@_03JPJOFNIA@Nov?$AA@  004b2e80     LIBCMTD:nlsdata2.obj
 0002:0000ee84       ??_C@_03BMAOKBAD@Oct?$AA@  004b2e84     LIBCMTD:nlsdata2.obj
 0002:0000ee88       ??_C@_03GGCAPAJC@Sep?$AA@  004b2e88     LIBCMTD:nlsdata2.obj
 0002:0000ee8c       ??_C@_03IFJFEIGA@Aug?$AA@  004b2e8c     LIBCMTD:nlsdata2.obj
 0002:0000ee90       ??_C@_03LBGABGKK@Jul?$AA@  004b2e90     LIBCMTD:nlsdata2.obj
 0002:0000ee94       ??_C@_03IDFGHECI@Jun?$AA@  004b2e94     LIBCMTD:nlsdata2.obj
 0002:0000ee98       ??_C@_03CNMDKL@May?$AA@    004b2e98     LIBCMTD:nlsdata2.obj
 0002:0000ee9c       ??_C@_03LEOLGMJP@Apr?$AA@  004b2e9c     LIBCMTD:nlsdata2.obj
 0002:0000eea0       ??_C@_03ODNJBKGA@Mar?$AA@  004b2ea0     LIBCMTD:nlsdata2.obj
 0002:0000eea4       ??_C@_03HJBDCHOM@Feb?$AA@  004b2ea4     LIBCMTD:nlsdata2.obj
 0002:0000eea8       ??_C@_03JIHJHPIE@Jan?$AA@  004b2ea8     LIBCMTD:nlsdata2.obj
 0002:0000eeac       ??_C@_08INBOOONO@Saturday?$AA@ 004b2eac     LIBCMTD:nlsdata2.obj
 0002:0000eeb8       ??_C@_06JECMNKMI@Friday?$AA@ 004b2eb8     LIBCMTD:nlsdata2.obj
 0002:0000eec0       ??_C@_08HACCIKIA@Thursday?$AA@ 004b2ec0     LIBCMTD:nlsdata2.obj
 0002:0000eecc       ??_C@_09DLIGFAKA@Wednesday?$AA@ 004b2ecc     LIBCMTD:nlsdata2.obj
 0002:0000eed8       ??_C@_07BAAGCFCM@Tuesday?$AA@ 004b2ed8     LIBCMTD:nlsdata2.obj
 0002:0000eee0       ??_C@_06JLEDEDGH@Monday?$AA@ 004b2ee0     LIBCMTD:nlsdata2.obj
 0002:0000eee8       ??_C@_06OOPIFAJ@Sunday?$AA@ 004b2ee8     LIBCMTD:nlsdata2.obj
 0002:0000eef0       ??_C@_03FEFJNEK@Sat?$AA@   004b2ef0     LIBCMTD:nlsdata2.obj
 0002:0000eef4       ??_C@_03IDIOELNC@Fri?$AA@  004b2ef4     LIBCMTD:nlsdata2.obj
 0002:0000eef8       ??_C@_03IOFIKPDN@Thu?$AA@  004b2ef8     LIBCMTD:nlsdata2.obj
 0002:0000eefc       ??_C@_03MHOMLAJA@Wed?$AA@  004b2efc     LIBCMTD:nlsdata2.obj
 0002:0000ef00       ??_C@_03NAGEINEP@Tue?$AA@  004b2f00     LIBCMTD:nlsdata2.obj
 0002:0000ef04       ??_C@_03PDAGKDH@Mon?$AA@   004b2f04     LIBCMTD:nlsdata2.obj
 0002:0000ef08       ??_C@_03KOEHGMDN@Sun?$AA@  004b2f08     LIBCMTD:nlsdata2.obj
 0002:0000ef0c       ??_C@_1BO@BKOMIGKJ@?$AAr?$AAu?$AAn?$AAt?$AAi?$AAm?$AAe?$AA?5?$AAe?$AAr?$AAr?$AAo?$AAr?$AA?5?$AA?$AA@ 004b2f0c     LIBCMTD:crt0msg.obj
 0002:0000ef2c       ??_C@_15JNBOKNOG@?$AA?$AN?$AA?6?$AA?$AA@ 004b2f2c     LIBCMTD:crt0msg.obj
 0002:0000ef34       ??_C@_1BM@JBBEPPHI@?$AAT?$AAL?$AAO?$AAS?$AAS?$AA?5?$AAe?$AAr?$AAr?$AAo?$AAr?$AA?$AN?$AA?6?$AA?$AA@ 004b2f34     LIBCMTD:crt0msg.obj
 0002:0000ef50       ??_C@_1BK@KMOMNAAI@?$AAS?$AAI?$AAN?$AAG?$AA?5?$AAe?$AAr?$AAr?$AAo?$AAr?$AA?$AN?$AA?6?$AA?$AA@ 004b2f50     LIBCMTD:crt0msg.obj
 0002:0000ef6c       ??_C@_1BO@BFCDCGC@?$AAD?$AAO?$AAM?$AAA?$AAI?$AAN?$AA?5?$AAe?$AAr?$AAr?$AAo?$AAr?$AA?$AN?$AA?6?$AA?$AA@ 004b2f6c     LIBCMTD:crt0msg.obj
 0002:0000ef90       ??_C@_1BOO@KGEDBGAJ@?$AAR?$AA6?$AA0?$AA3?$AA3?$AA?$AN?$AA?6?$AA?9?$AA?5?$AAA?$AAt?$AAt?$AAe?$AAm?$AAp?$AAt?$AA?5?$AAt?$AAo?$AA?5?$AAu?$AAs?$AAe?$AA?5?$AAM?$AAS?$AAI?$AAL?$AA?5?$AAc?$AAo?$AAd@ 004b2f90     LIBCMTD:crt0msg.obj
 0002:0000f180       ??_C@_1GG@GOPILAJP@?$AAR?$AA6?$AA0?$AA3?$AA2?$AA?$AN?$AA?6?$AA?9?$AA?5?$AAn?$AAo?$AAt?$AA?5?$AAe?$AAn?$AAo?$AAu?$AAg?$AAh?$AA?5?$AAs?$AAp?$AAa?$AAc?$AAe?$AA?5?$AAf?$AAo?$AAr?$AA?5?$AAl?$AAo@ 004b3180     LIBCMTD:crt0msg.obj
 0002:0000f1e8       ??_C@_1MG@ENCOOIDF@?$AAR?$AA6?$AA0?$AA3?$AA1?$AA?$AN?$AA?6?$AA?9?$AA?5?$AAA?$AAt?$AAt?$AAe?$AAm?$AAp?$AAt?$AA?5?$AAt?$AAo?$AA?5?$AAi?$AAn?$AAi?$AAt?$AAi?$AAa?$AAl?$AAi?$AAz?$AAe?$AA?5?$AAt@ 004b31e8     LIBCMTD:crt0msg.obj
 0002:0000f2b0       ??_C@_1DO@BMFCDCD@?$AAR?$AA6?$AA0?$AA3?$AA0?$AA?$AN?$AA?6?$AA?9?$AA?5?$AAC?$AAR?$AAT?$AA?5?$AAn?$AAo?$AAt?$AA?5?$AAi?$AAn?$AAi?$AAt?$AAi?$AAa?$AAl?$AAi?$AAz?$AAe?$AAd?$AA?$AN?$AA?6?$AA?$AA@ 004b32b0     LIBCMTD:crt0msg.obj
 0002:0000f2f0       ??_C@_1EK@HHFLMAOL@?$AAR?$AA6?$AA0?$AA2?$AA8?$AA?$AN?$AA?6?$AA?9?$AA?5?$AAu?$AAn?$AAa?$AAb?$AAl?$AAe?$AA?5?$AAt?$AAo?$AA?5?$AAi?$AAn?$AAi?$AAt?$AAi?$AAa?$AAl?$AAi?$AAz?$AAe?$AA?5?$AAh?$AAe@ 004b32f0     LIBCMTD:crt0msg.obj
 0002:0000f340       ??_C@_1GK@MFGOKLAG@?$AAR?$AA6?$AA0?$AA2?$AA7?$AA?$AN?$AA?6?$AA?9?$AA?5?$AAn?$AAo?$AAt?$AA?5?$AAe?$AAn?$AAo?$AAu?$AAg?$AAh?$AA?5?$AAs?$AAp?$AAa?$AAc?$AAe?$AA?5?$AAf?$AAo?$AAr?$AA?5?$AAl?$AAo@ 004b3340     LIBCMTD:crt0msg.obj
 0002:0000f3b0       ??_C@_1GK@MCAAGJMO@?$AAR?$AA6?$AA0?$AA2?$AA6?$AA?$AN?$AA?6?$AA?9?$AA?5?$AAn?$AAo?$AAt?$AA?5?$AAe?$AAn?$AAo?$AAu?$AAg?$AAh?$AA?5?$AAs?$AAp?$AAa?$AAc?$AAe?$AA?5?$AAf?$AAo?$AAr?$AA?5?$AAs?$AAt@ 004b33b0     LIBCMTD:crt0msg.obj
 0002:0000f420       ??_C@_1EM@MAADIHMB@?$AAR?$AA6?$AA0?$AA2?$AA5?$AA?$AN?$AA?6?$AA?9?$AA?5?$AAp?$AAu?$AAr?$AAe?$AA?5?$AAv?$AAi?$AAr?$AAt?$AAu?$AAa?$AAl?$AA?5?$AAf?$AAu?$AAn?$AAc?$AAt?$AAi?$AAo?$AAn?$AA?5?$AAc@ 004b3420     LIBCMTD:crt0msg.obj
 0002:0000f470       ??_C@_1GK@FHCKBEFA@?$AAR?$AA6?$AA0?$AA2?$AA4?$AA?$AN?$AA?6?$AA?9?$AA?5?$AAn?$AAo?$AAt?$AA?5?$AAe?$AAn?$AAo?$AAu?$AAg?$AAh?$AA?5?$AAs?$AAp?$AAa?$AAc?$AAe?$AA?5?$AAf?$AAo?$AAr?$AA?5?$AA_?$AAo@ 004b3470     LIBCMTD:crt0msg.obj
 0002:0000f4e0       ??_C@_1FC@ECHBIFBC@?$AAR?$AA6?$AA0?$AA1?$AA9?$AA?$AN?$AA?6?$AA?9?$AA?5?$AAu?$AAn?$AAa?$AAb?$AAl?$AAe?$AA?5?$AAt?$AAo?$AA?5?$AAo?$AAp?$AAe?$AAn?$AA?5?$AAc?$AAo?$AAn?$AAs?$AAo?$AAl?$AAe?$AA?5@ 004b34e0     LIBCMTD:crt0msg.obj
 0002:0000f538       ??_C@_1EC@JIBHAOPH@?$AAR?$AA6?$AA0?$AA1?$AA8?$AA?$AN?$AA?6?$AA?9?$AA?5?$AAu?$AAn?$AAe?$AAx?$AAp?$AAe?$AAc?$AAt?$AAe?$AAd?$AA?5?$AAh?$AAe?$AAa?$AAp?$AA?5?$AAe?$AAr?$AAr?$AAo?$AAr?$AA?$AN?$AA?6@ 004b3538     LIBCMTD:crt0msg.obj
 0002:0000f580       ??_C@_1FK@BEOGODMC@?$AAR?$AA6?$AA0?$AA1?$AA7?$AA?$AN?$AA?6?$AA?9?$AA?5?$AAu?$AAn?$AAe?$AAx?$AAp?$AAe?$AAc?$AAt?$AAe?$AAd?$AA?5?$AAm?$AAu?$AAl?$AAt?$AAi?$AAt?$AAh?$AAr?$AAe?$AAa?$AAd?$AA?5@ 004b3580     LIBCMTD:crt0msg.obj
 0002:0000f5e0       ??_C@_1FI@LOGNIKDM@?$AAR?$AA6?$AA0?$AA1?$AA6?$AA?$AN?$AA?6?$AA?9?$AA?5?$AAn?$AAo?$AAt?$AA?5?$AAe?$AAn?$AAo?$AAu?$AAg?$AAh?$AA?5?$AAs?$AAp?$AAa?$AAc?$AAe?$AA?5?$AAf?$AAo?$AAr?$AA?5?$AAt?$AAh@ 004b35e0     LIBCMTD:crt0msg.obj
 0002:0000f638       ??_C@_1EG@BEHAGFJD@?$AAR?$AA6?$AA0?$AA1?$AA0?$AA?$AN?$AA?6?$AA?9?$AA?5?$AAa?$AAb?$AAo?$AAr?$AAt?$AA?$CI?$AA?$CJ?$AA?5?$AAh?$AAa?$AAs?$AA?5?$AAb?$AAe?$AAe?$AAn?$AA?5?$AAc?$AAa?$AAl?$AAl?$AAe?$AAd@ 004b3638     LIBCMTD:crt0msg.obj
 0002:0000f680       ??_C@_1FI@HONFMGBI@?$AAR?$AA6?$AA0?$AA0?$AA9?$AA?$AN?$AA?6?$AA?9?$AA?5?$AAn?$AAo?$AAt?$AA?5?$AAe?$AAn?$AAo?$AAu?$AAg?$AAh?$AA?5?$AAs?$AAp?$AAa?$AAc?$AAe?$AA?5?$AAf?$AAo?$AAr?$AA?5?$AAe?$AAn@ 004b3680     LIBCMTD:crt0msg.obj
 0002:0000f6d8       ??_C@_1FE@LLNEDJMD@?$AAR?$AA6?$AA0?$AA0?$AA8?$AA?$AN?$AA?6?$AA?9?$AA?5?$AAn?$AAo?$AAt?$AA?5?$AAe?$AAn?$AAo?$AAu?$AAg?$AAh?$AA?5?$AAs?$AAp?$AAa?$AAc?$AAe?$AA?5?$AAf?$AAo?$AAr?$AA?5?$AAa?$AAr@ 004b36d8     LIBCMTD:crt0msg.obj
 0002:0000f730       ??_C@_1FK@PGACCAFB@?$AAR?$AA6?$AA0?$AA0?$AA2?$AA?$AN?$AA?6?$AA?9?$AA?5?$AAf?$AAl?$AAo?$AAa?$AAt?$AAi?$AAn?$AAg?$AA?5?$AAp?$AAo?$AAi?$AAn?$AAt?$AA?5?$AAs?$AAu?$AAp?$AAp?$AAo?$AAr?$AAt?$AA?5@ 004b3730     LIBCMTD:crt0msg.obj
 0002:0000f840       ??_C@_1EK@MBDPDCGA@?$AAM?$AAi?$AAc?$AAr?$AAo?$AAs?$AAo?$AAf?$AAt?$AA?5?$AAV?$AAi?$AAs?$AAu?$AAa?$AAl?$AA?5?$AAC?$AA?$CL?$AA?$CL?$AA?5?$AAR?$AAu?$AAn?$AAt?$AAi?$AAm?$AAe?$AA?5?$AAL?$AAi?$AAb@ 004b3840     LIBCMTD:crt0msg.obj
 0002:0000f890       ??_C@_1IG@NMONDPP@?$AAw?$AAc?$AAs?$AAc?$AAa?$AAt?$AA_?$AAs?$AA?$CI?$AAo?$AAu?$AAt?$AAm?$AAs?$AAg?$AA?0?$AA?5?$AA?$CI?$AAs?$AAi?$AAz?$AAe?$AAo?$AAf?$AA?$CI?$AAo?$AAu?$AAt?$AAm?$AAs?$AAg?$AA?$CJ@ 004b3890     LIBCMTD:crt0msg.obj
 0002:0000f918       ??_C@_1IA@DCJGKHFO@?$AAw?$AAc?$AAs?$AAc?$AAa?$AAt?$AA_?$AAs?$AA?$CI?$AAo?$AAu?$AAt?$AAm?$AAs?$AAg?$AA?0?$AA?5?$AA?$CI?$AAs?$AAi?$AAz?$AAe?$AAo?$AAf?$AA?$CI?$AAo?$AAu?$AAt?$AAm?$AAs?$AAg?$AA?$CJ@ 004b3918     LIBCMTD:crt0msg.obj
 0002:0000f998       ??_C@_1HI@FLHKGEBE@?$AAw?$AAc?$AAs?$AAn?$AAc?$AAp?$AAy?$AA_?$AAs?$AA?$CI?$AAp?$AAc?$AAh?$AA?0?$AA?5?$AAp?$AAr?$AAo?$AAg?$AAn?$AAa?$AAm?$AAe?$AA_?$AAs?$AAi?$AAz?$AAe?$AA?5?$AA?9?$AA?5?$AA?$CI@ 004b3998     LIBCMTD:crt0msg.obj
 0002:0000fa10       ??_C@_1HK@FJJNAABO@?$AAw?$AAc?$AAs?$AAc?$AAp?$AAy?$AA_?$AAs?$AA?$CI?$AAp?$AAr?$AAo?$AAg?$AAn?$AAa?$AAm?$AAe?$AA?0?$AA?5?$AAp?$AAr?$AAo?$AAg?$AAn?$AAa?$AAm?$AAe?$AA_?$AAs?$AAi?$AAz?$AAe@ 004b3a10     LIBCMTD:crt0msg.obj
 0002:0000fa8c       ??_C@_1DE@JNGNBFGO@?$AAR?$AAu?$AAn?$AAt?$AAi?$AAm?$AAe?$AA?5?$AAE?$AAr?$AAr?$AAo?$AAr?$AA?$CB?$AA?6?$AA?6?$AAP?$AAr?$AAo?$AAg?$AAr?$AAa?$AAm?$AA?3?$AA?5?$AA?$AA@ 004b3a8c     LIBCMTD:crt0msg.obj
 0002:0000fac0       ??_C@_1KO@BKLCKNFL@?$AAw?$AAc?$AAs?$AAc?$AAp?$AAy?$AA_?$AAs?$AA?$CI?$AAo?$AAu?$AAt?$AAm?$AAs?$AAg?$AA?0?$AA?5?$AA?$CI?$AAs?$AAi?$AAz?$AAe?$AAo?$AAf?$AA?$CI?$AAo?$AAu?$AAt?$AAm?$AAs?$AAg?$AA?$CJ@ 004b3ac0     LIBCMTD:crt0msg.obj
 0002:0000fb70       ??_C@_1BI@EAHMBMEC@?$AA_?$AAN?$AAM?$AAS?$AAG?$AA_?$AAW?$AAR?$AAI?$AAT?$AAE?$AA?$AA@ 004b3b70     LIBCMTD:crt0msg.obj
 0002:0000fb88       ??_C@_1GC@HKOJBOFF@?$AAf?$AA?3?$AA?2?$AAd?$AAd?$AA?2?$AAv?$AAc?$AAt?$AAo?$AAo?$AAl?$AAs?$AA?2?$AAc?$AAr?$AAt?$AA_?$AAb?$AAl?$AAd?$AA?2?$AAs?$AAe?$AAl?$AAf?$AA_?$AAx?$AA8?$AA6?$AA?2?$AAc@ 004b3b88     LIBCMTD:crt0msg.obj
 0002:0000fbf0       ??_C@_1GO@NGIGJNHH@?$AAs?$AAt?$AAr?$AAn?$AAc?$AAp?$AAy?$AA_?$AAs?$AA?$CI?$AA?$CK?$AAs?$AAt?$AAr?$AAa?$AAd?$AAd?$AAr?$AAe?$AAs?$AAs?$AA?0?$AA?5?$AAo?$AAu?$AAt?$AAs?$AAi?$AAz?$AAe?$AA?0?$AA?5@ 004b3bf0     LIBCMTD:inithelp.obj
 0002:0000fc60       ??_C@_1CA@KHHCPEI@?$AA_?$AA_?$AAg?$AAe?$AAt?$AAl?$AAo?$AAc?$AAa?$AAl?$AAe?$AAi?$AAn?$AAf?$AAo?$AA?$AA@ 004b3c60     LIBCMTD:inithelp.obj
 0002:0000fc80       ??_C@_1GE@PLPIMDHG@?$AAf?$AA?3?$AA?2?$AAd?$AAd?$AA?2?$AAv?$AAc?$AAt?$AAo?$AAo?$AAl?$AAs?$AA?2?$AAc?$AAr?$AAt?$AA_?$AAb?$AAl?$AAd?$AA?2?$AAs?$AAe?$AAl?$AAf?$AA_?$AAx?$AA8?$AA6?$AA?2?$AAc@ 004b3c80     LIBCMTD:inithelp.obj
 0002:0000fce4       ??_C@_0DC@CFDMMFIG@f?3?2dd?2vctools?2crt_bld?2self_x86?2c@ 004b3ce4     LIBCMTD:inithelp.obj
 0002:0000fd18       ??_C@_1NK@LOFHIHFC@?$AAf?$AAM?$AAo?$AAd?$AAe?$AA?5?$AA?$DN?$AA?$DN?$AA?5?$AA_?$AAC?$AAR?$AAT?$AAD?$AAB?$AAG?$AA_?$AAR?$AAE?$AAP?$AAO?$AAR?$AAT?$AA_?$AAM?$AAO?$AAD?$AAE?$AA?5?$AA?$HM?$AA?$HM?$AA?5@ 004b3d18     LIBCMTD:dbgrptt.obj
 0002:0000fdf4       ??_C@_1CE@FIHIECNJ@?$AA_?$AAC?$AAr?$AAt?$AAS?$AAe?$AAt?$AAR?$AAe?$AAp?$AAo?$AAr?$AAt?$AAM?$AAo?$AAd?$AAe?$AA?$AA@ 004b3df4     LIBCMTD:dbgrptt.obj
 0002:0000fe18       ??_C@_1GC@FIGJJMEN@?$AAf?$AA?3?$AA?2?$AAd?$AAd?$AA?2?$AAv?$AAc?$AAt?$AAo?$AAo?$AAl?$AAs?$AA?2?$AAc?$AAr?$AAt?$AA_?$AAb?$AAl?$AAd?$AA?2?$AAs?$AAe?$AAl?$AAf?$AA_?$AAx?$AA8?$AA6?$AA?2?$AAc@ 004b3e18     LIBCMTD:dbgrptt.obj
 0002:0000fe80       ??_C@_1FA@IFFFOLDJ@?$AAn?$AAR?$AAp?$AAt?$AAT?$AAy?$AAp?$AAe?$AA?5?$AA?$DO?$AA?$DN?$AA?5?$AA0?$AA?5?$AA?$CG?$AA?$CG?$AA?5?$AAn?$AAR?$AAp?$AAt?$AAT?$AAy?$AAp?$AAe?$AA?5?$AA?$DM?$AA?5?$AA_?$AAC?$AAR?$AAT@ 004b3e80     LIBCMTD:dbgrptt.obj
 0002:0000fed0       ??_C@_1CE@IKKEDCME@?$AA_?$AAC?$AAr?$AAt?$AAS?$AAe?$AAt?$AAR?$AAe?$AAp?$AAo?$AAr?$AAt?$AAF?$AAi?$AAl?$AAe?$AA?$AA@ 004b3ed0     LIBCMTD:dbgrptt.obj
 0002:0000fef8       ??_C@_1HO@PJOFIKFE@?$AA_?$AAC?$AAr?$AAt?$AAD?$AAb?$AAg?$AAR?$AAe?$AAp?$AAo?$AAr?$AAt?$AA?3?$AA?5?$AAS?$AAt?$AAr?$AAi?$AAn?$AAg?$AA?5?$AAt?$AAo?$AAo?$AA?5?$AAl?$AAo?$AAn?$AAg?$AA?5?$AAo@ 004b3ef8     LIBCMTD:dbgrptt.obj
 0002:0000ff78       ??_C@_1MC@IGEECMDB@?$AAw?$AAc?$AAs?$AAc?$AAp?$AAy?$AA_?$AAs?$AA?$CI?$AAs?$AAz?$AAO?$AAu?$AAt?$AAM?$AAe?$AAs?$AAs?$AAa?$AAg?$AAe?$AA2?$AA?0?$AA?5?$AA4?$AA0?$AA9?$AA6?$AA?0?$AA?5?$AAL?$AA?$CC@ 004b3f78     LIBCMTD:dbgrptt.obj
 0002:00010040       ??_C@_1IM@OOKIFKOH@?$AAe?$AA?5?$AA?$DN?$AA?5?$AAm?$AAb?$AAs?$AAt?$AAo?$AAw?$AAc?$AAs?$AA_?$AAs?$AA?$CI?$AA?$CG?$AAr?$AAe?$AAt?$AA?0?$AA?5?$AAs?$AAz?$AAO?$AAu?$AAt?$AAM?$AAe?$AAs?$AAs?$AAa?$AAg@ 004b4040     LIBCMTD:dbgrptt.obj
 0002:000100d0       ??_C@_1FI@IBIOIHEG@?$AAs?$AAt?$AAr?$AAc?$AAp?$AAy?$AA_?$AAs?$AA?$CI?$AAs?$AAz?$AAO?$AAu?$AAt?$AAM?$AAe?$AAs?$AAs?$AAa?$AAg?$AAe?$AA?0?$AA?5?$AA4?$AA0?$AA9?$AA6?$AA?0?$AA?5?$AAs?$AAz?$AAL@ 004b40d0     LIBCMTD:dbgrptt.obj
 0002:00010128       ??_C@_1JG@CPKCIOEE@?$AAs?$AAt?$AAr?$AAc?$AAp?$AAy?$AA_?$AAs?$AA?$CI?$AAs?$AAz?$AAO?$AAu?$AAt?$AAM?$AAe?$AAs?$AAs?$AAa?$AAg?$AAe?$AA?0?$AA?5?$AA4?$AA0?$AA9?$AA6?$AA?0?$AA?5?$AA?$CC?$AA_?$AAC@ 004b4128     LIBCMTD:dbgrptt.obj
 0002:000101c0       ??_C@_0M@IPILFDFN@?$CFs?$CI?$CFd?$CJ?5?3?5?$CFs?$AA@ 004b41c0     LIBCMTD:dbgrptt.obj
 0002:000101d0       ??_C@_1EI@LDHJEDO@?$AAs?$AAt?$AAr?$AAc?$AAa?$AAt?$AA_?$AAs?$AA?$CI?$AAs?$AAz?$AAL?$AAi?$AAn?$AAe?$AAM?$AAe?$AAs?$AAs?$AAa?$AAg?$AAe?$AA?0?$AA?5?$AA4?$AA0?$AA9?$AA6?$AA?0?$AA?5?$AA?$CC?$AA?2@ 004b41d0     LIBCMTD:dbgrptt.obj
 0002:00010218       ??_C@_01LIIJDEN@?$AN?$AA@  004b4218     LIBCMTD:dbgrptt.obj
 0002:00010220       ??_C@_1EI@CACDLAFK@?$AAs?$AAt?$AAr?$AAc?$AAa?$AAt?$AA_?$AAs?$AA?$CI?$AAs?$AAz?$AAL?$AAi?$AAn?$AAe?$AAM?$AAe?$AAs?$AAs?$AAa?$AAg?$AAe?$AA?0?$AA?5?$AA4?$AA0?$AA9?$AA6?$AA?0?$AA?5?$AA?$CC?$AA?2@ 004b4220     LIBCMTD:dbgrptt.obj
 0002:00010268       ??_C@_1FK@NPGBPOFO@?$AAs?$AAt?$AAr?$AAc?$AAa?$AAt?$AA_?$AAs?$AA?$CI?$AAs?$AAz?$AAL?$AAi?$AAn?$AAe?$AAM?$AAe?$AAs?$AAs?$AAa?$AAg?$AAe?$AA?0?$AA?5?$AA4?$AA0?$AA9?$AA6?$AA?0?$AA?5?$AAs?$AAz@ 004b4268     LIBCMTD:dbgrptt.obj
 0002:000102c8       ??_C@_1KK@GIGAEDMO@?$AAs?$AAt?$AAr?$AAc?$AAp?$AAy?$AA_?$AAs?$AA?$CI?$AAs?$AAz?$AAL?$AAi?$AAn?$AAe?$AAM?$AAe?$AAs?$AAs?$AAa?$AAg?$AAe?$AA?0?$AA?5?$AA4?$AA0?$AA9?$AA6?$AA?0?$AA?5?$AAs?$AAz@ 004b42c8     LIBCMTD:dbgrptt.obj
 0002:00010374       ??_C@_0BC@LAIDCHCH@Assertion?5failed?$CB?$AA@ 004b4374     LIBCMTD:dbgrptt.obj
 0002:00010388       ??_C@_0BD@CAENFOHP@Assertion?5failed?3?5?$AA@ 004b4388     LIBCMTD:dbgrptt.obj
 0002:0001039c       ??_C@_0CL@EACFGMNB@_CrtDbgReport?3?5String?5too?5long?5o@ 004b439c     LIBCMTD:dbgrptt.obj
 0002:000103c8       ??_C@_1JI@GAALPGBM@?$AAs?$AAt?$AAr?$AAc?$AAp?$AAy?$AA_?$AAs?$AA?$CI?$AAs?$AAz?$AAU?$AAs?$AAe?$AAr?$AAM?$AAe?$AAs?$AAs?$AAa?$AAg?$AAe?$AA?0?$AA?5?$AA4?$AA0?$AA9?$AA6?$AA?0?$AA?5?$AA?$CC?$AA_@ 004b43c8     LIBCMTD:dbgrptt.obj
 0002:00010460       ??_C@_07BHGABMGB@?0?5Line?5?$AA@ 004b4460     LIBCMTD:dbgrptt.obj
 0002:00010468       ??_C@_0P@DFJNDPOP@?$DMfile?5unknown?$DO?$AA@ 004b4468     LIBCMTD:dbgrptt.obj
 0002:00010478       ??_C@_0CG@BNGLOCEO@Second?5Chance?5Assertion?5Failed?3?5@ 004b4478     LIBCMTD:dbgrptt.obj
 0002:000104a0       ??_C@_1FA@JPHJBHEM@?$AA_?$AAi?$AAt?$AAo?$AAa?$AA_?$AAs?$AA?$CI?$AAn?$AAL?$AAi?$AAn?$AAe?$AA?0?$AA?5?$AAs?$AAz?$AAL?$AAi?$AAn?$AAe?$AAM?$AAe?$AAs?$AAs?$AAa?$AAg?$AAe?$AA?0?$AA?5?$AA4?$AA0@ 004b44a0     LIBCMTD:dbgrptt.obj
 0002:000104f0       ??_C@_1CA@KHJHLKA@?$AA_?$AAV?$AAC?$AAr?$AAt?$AAD?$AAb?$AAg?$AAR?$AAe?$AAp?$AAo?$AAr?$AAt?$AAA?$AA?$AA@ 004b44f0     LIBCMTD:dbgrptt.obj
 0002:00010510       ??_C@_1IE@CPGKIAGP@?$AAw?$AAc?$AAs?$AAt?$AAo?$AAm?$AAb?$AAs?$AA_?$AAs?$AA?$CI?$AA?$CG?$AAr?$AAe?$AAt?$AA?0?$AA?5?$AAs?$AAz?$AAa?$AAO?$AAu?$AAt?$AAM?$AAe?$AAs?$AAs?$AAa?$AAg?$AAe?$AA?0?$AA?5@ 004b4510     LIBCMTD:dbgrptt.obj
 0002:00010594       ??_C@_0DP@GNPEPHJD@_CrtDbgReport?3?5String?5too?5long?5o@ 004b4594     LIBCMTD:dbgrptt.obj
 0002:000105d8       ??_C@_1MA@LBAMNNOB@?$AAs?$AAt?$AAr?$AAc?$AAp?$AAy?$AA_?$AAs?$AA?$CI?$AAs?$AAz?$AAO?$AAu?$AAt?$AAM?$AAe?$AAs?$AAs?$AAa?$AAg?$AAe?$AA2?$AA?0?$AA?5?$AA4?$AA0?$AA9?$AA6?$AA?0?$AA?5?$AA?$CC?$AA_@ 004b45d8     LIBCMTD:dbgrptt.obj
 0002:00010698       ??_C@_1JC@EOAPFDLN@?$AAw?$AAc?$AAs?$AAt?$AAo?$AAm?$AAb?$AAs?$AA_?$AAs?$AA?$CI?$AA?$CI?$AA?$CI?$AAv?$AAo?$AAi?$AAd?$AA?5?$AA?$CK?$AA?$CJ?$AA0?$AA?$CJ?$AA?0?$AA?5?$AAs?$AAz?$AAO?$AAu?$AAt?$AAM?$AAe?$AAs@ 004b4698     LIBCMTD:dbgrptt.obj
 0002:00010730       ??_C@_1FI@DBAIJPJE@?$AAw?$AAc?$AAs?$AAc?$AAp?$AAy?$AA_?$AAs?$AA?$CI?$AAs?$AAz?$AAO?$AAu?$AAt?$AAM?$AAe?$AAs?$AAs?$AAa?$AAg?$AAe?$AA?0?$AA?5?$AA4?$AA0?$AA9?$AA6?$AA?0?$AA?5?$AAs?$AAz?$AAL@ 004b4730     LIBCMTD:dbgrptt.obj
 0002:00010788       ??_C@_1BI@JIDBEPIG@?$AA?$CF?$AAs?$AA?$CI?$AA?$CF?$AAd?$AA?$CJ?$AA?5?$AA?3?$AA?5?$AA?$CF?$AAs?$AA?$AA@ 004b4788     LIBCMTD:dbgrptt.obj
 0002:000107a0       ??_C@_1EK@PHCBEDKB@?$AAw?$AAc?$AAs?$AAc?$AAa?$AAt?$AA_?$AAs?$AA?$CI?$AAs?$AAz?$AAL?$AAi?$AAn?$AAe?$AAM?$AAe?$AAs?$AAs?$AAa?$AAg?$AAe?$AA?0?$AA?5?$AA4?$AA0?$AA9?$AA6?$AA?0?$AA?5?$AAL?$AA?$CC@ 004b47a0     LIBCMTD:dbgrptt.obj
 0002:000107ec       ??_C@_13CMNBPIDO@?$AA?$AN?$AA?$AA@ 004b47ec     LIBCMTD:dbgrptt.obj
 0002:000107f0       ??_C@_1EK@NMDFGHMF@?$AAw?$AAc?$AAs?$AAc?$AAa?$AAt?$AA_?$AAs?$AA?$CI?$AAs?$AAz?$AAL?$AAi?$AAn?$AAe?$AAM?$AAe?$AAs?$AAs?$AAa?$AAg?$AAe?$AA?0?$AA?5?$AA4?$AA0?$AA9?$AA6?$AA?0?$AA?5?$AAL?$AA?$CC@ 004b47f0     LIBCMTD:dbgrptt.obj
 0002:00010840       ??_C@_1FK@HPADHBBD@?$AAw?$AAc?$AAs?$AAc?$AAa?$AAt?$AA_?$AAs?$AA?$CI?$AAs?$AAz?$AAL?$AAi?$AAn?$AAe?$AAM?$AAe?$AAs?$AAs?$AAa?$AAg?$AAe?$AA?0?$AA?5?$AA4?$AA0?$AA9?$AA6?$AA?0?$AA?5?$AAs?$AAz@ 004b4840     LIBCMTD:dbgrptt.obj
 0002:000108a0       ??_C@_1KO@DGAHENCH@?$AAw?$AAc?$AAs?$AAc?$AAp?$AAy?$AA_?$AAs?$AA?$CI?$AAs?$AAz?$AAL?$AAi?$AAn?$AAe?$AAM?$AAe?$AAs?$AAs?$AAa?$AAg?$AAe?$AA?0?$AA?5?$AA4?$AA0?$AA9?$AA6?$AA?0?$AA?5?$AAs?$AAz@ 004b48a0     LIBCMTD:dbgrptt.obj
 0002:00010950       ??_C@_1CE@OJBNHDMO@?$AAA?$AAs?$AAs?$AAe?$AAr?$AAt?$AAi?$AAo?$AAn?$AA?5?$AAf?$AAa?$AAi?$AAl?$AAe?$AAd?$AA?$CB?$AA?$AA@ 004b4950     LIBCMTD:dbgrptt.obj
 0002:00010974       ??_C@_1CG@FFFGGODN@?$AAA?$AAs?$AAs?$AAe?$AAr?$AAt?$AAi?$AAo?$AAn?$AA?5?$AAf?$AAa?$AAi?$AAl?$AAe?$AAd?$AA?3?$AA?5?$AA?$AA@ 004b4974     LIBCMTD:dbgrptt.obj
 0002:000109a0       ??_C@_1JK@KHFABAEO@?$AAw?$AAc?$AAs?$AAc?$AAp?$AAy?$AA_?$AAs?$AA?$CI?$AAs?$AAz?$AAU?$AAs?$AAe?$AAr?$AAM?$AAe?$AAs?$AAs?$AAa?$AAg?$AAe?$AA?0?$AA?5?$AA4?$AA0?$AA9?$AA6?$AA?0?$AA?5?$AAL?$AA?$CC@ 004b49a0     LIBCMTD:dbgrptt.obj
 0002:00010a3c       ??_C@_13LBAGMAIH@?$AA?6?$AA?$AA@ 004b4a3c     LIBCMTD:dbgrptt.obj
 0002:00010a40       ??_C@_1BA@ELMMDCFC@?$AA?0?$AA?5?$AAL?$AAi?$AAn?$AAe?$AA?5?$AA?$AA@ 004b4a40     LIBCMTD:dbgrptt.obj
 0002:00010a50       ??_C@_1BO@OCHMLCAG@?$AA?$DM?$AAf?$AAi?$AAl?$AAe?$AA?5?$AAu?$AAn?$AAk?$AAn?$AAo?$AAw?$AAn?$AA?$DO?$AA?$AA@ 004b4a50     LIBCMTD:dbgrptt.obj
 0002:00010a70       ??_C@_1EM@MJFLEDMB@?$AAS?$AAe?$AAc?$AAo?$AAn?$AAd?$AA?5?$AAC?$AAh?$AAa?$AAn?$AAc?$AAe?$AA?5?$AAA?$AAs?$AAs?$AAe?$AAr?$AAt?$AAi?$AAo?$AAn?$AA?5?$AAF?$AAa?$AAi?$AAl?$AAe?$AAd?$AA?3?$AA?5@ 004b4a70     LIBCMTD:dbgrptt.obj
 0002:00010ac0       ??_C@_1FA@CNLLOMHI@?$AA_?$AAi?$AAt?$AAo?$AAw?$AA_?$AAs?$AA?$CI?$AAn?$AAL?$AAi?$AAn?$AAe?$AA?0?$AA?5?$AAs?$AAz?$AAL?$AAi?$AAn?$AAe?$AAM?$AAe?$AAs?$AAs?$AAa?$AAg?$AAe?$AA?0?$AA?5?$AA4?$AA0@ 004b4ac0     LIBCMTD:dbgrptt.obj
 0002:00010b10       ??_C@_1CA@HPALHDOD@?$AA_?$AAV?$AAC?$AAr?$AAt?$AAD?$AAb?$AAg?$AAR?$AAe?$AAp?$AAo?$AAr?$AAt?$AAW?$AA?$AA@ 004b4b10     LIBCMTD:dbgrptt.obj
 0002:00010b30       ??_C@_0P@MIGLKIOC@CorExitProcess?$AA@ 004b4b30     LIBCMTD:crt0dat.obj
 0002:00010b40       ??_C@_1BI@BGOHAHKC@?$AAm?$AAs?$AAc?$AAo?$AAr?$AAe?$AAe?$AA?4?$AAd?$AAl?$AAl?$AA?$AA@ 004b4b40     LIBCMTD:crt0dat.obj
 0002:00010b58       ??_C@_1CC@CDIPMFPD@?$AA_?$AAw?$AAp?$AAg?$AAm?$AAp?$AAt?$AAr?$AA?5?$AA?$CB?$AA?$DN?$AA?5?$AAN?$AAU?$AAL?$AAL?$AA?$AA@ 004b4b58     LIBCMTD:crt0dat.obj
 0002:00010b7c       ??_C@_1BK@PNLDCCDP@?$AA_?$AAg?$AAe?$AAt?$AA_?$AAw?$AAp?$AAg?$AAm?$AAp?$AAt?$AAr?$AA?$AA@ 004b4b7c     LIBCMTD:crt0dat.obj
 0002:00010b98       ??_C@_1GC@DGCPEDNJ@?$AAf?$AA?3?$AA?2?$AAd?$AAd?$AA?2?$AAv?$AAc?$AAt?$AAo?$AAo?$AAl?$AAs?$AA?2?$AAc?$AAr?$AAt?$AA_?$AAb?$AAl?$AAd?$AA?2?$AAs?$AAe?$AAl?$AAf?$AA_?$AAx?$AA8?$AA6?$AA?2?$AAc@ 004b4b98     LIBCMTD:crt0dat.obj
 0002:00010bfc       ??_C@_1CA@BBNAFCKO@?$AA_?$AAp?$AAg?$AAm?$AAp?$AAt?$AAr?$AA?5?$AA?$CB?$AA?$DN?$AA?5?$AAN?$AAU?$AAL?$AAL?$AA?$AA@ 004b4bfc     LIBCMTD:crt0dat.obj
 0002:00010c1c       ??_C@_1BI@COAAPHJK@?$AA_?$AAg?$AAe?$AAt?$AA_?$AAp?$AAg?$AAm?$AAp?$AAt?$AAr?$AA?$AA@ 004b4c1c     LIBCMTD:crt0dat.obj
 0002:00010c34       ??_C@_1O@EJLDHPPL@?$AAs?$AAi?$AAg?$AAn?$AAa?$AAl?$AA?$AA@ 004b4c34     LIBCMTD:winsig.obj
 0002:00010c48       ??_C@_1GA@DBECNFG@?$AAf?$AA?3?$AA?2?$AAd?$AAd?$AA?2?$AAv?$AAc?$AAt?$AAo?$AAo?$AAl?$AAs?$AA?2?$AAc?$AAr?$AAt?$AA_?$AAb?$AAl?$AAd?$AA?2?$AAs?$AAe?$AAl?$AAf?$AA_?$AAx?$AA8?$AA6?$AA?2?$AAc@ 004b4c48     LIBCMTD:winsig.obj
 0002:00010ca8       ??_C@_1DO@MLNEDKGB@?$AA?$CI?$AA?$CC?$AAI?$AAn?$AAv?$AAa?$AAl?$AAi?$AAd?$AA?5?$AAs?$AAi?$AAg?$AAn?$AAa?$AAl?$AA?5?$AAo?$AAr?$AA?5?$AAe?$AAr?$AAr?$AAo?$AAr?$AA?$CC?$AA?0?$AA?5?$AA0?$AA?$CJ?$AA?$AA@ 004b4ca8     LIBCMTD:winsig.obj
 0002:00010ce8       ??_C@_0DA@ELJOOIJF@f?3?2dd?2vctools?2crt_bld?2self_x86?2c@ 004b4ce8     LIBCMTD:winsig.obj
 0002:00010d18       ??_C@_1M@DMJEIKHL@?$AAr?$AAa?$AAi?$AAs?$AAe?$AA?$AA@ 004b4d18     LIBCMTD:winsig.obj
 0002:00010d24       ??_C@_0BI@DFKBFLJE@GetProcessWindowStation?$AA@ 004b4d24     LIBCMTD:crtmboxw.obj
 0002:00010d3c       ??_C@_0BK@DEKFELLI@GetUserObjectInformationW?$AA@ 004b4d3c     LIBCMTD:crtmboxw.obj
 0002:00010d58       ??_C@_0BD@HHGDFDBJ@GetLastActivePopup?$AA@ 004b4d58     LIBCMTD:crtmboxw.obj
 0002:00010d6c       ??_C@_0BA@HNOPNCHB@GetActiveWindow?$AA@ 004b4d6c     LIBCMTD:crtmboxw.obj
 0002:00010d7c       ??_C@_0M@DLDCCGNP@MessageBoxW?$AA@ 004b4d7c     LIBCMTD:crtmboxw.obj
 0002:00010d88       ??_C@_1BG@GOEBHBDC@?$AAU?$AAS?$AAE?$AAR?$AA3?$AA2?$AA?4?$AAD?$AAL?$AAL?$AA?$AA@ 004b4d88     LIBCMTD:crtmboxw.obj
 0002:00010da0       ??_C@_1BE@BMIJMLDD@?$AA_?$AAs?$AAw?$AAp?$AAr?$AAi?$AAn?$AAt?$AAf?$AA?$AA@ 004b4da0     LIBCMTD:swprintf.obj
 0002:00010db8       ??_C@_1GE@DKGHLBLP@?$AAf?$AA?3?$AA?2?$AAd?$AAd?$AA?2?$AAv?$AAc?$AAt?$AAo?$AAo?$AAl?$AAs?$AA?2?$AAc?$AAr?$AAt?$AA_?$AAb?$AAl?$AAd?$AA?2?$AAs?$AAe?$AAl?$AAf?$AA_?$AAx?$AA8?$AA6?$AA?2?$AAc@ 004b4db8     LIBCMTD:swprintf.obj
 0002:00010e1c       ??_C@_1DM@MADKGDLO@?$AA?$CI?$AAL?$AA?$CC?$AAB?$AAu?$AAf?$AAf?$AAe?$AAr?$AA?5?$AAi?$AAs?$AA?5?$AAt?$AAo?$AAo?$AA?5?$AAs?$AAm?$AAa?$AAl?$AAl?$AA?$CC?$AA?5?$AA?$CG?$AA?$CG?$AA?5?$AA0?$AA?$CJ?$AA?$AA@ 004b4e1c     LIBCMTD:wcscpy_s.obj
 0002:00010e58       ??_C@_1CI@HCPHDDLE@?$AAB?$AAu?$AAf?$AAf?$AAe?$AAr?$AA?5?$AAi?$AAs?$AA?5?$AAt?$AAo?$AAo?$AA?5?$AAs?$AAm?$AAa?$AAl?$AAl?$AA?$AA@ 004b4e58     LIBCMTD:wcscpy_s.obj
 0002:00010e80       ??_C@_1CG@OFBJMIGJ@?$AA?$CI?$AA?$CI?$AA?$CI?$AA_?$AAS?$AAr?$AAc?$AA?$CJ?$AA?$CJ?$AA?$CJ?$AA?5?$AA?$CB?$AA?$DN?$AA?5?$AAN?$AAU?$AAL?$AAL?$AA?$AA@ 004b4e80     LIBCMTD:wcscpy_s.obj
 0002:00010ea8       ??_C@_1BC@KIONAFPO@?$AAw?$AAc?$AAs?$AAc?$AAp?$AAy?$AA_?$AAs?$AA?$AA@ 004b4ea8     LIBCMTD:wcscpy_s.obj
 0002:00010ec0       ??_C@_1GI@BGBNCIMA@?$AAf?$AA?3?$AA?2?$AAd?$AAd?$AA?2?$AAv?$AAc?$AAt?$AAo?$AAo?$AAl?$AAs?$AA?2?$AAc?$AAr?$AAt?$AA_?$AAb?$AAl?$AAd?$AA?2?$AAs?$AAe?$AAl?$AAf?$AA_?$AAx?$AA8?$AA6?$AA?2?$AAc@ 004b4ec0     LIBCMTD:wcscpy_s.obj
 0002:00010f28       ??_C@_1FC@PFMLEHKI@?$AA?$CI?$AA?$CI?$AA_?$AAD?$AAs?$AAt?$AA?$CJ?$AA?$CJ?$AA?5?$AA?$CB?$AA?$DN?$AA?5?$AAN?$AAU?$AAL?$AAL?$AA?5?$AA?$CG?$AA?$CG?$AA?5?$AA?$CI?$AA?$CI?$AA_?$AAS?$AAi?$AAz?$AAe?$AAI?$AAn?$AAW?$AAo?$AAr@ 004b4f28     LIBCMTD:wcscpy_s.obj
 0002:00010f7c       ??_C@_1BC@CFJEPFGF@?$AAs?$AAt?$AAr?$AAc?$AAp?$AAy?$AA_?$AAs?$AA?$AA@ 004b4f7c     LIBCMTD:strcpy_s.obj
 0002:00010f90       ??_C@_1FC@NCPEPIBI@?$AA?$CI?$AA?$CI?$AA_?$AAD?$AAs?$AAt?$AA?$CJ?$AA?$CJ?$AA?5?$AA?$CB?$AA?$DN?$AA?5?$AAN?$AAU?$AAL?$AAL?$AA?5?$AA?$CG?$AA?$CG?$AA?5?$AA?$CI?$AA?$CI?$AA_?$AAS?$AAi?$AAz?$AAe?$AAI?$AAn?$AAB?$AAy?$AAt@ 004b4f90     LIBCMTD:strcpy_s.obj
 0002:00010fe8       ___lookuptable_s           004b4fe8     LIBCMTD:outputs.obj
 0002:00011048       ??_C@_1FK@LNCFKALM@?$AA?$CI?$AA?$CI?$AAs?$AAt?$AAa?$AAt?$AAe?$AA?5?$AA?$DN?$AA?$DN?$AA?5?$AAS?$AAT?$AA_?$AAN?$AAO?$AAR?$AAM?$AAA?$AAL?$AA?$CJ?$AA?5?$AA?$HM?$AA?$HM?$AA?5?$AA?$CI?$AAs?$AAt?$AAa?$AAt?$AAe?$AA?5@ 004b5048     LIBCMTD:outputs.obj
 0002:000110a8       ??_C@_1EE@DMAIGNBG@?$AA?$CI?$AA?$CC?$AAI?$AAn?$AAc?$AAo?$AAr?$AAr?$AAe?$AAc?$AAt?$AA?5?$AAf?$AAo?$AAr?$AAm?$AAa?$AAt?$AA?5?$AAs?$AAp?$AAe?$AAc?$AAi?$AAf?$AAi?$AAe?$AAr?$AA?$CC?$AA?0?$AA?5?$AA0@ 004b50a8     LIBCMTD:outputs.obj
 0002:000110ec       ??_C@_1BI@COFBLHCG@?$AA_?$AAo?$AAu?$AAt?$AAp?$AAu?$AAt?$AA_?$AAs?$AA_?$AAl?$AA?$AA@ 004b50ec     LIBCMTD:outputs.obj
 0002:00011108       ??_C@_1FK@BCPANIEK@?$AA?$CI?$AA?$CC?$AAM?$AAi?$AAs?$AAs?$AAi?$AAn?$AAg?$AA?5?$AAp?$AAo?$AAs?$AAi?$AAt?$AAi?$AAo?$AAn?$AA?5?$AAi?$AAn?$AA?5?$AAt?$AAh?$AAe?$AA?5?$AAf?$AAo?$AAr?$AAm?$AAa?$AAt@ 004b5108     LIBCMTD:outputp.obj
 0002:00011168       ??_C@_1JC@OACKELNN@?$AA_?$AAt?$AAv?$AAa?$AAl?$AAi?$AAd?$AAa?$AAt?$AAe?$AA_?$AAp?$AAa?$AAr?$AAa?$AAm?$AA_?$AAr?$AAe?$AAu?$AAs?$AAe?$AA?$CI?$AA?$CG?$AAp?$AAo?$AAs?$AA_?$AAv?$AAa?$AAl?$AAu@ 004b5168     LIBCMTD:outputp.obj
 0002:00011200       ??_C@_1IK@NBGDDCBN@?$AA_?$AAt?$AAv?$AAa?$AAl?$AAi?$AAd?$AAa?$AAt?$AAe?$AA_?$AAp?$AAa?$AAr?$AAa?$AAm?$AA_?$AAr?$AAe?$AAu?$AAs?$AAe?$AA?$CI?$AA?$CG?$AAp?$AAo?$AAs?$AA_?$AAv?$AAa?$AAl?$AAu@ 004b5200     LIBCMTD:outputp.obj
 0002:0001128c       ??_C@_1DG@GOHGNKHE@?$AAp?$AAa?$AAs?$AAs?$AA?5?$AA?$DN?$AA?$DN?$AA?5?$AAF?$AAO?$AAR?$AAM?$AAA?$AAT?$AA_?$AAO?$AAU?$AAT?$AAP?$AAU?$AAT?$AA_?$AAP?$AAA?$AAS?$AAS?$AA?$AA@ 004b528c     LIBCMTD:outputp.obj
 0002:000112c8       ??_C@_1IM@DNGHAPLB@?$AA_?$AAt?$AAv?$AAa?$AAl?$AAi?$AAd?$AAa?$AAt?$AAe?$AA_?$AAp?$AAa?$AAr?$AAa?$AAm?$AA_?$AAr?$AAe?$AAu?$AAs?$AAe?$AA?$CI?$AA?$CG?$AAp?$AAo?$AAs?$AA_?$AAv?$AAa?$AAl?$AAu@ 004b52c8     LIBCMTD:outputp.obj
 0002:00011358       ??_C@_1IG@HJIMKDHC@?$AA_?$AAt?$AAv?$AAa?$AAl?$AAi?$AAd?$AAa?$AAt?$AAe?$AA_?$AAp?$AAa?$AAr?$AAa?$AAm?$AA_?$AAr?$AAe?$AAu?$AAs?$AAe?$AA?$CI?$AA?$CG?$AAp?$AAo?$AAs?$AA_?$AAv?$AAa?$AAl?$AAu@ 004b5358     LIBCMTD:outputp.obj
 0002:000113e0       ??_C@_1IG@FDCPLALG@?$AA_?$AAt?$AAv?$AAa?$AAl?$AAi?$AAd?$AAa?$AAt?$AAe?$AA_?$AAp?$AAa?$AAr?$AAa?$AAm?$AA_?$AAr?$AAe?$AAu?$AAs?$AAe?$AA?$CI?$AA?$CG?$AAp?$AAo?$AAs?$AA_?$AAv?$AAa?$AAl?$AAu@ 004b53e0     LIBCMTD:outputp.obj
 0002:00011468       ??_C@_1IK@MHEDJAMK@?$AA_?$AAt?$AAv?$AAa?$AAl?$AAi?$AAd?$AAa?$AAt?$AAe?$AA_?$AAp?$AAa?$AAr?$AAa?$AAm?$AA_?$AAr?$AAe?$AAu?$AAs?$AAe?$AA?$CI?$AA?$CG?$AAp?$AAo?$AAs?$AA_?$AAv?$AAa?$AAl?$AAu@ 004b5468     LIBCMTD:outputp.obj
 0002:000114f8       ??_C@_1EM@BNPHBBIA@?$AA?$CI?$AA?$CI?$AAt?$AAy?$AAp?$AAe?$AA_?$AAp?$AAo?$AAs?$AA?$DO?$AA?$DN?$AA0?$AA?$CJ?$AA?5?$AA?$CG?$AA?$CG?$AA?5?$AA?$CI?$AAt?$AAy?$AAp?$AAe?$AA_?$AAp?$AAo?$AAs?$AA?$DM?$AA_?$AAA?$AAR?$AAG@ 004b54f8     LIBCMTD:outputp.obj
 0002:00011548       ??_C@_1IK@EIEPDKHJ@?$AA_?$AAt?$AAv?$AAa?$AAl?$AAi?$AAd?$AAa?$AAt?$AAe?$AA_?$AAp?$AAa?$AAr?$AAa?$AAm?$AA_?$AAr?$AAe?$AAu?$AAs?$AAe?$AA?$CI?$AA?$CG?$AAp?$AAo?$AAs?$AA_?$AAv?$AAa?$AAl?$AAu@ 004b5548     LIBCMTD:outputp.obj
 0002:000115d8       ??_C@_1JG@JBJBOCFB@?$AA?$CI?$AA?$CI?$AAp?$AAr?$AAe?$AAc?$AAi?$AAs?$AA_?$AAp?$AAo?$AAs?$AA?5?$AA?$DO?$AA?$DN?$AA?5?$AA0?$AA?$CJ?$AA?5?$AA?$CG?$AA?$CG?$AA?5?$AA?$CI?$AA?$CK?$AAe?$AAn?$AAd?$AA_?$AAp?$AAo?$AAs?$AA?5@ 004b55d8     LIBCMTD:outputp.obj
 0002:00011670       ??_C@_1II@PIPIMLPF@?$AA_?$AAt?$AAv?$AAa?$AAl?$AAi?$AAd?$AAa?$AAt?$AAe?$AA_?$AAp?$AAa?$AAr?$AAa?$AAm?$AA_?$AAr?$AAe?$AAu?$AAs?$AAe?$AA?$CI?$AA?$CG?$AAp?$AAo?$AAs?$AA_?$AAv?$AAa?$AAl?$AAu@ 004b5670     LIBCMTD:outputp.obj
 0002:000116f8       ??_C@_1JE@NMBHOLFI@?$AA?$CI?$AA?$CI?$AAw?$AAi?$AAd?$AAt?$AAh?$AA_?$AAp?$AAo?$AAs?$AA?5?$AA?$DO?$AA?$DN?$AA?5?$AA0?$AA?$CJ?$AA?5?$AA?$CG?$AA?$CG?$AA?5?$AA?$CI?$AA?$CK?$AAe?$AAn?$AAd?$AA_?$AAp?$AAo?$AAs?$AA?5?$AA?$DN@ 004b56f8     LIBCMTD:outputp.obj
 0002:00011790       ??_C@_1JC@PFJNKEIO@?$AA?$CI?$AA?$CI?$AAt?$AAy?$AAp?$AAe?$AA_?$AAp?$AAo?$AAs?$AA?5?$AA?$DO?$AA?$DN?$AA?5?$AA0?$AA?$CJ?$AA?5?$AA?$CG?$AA?$CG?$AA?5?$AA?$CI?$AA?$CK?$AAe?$AAn?$AAd?$AA_?$AAp?$AAo?$AAs?$AA?5?$AA?$DN?$AA?$DN@ 004b5790     LIBCMTD:outputp.obj
 0002:00011824       ??_C@_1BI@KANOLAMF@?$AA_?$AAo?$AAu?$AAt?$AAp?$AAu?$AAt?$AA_?$AAp?$AA_?$AAl?$AA?$AA@ 004b5824     LIBCMTD:outputp.obj
 0002:0001183c       ??_C@_0CP@BNKDODJJ@f?3?2dd?2vctools?2crt_bld?2self_x86?2c@ 004b583c     LIBCMTD:_file.obj
 0002:00011870       ??_C@_1JE@ECKHFIFP@?$AA?$CI?$AA?$CC?$AAI?$AAn?$AAv?$AAa?$AAl?$AAi?$AAd?$AA?5?$AAf?$AAi?$AAl?$AAe?$AA?5?$AAd?$AAe?$AAs?$AAc?$AAr?$AAi?$AAp?$AAt?$AAo?$AAr?$AA?4?$AA?5?$AAF?$AAi?$AAl?$AAe?$AA?5@ 004b5870     LIBCMTD:commit.obj
 0002:00011904       ??_C@_1DG@LNNHNFHJ@?$AA?$CI?$AA_?$AAo?$AAs?$AAf?$AAi?$AAl?$AAe?$AA?$CI?$AAf?$AAi?$AAl?$AAe?$AAd?$AAe?$AAs?$AA?$CJ?$AA?5?$AA?$CG?$AA?5?$AAF?$AAO?$AAP?$AAE?$AAN?$AA?$CJ?$AA?$AA@ 004b5904     LIBCMTD:commit.obj
 0002:0001193c       ??_C@_1BA@FLNMBBIM@?$AA_?$AAc?$AAo?$AAm?$AAm?$AAi?$AAt?$AA?$AA@ 004b593c     LIBCMTD:commit.obj
 0002:00011950       ??_C@_1GA@BOPCOCFN@?$AAf?$AA?3?$AA?2?$AAd?$AAd?$AA?2?$AAv?$AAc?$AAt?$AAo?$AAo?$AAl?$AAs?$AA?2?$AAc?$AAr?$AAt?$AA_?$AAb?$AAl?$AAd?$AA?2?$AAs?$AAe?$AAl?$AAf?$AA_?$AAx?$AA8?$AA6?$AA?2?$AAc@ 004b5950     LIBCMTD:commit.obj
 0002:000119b0       ??_C@_1HC@KFLBHHBC@?$AA?$CI?$AAf?$AAi?$AAl?$AAe?$AAd?$AAe?$AAs?$AA?5?$AA?$DO?$AA?$DN?$AA?5?$AA0?$AA?5?$AA?$CG?$AA?$CG?$AA?5?$AA?$CI?$AAu?$AAn?$AAs?$AAi?$AAg?$AAn?$AAe?$AAd?$AA?$CJ?$AAf?$AAi?$AAl?$AAe?$AAd@ 004b59b0     LIBCMTD:commit.obj
 0002:00011a24       ??_C@_1BA@JGHIEKKM@?$AA_?$AAf?$AAi?$AAl?$AAe?$AAn?$AAo?$AA?$AA@ 004b5a24     LIBCMTD:fileno.obj
 0002:00011a38       ??_C@_1GA@PBJHELNC@?$AAf?$AA?3?$AA?2?$AAd?$AAd?$AA?2?$AAv?$AAc?$AAt?$AAo?$AAo?$AAl?$AAs?$AA?2?$AAc?$AAr?$AAt?$AA_?$AAb?$AAl?$AAd?$AA?2?$AAs?$AAe?$AAl?$AAf?$AA_?$AAx?$AA8?$AA6?$AA?2?$AAc@ 004b5a38     LIBCMTD:fileno.obj
 0002:00011a98       ??_C@_1CM@OKGMMMDH@?$AA?$CI?$AA_?$AAo?$AAs?$AAf?$AAi?$AAl?$AAe?$AA?$CI?$AAf?$AAh?$AA?$CJ?$AA?5?$AA?$CG?$AA?5?$AAF?$AAO?$AAP?$AAE?$AAN?$AA?$CJ?$AA?$AA@ 004b5a98     LIBCMTD:write.obj
 0002:00011ac4       ??_C@_1O@KOFKDHPL@?$AA_?$AAw?$AAr?$AAi?$AAt?$AAe?$AA?$AA@ 004b5ac4     LIBCMTD:write.obj
 0002:00011ad8       ??_C@_1FO@EPLDPDDL@?$AAf?$AA?3?$AA?2?$AAd?$AAd?$AA?2?$AAv?$AAc?$AAt?$AAo?$AAo?$AAl?$AAs?$AA?2?$AAc?$AAr?$AAt?$AA_?$AAb?$AAl?$AAd?$AA?2?$AAs?$AAe?$AAl?$AAf?$AA_?$AAx?$AA8?$AA6?$AA?2?$AAc@ 004b5ad8     LIBCMTD:write.obj
 0002:00011b38       ??_C@_1FO@LPCLHKGE@?$AA?$CI?$AAf?$AAh?$AA?5?$AA?$DO?$AA?$DN?$AA?5?$AA0?$AA?5?$AA?$CG?$AA?$CG?$AA?5?$AA?$CI?$AAu?$AAn?$AAs?$AAi?$AAg?$AAn?$AAe?$AAd?$AA?$CJ?$AAf?$AAh?$AA?5?$AA?$DM?$AA?5?$AA?$CI?$AAu?$AAn?$AAs?$AAi@ 004b5b38     LIBCMTD:write.obj
 0002:00011b98       ??_C@_1DI@CNMHHHLG@?$AAi?$AAs?$AAl?$AAe?$AAa?$AAd?$AAb?$AAy?$AAt?$AAe?$AA?$CI?$AA_?$AAd?$AAb?$AAc?$AAs?$AAB?$AAu?$AAf?$AAf?$AAe?$AAr?$AA?$CI?$AAf?$AAh?$AA?$CJ?$AA?$CJ?$AA?$AA@ 004b5b98     LIBCMTD:write.obj
 0002:00011bd0       ??_C@_1CC@EEOLPHGO@?$AA?$CI?$AA?$CI?$AAc?$AAn?$AAt?$AA?5?$AA?$CG?$AA?5?$AA1?$AA?$CJ?$AA?5?$AA?$DN?$AA?$DN?$AA?5?$AA0?$AA?$CJ?$AA?$AA@ 004b5bd0     LIBCMTD:write.obj
 0002:00011bf4       ??_C@_1BM@NCANHCIP@?$AA_?$AAw?$AAr?$AAi?$AAt?$AAe?$AA_?$AAn?$AAo?$AAl?$AAo?$AAc?$AAk?$AA?$AA@ 004b5bf4     LIBCMTD:write.obj
 0002:00011c10       ??_C@_1BM@KFJLMBPG@?$AA?$CI?$AAb?$AAu?$AAf?$AA?5?$AA?$CB?$AA?$DN?$AA?5?$AAN?$AAU?$AAL?$AAL?$AA?$CJ?$AA?$AA@ 004b5c10     LIBCMTD:write.obj
 0002:00011c2c       ??_C@_0DB@OLNNDFNH@f?3?2dd?2vctools?2crt_bld?2self_x86?2c@ 004b5c2c     LIBCMTD:_sftbuf.obj
 0002:00011c60       ??_C@_1GC@DGAFOCMO@?$AAf?$AA?3?$AA?2?$AAd?$AAd?$AA?2?$AAv?$AAc?$AAt?$AAo?$AAo?$AAl?$AAs?$AA?2?$AAc?$AAr?$AAt?$AA_?$AAb?$AAl?$AAd?$AA?2?$AAs?$AAe?$AAl?$AAf?$AA_?$AAx?$AA8?$AA6?$AA?2?$AAc@ 004b5c60     LIBCMTD:_sftbuf.obj
 0002:00011cc4       ??_C@_1CO@KCKAACMI@?$AAf?$AAl?$AAa?$AAg?$AA?5?$AA?$DN?$AA?$DN?$AA?5?$AA0?$AA?5?$AA?$HM?$AA?$HM?$AA?5?$AAf?$AAl?$AAa?$AAg?$AA?5?$AA?$DN?$AA?$DN?$AA?5?$AA1?$AA?$AA@ 004b5cc4     LIBCMTD:_sftbuf.obj
 0002:00011cf4       ??_C@_0DA@NBLAKPEL@f?3?2dd?2vctools?2crt_bld?2self_x86?2c@ 004b5cf4     LIBCMTD:ioinit.obj
 0002:00011d24       ??_C@_1O@EDEJGJBM@?$AA_?$AAc?$AAl?$AAo?$AAs?$AAe?$AA?$AA@ 004b5d24     LIBCMTD:close.obj
 0002:00011d38       ??_C@_1FO@NNGNFGFH@?$AAf?$AA?3?$AA?2?$AAd?$AAd?$AA?2?$AAv?$AAc?$AAt?$AAo?$AAo?$AAl?$AAs?$AA?2?$AAc?$AAr?$AAt?$AA_?$AAb?$AAl?$AAd?$AA?2?$AAs?$AAe?$AAl?$AAf?$AA_?$AAx?$AA8?$AA6?$AA?2?$AAc@ 004b5d38     LIBCMTD:close.obj
 0002:00011d98       ??_C@_1GE@MIMBMOF@?$AAf?$AA?3?$AA?2?$AAd?$AAd?$AA?2?$AAv?$AAc?$AAt?$AAo?$AAo?$AAl?$AAs?$AA?2?$AAc?$AAr?$AAt?$AA_?$AAb?$AAl?$AAd?$AA?2?$AAs?$AAe?$AAl?$AAf?$AA_?$AAx?$AA8?$AA6?$AA?2?$AAc@ 004b5d98     LIBCMTD:_freebuf.obj
 0002:00011dfc       ??_C@_1BO@KIJENGPH@?$AAs?$AAt?$AAr?$AAe?$AAa?$AAm?$AA?5?$AA?$CB?$AA?$DN?$AA?5?$AAN?$AAU?$AAL?$AAL?$AA?$AA@ 004b5dfc     LIBCMTD:_freebuf.obj
 0002:00011e1c       ??_C@_1O@EDOIKGHF@?$AA_?$AAl?$AAs?$AAe?$AAe?$AAk?$AA?$AA@ 004b5e1c     LIBCMTD:lseek.obj
 0002:00011e30       ??_C@_1FO@LGKMLCAL@?$AAf?$AA?3?$AA?2?$AAd?$AAd?$AA?2?$AAv?$AAc?$AAt?$AAo?$AAo?$AAl?$AAs?$AA?2?$AAc?$AAr?$AAt?$AA_?$AAb?$AAl?$AAd?$AA?2?$AAs?$AAe?$AAl?$AAf?$AA_?$AAx?$AA8?$AA6?$AA?2?$AAc@ 004b5e30     LIBCMTD:lseek.obj
 0002:00011e90       ??_C@_1DM@LMLOLGJ@?$AA?$CI?$AA?$CC?$AAI?$AAn?$AAv?$AAa?$AAl?$AAi?$AAd?$AA?5?$AAf?$AAi?$AAl?$AAe?$AA?5?$AAd?$AAe?$AAs?$AAc?$AAr?$AAi?$AAp?$AAt?$AAo?$AAr?$AA?$CC?$AA?0?$AA0?$AA?$CJ?$AA?$AA@ 004b5e90     LIBCMTD:lseek.obj
 0002:00011eec       ??_C@_1CI@KEDPFCAL@?$AA?$CI?$AA?$CK?$AAm?$AAo?$AAd?$AAe?$AA?5?$AA?$DN?$AA?$DN?$AA?5?$AA_?$AAT?$AA?$CI?$AA?8?$AA?2?$AA0?$AA?8?$AA?$CJ?$AA?$CJ?$AA?$AA@ 004b5eec     LIBCMTD:_open.obj
 0002:00011f14       ??_C@_1BE@DONHJJKE@?$AA_?$AAo?$AAp?$AAe?$AAn?$AAf?$AAi?$AAl?$AAe?$AA?$AA@ 004b5f14     LIBCMTD:_open.obj
 0002:00011f28       ??_C@_1DK@PKMJBLLN@?$AA?$CI?$AA?$CC?$AAI?$AAn?$AAv?$AAa?$AAl?$AAi?$AAd?$AA?5?$AAf?$AAi?$AAl?$AAe?$AA?5?$AAo?$AAp?$AAe?$AAn?$AA?5?$AAm?$AAo?$AAd?$AAe?$AA?$CC?$AA?0?$AA0?$AA?$CJ?$AA?$AA@ 004b5f28     LIBCMTD:_open.obj
 0002:00011f64       ??_C@_1BK@HGLMNMEC@?$AAm?$AAo?$AAd?$AAe?$AA?5?$AA?$CB?$AA?$DN?$AA?5?$AAN?$AAU?$AAL?$AAL?$AA?$AA@ 004b5f64     LIBCMTD:_open.obj
 0002:00011f80       ??_C@_1FO@POGAHKND@?$AAf?$AA?3?$AA?2?$AAd?$AAd?$AA?2?$AAv?$AAc?$AAt?$AAo?$AAo?$AAl?$AAs?$AA?2?$AAc?$AAr?$AAt?$AA_?$AAb?$AAl?$AAd?$AA?2?$AAs?$AAe?$AAl?$AAf?$AA_?$AAx?$AA8?$AA6?$AA?2?$AAc@ 004b5f80     LIBCMTD:_open.obj
 0002:00011fe0       ??_C@_1CC@JBMDNKJP@?$AAf?$AAi?$AAl?$AAe?$AAn?$AAa?$AAm?$AAe?$AA?5?$AA?$CB?$AA?$DN?$AA?5?$AAN?$AAU?$AAL?$AAL?$AA?$AA@ 004b5fe0     LIBCMTD:_open.obj
 0002:00012004       ??_C@_0DA@NLPACBPK@f?3?2dd?2vctools?2crt_bld?2self_x86?2c@ 004b6004     LIBCMTD:stream.obj
 0002:00012034       ??_C@_1BM@HBMHMBEM@?$AA_?$AAm?$AAb?$AAs?$AAn?$AAb?$AAc?$AAp?$AAy?$AA_?$AAs?$AA_?$AAl?$AA?$AA@ 004b6034     LIBCMTD:mbsnbcpy_s_l.obj
 0002:00012050       ??_C@_1GK@MBHICH@?$AAf?$AA?3?$AA?2?$AAd?$AAd?$AA?2?$AAv?$AAc?$AAt?$AAo?$AAo?$AAl?$AAs?$AA?2?$AAc?$AAr?$AAt?$AA_?$AAb?$AAl?$AAd?$AA?2?$AAs?$AAe?$AAl?$AAf?$AA_?$AAx?$AA8?$AA6?$AA?2?$AAc@ 004b6050     LIBCMTD:mbsnbcpy_s_l.obj
 0002:000120bc       ??_C@_03KHICJKCI@?4?4?4?$AA@ 004b60bc     LIBCMTD:dbgrpt.obj
 0002:000120c0       ??_C@_0BB@NAGLCMLI@Assertion?5Failed?$AA@ 004b60c0     LIBCMTD:dbgrpt.obj
 0002:000120d4       ??_C@_05NAOIJFC@Error?$AA@ 004b60d4     LIBCMTD:dbgrpt.obj
 0002:000120dc       ??_C@_07KGMMFLDN@Warning?$AA@ 004b60dc     LIBCMTD:dbgrpt.obj
 0002:000120f0       ??_C@_1CG@GNMJDMIO@?$AA_?$AAC?$AAr?$AAt?$AAS?$AAe?$AAt?$AAR?$AAe?$AAp?$AAo?$AAr?$AAt?$AAH?$AAo?$AAo?$AAk?$AA2?$AA?$AA@ 004b60f0     LIBCMTD:dbgrpt.obj
 0002:00012118       ??_C@_0CD@EBCGLDDL@Microsoft?5Visual?5C?$CL?$CL?5Debug?5Libra@ 004b6118     LIBCMTD:dbgrpt.obj
 0002:00012140       ??_C@_0FF@CCONDJCB@Debug?5?$CFs?$CB?6?6Program?3?5?$CFs?$CFs?$CFs?$CFs?$CFs?$CFs@ 004b6140     LIBCMTD:dbgrpt.obj
 0002:00012198       ??_C@_09OFBFHMBK@?6Module?3?5?$AA@ 004b6198     LIBCMTD:dbgrpt.obj
 0002:000121a4       ??_C@_07OPHPPLBG@?6File?3?5?$AA@ 004b61a4     LIBCMTD:dbgrpt.obj
 0002:000121ac       ??_C@_07DBMPPHDI@?6Line?3?5?$AA@ 004b61ac     LIBCMTD:dbgrpt.obj
 0002:000121b4       ??_C@_02PHMGELLB@?6?6?$AA@ 004b61b4     LIBCMTD:dbgrpt.obj
 0002:000121b8       ??_C@_0N@MEECIJGN@Expression?3?5?$AA@ 004b61b8     LIBCMTD:dbgrpt.obj
 0002:000121c8       ??_C@_0HD@GNBNFCCL@?6?6For?5information?5on?5how?5your?5pr@ 004b61c8     LIBCMTD:dbgrpt.obj
 0002:0001223c       ??_C@_0BH@DNAGHKFM@?$DMprogram?5name?5unknown?$DO?$AA@ 004b623c     LIBCMTD:dbgrpt.obj
 0002:00012258       ??_C@_1GG@DLDHOIGE@?$AAs?$AAt?$AAr?$AAc?$AAp?$AAy?$AA_?$AAs?$AA?$CI?$AAs?$AAz?$AAE?$AAx?$AAe?$AAN?$AAa?$AAm?$AAe?$AA?0?$AA?5?$AA2?$AA6?$AA0?$AA?0?$AA?5?$AA?$CC?$AA?$DM?$AAp?$AAr?$AAo?$AAg?$AAr@ 004b6258     LIBCMTD:dbgrpt.obj
 0002:000122c0       ??_C@_1CI@IDOKFLAJ@?$AA_?$AA_?$AAc?$AAr?$AAt?$AAM?$AAe?$AAs?$AAs?$AAa?$AAg?$AAe?$AAW?$AAi?$AAn?$AAd?$AAo?$AAw?$AAA?$AA?$AA@ 004b62c0     LIBCMTD:dbgrpt.obj
 0002:000122e8       ??_C@_1BK@JMCGJOCC@?$AA_?$AAe?$AAx?$AAp?$AAa?$AAn?$AAd?$AA_?$AAb?$AAa?$AAs?$AAe?$AA?$AA@ 004b62e8     LIBCMTD:expand.obj
 0002:00012308       ??_C@_1GA@EBHFLDNH@?$AAf?$AA?3?$AA?2?$AAd?$AAd?$AA?2?$AAv?$AAc?$AAt?$AAo?$AAo?$AAl?$AAs?$AA?2?$AAc?$AAr?$AAt?$AA_?$AAb?$AAl?$AAd?$AA?2?$AAs?$AAe?$AAl?$AAf?$AA_?$AAx?$AA8?$AA6?$AA?2?$AAc@ 004b6308     LIBCMTD:expand.obj
 0002:00012368       ??_C@_1BO@KFIJIAEA@?$AAp?$AAB?$AAl?$AAo?$AAc?$AAk?$AA?5?$AA?$CB?$AA?$DN?$AA?5?$AAN?$AAU?$AAL?$AAL?$AA?$AA@ 004b6368     LIBCMTD:expand.obj
 0002:00012388       ??_C@_1GE@JDDMFOID@?$AAf?$AA?3?$AA?2?$AAd?$AAd?$AA?2?$AAv?$AAc?$AAt?$AAo?$AAo?$AAl?$AAs?$AA?2?$AAc?$AAr?$AAt?$AA_?$AAb?$AAl?$AAd?$AA?2?$AAs?$AAe?$AAl?$AAf?$AA_?$AAx?$AA8?$AA6?$AA?2?$AAc@ 004b6388     LIBCMTD:heapinit.obj
 0002:000123ec       ??_C@_1BC@DENNNKIM@?$AA_?$AAc?$AAr?$AAt?$AAh?$AAe?$AAa?$AAp?$AA?$AA@ 004b63ec     LIBCMTD:heapinit.obj
 0002:00012400       ??_C@_1GC@CHGJNMHG@?$AAf?$AA?3?$AA?2?$AAd?$AAd?$AA?2?$AAv?$AAc?$AAt?$AAo?$AAo?$AAl?$AAs?$AA?2?$AAc?$AAr?$AAt?$AA_?$AAb?$AAl?$AAd?$AA?2?$AAs?$AAe?$AAl?$AAf?$AA_?$AAx?$AA8?$AA6?$AA?2?$AAc@ 004b6400     LIBCMTD:isctype.obj
 0002:00012464       ??_C@_1DC@BPLPALML@?$AA?$CI?$AAu?$AAn?$AAs?$AAi?$AAg?$AAn?$AAe?$AAd?$AA?$CJ?$AA?$CI?$AAc?$AA?5?$AA?$CL?$AA?5?$AA1?$AA?$CJ?$AA?5?$AA?$DM?$AA?$DN?$AA?5?$AA2?$AA5?$AA6?$AA?$AA@ 004b6464     LIBCMTD:isctype.obj
 0002:000124a0       __indefinite               004b64a0     LIBCMTD:_87disp_.obj
 0002:000124aa       __piby2                    004b64aa     LIBCMTD:_87disp_.obj
 0002:000124d8       __DEFAULT_CW_in_mem        004b64d8     LIBCMTD:_common_.obj
 0002:000124da       __pi_by_2_to_61            004b64da     LIBCMTD:_common_.obj
 0002:00012518       ??_C@_1GE@KOCFNGPB@?$AA_?$AAc?$AAo?$AAn?$AAt?$AAr?$AAo?$AAl?$AAf?$AAp?$AA_?$AAs?$AA?$CI?$AA?$CI?$AA?$CI?$AAv?$AAo?$AAi?$AAd?$AA?5?$AA?$CK?$AA?$CJ?$AA0?$AA?$CJ?$AA?0?$AA?5?$AA0?$AAx?$AA0?$AA0?$AA0?$AA1@ 004b6518     LIBCMTD:fp8.obj
 0002:0001257c       ??_C@_1CK@JMKHCBEI@?$AA_?$AAs?$AAe?$AAt?$AAd?$AAe?$AAf?$AAa?$AAu?$AAl?$AAt?$AAp?$AAr?$AAe?$AAc?$AAi?$AAs?$AAi?$AAo?$AAn?$AA?$AA@ 004b657c     LIBCMTD:fp8.obj
 0002:000125a8       ??_C@_1GG@PHGJJHBC@?$AAf?$AA?3?$AA?2?$AAd?$AAd?$AA?2?$AAv?$AAc?$AAt?$AAo?$AAo?$AAl?$AAs?$AA?2?$AAc?$AAr?$AAt?$AA_?$AAb?$AAl?$AAd?$AA?2?$AAs?$AAe?$AAl?$AAf?$AA_?$AAx?$AA8?$AA6?$AA?2?$AAc@ 004b65a8     LIBCMTD:fp8.obj
 0002:00012610       __real@0000000000000000    004b6610     LIBCMTD:cvt.obj
 0002:00012618       ??_C@_1CA@CBMNPEO@?$AAs?$AAi?$AAz?$AAe?$AAI?$AAn?$AAB?$AAy?$AAt?$AAe?$AAs?$AA?5?$AA?$DO?$AA?5?$AA0?$AA?$AA@ 004b6618     LIBCMTD:cvt.obj
 0002:00012638       ??_C@_1BC@INKAPMHI@?$AA_?$AAc?$AAf?$AAt?$AAo?$AAe?$AA_?$AAl?$AA?$AA@ 004b6638     LIBCMTD:cvt.obj
 0002:00012650       ??_C@_1GO@NCCGBNKI@?$AAf?$AA?3?$AA?2?$AAd?$AAd?$AA?2?$AAv?$AAc?$AAt?$AAo?$AAo?$AAl?$AAs?$AA?2?$AAc?$AAr?$AAt?$AA_?$AAb?$AAl?$AAd?$AA?2?$AAs?$AAe?$AAl?$AAf?$AA_?$AAx?$AA8?$AA6?$AA?2?$AAc@ 004b6650     LIBCMTD:cvt.obj
 0002:000126c0       ??_C@_1BI@ICGGMGLK@?$AAb?$AAu?$AAf?$AA?5?$AA?$CB?$AA?$DN?$AA?5?$AAN?$AAU?$AAL?$AAL?$AA?$AA@ 004b66c0     LIBCMTD:cvt.obj
 0002:000126d8       ??_C@_05KLBDPFGC@e?$CL000?$AA@ 004b66d8     LIBCMTD:cvt.obj
 0002:000126e0       ??_C@_1LE@EOIFGNCJ@?$AAs?$AAt?$AAr?$AAc?$AAp?$AAy?$AA_?$AAs?$AA?$CI?$AAp?$AA?0?$AA?5?$AA?$CI?$AAs?$AAi?$AAz?$AAe?$AAI?$AAn?$AAB?$AAy?$AAt?$AAe?$AAs?$AA?5?$AA?$DN?$AA?$DN?$AA?5?$AA?$CI?$AAs?$AAi?$AAz@ 004b66e0     LIBCMTD:cvt.obj
 0002:00012798       ??_C@_1HE@NACBNDPP@?$AAs?$AAi?$AAz?$AAe?$AAI?$AAn?$AAB?$AAy?$AAt?$AAe?$AAs?$AA?5?$AA?$DO?$AA?5?$AA?$CI?$AAs?$AAi?$AAz?$AAe?$AA_?$AAt?$AA?$CJ?$AA?$CI?$AA3?$AA?5?$AA?$CL?$AA?5?$AA?$CI?$AAn?$AAd?$AAe?$AAc@ 004b6798     LIBCMTD:cvt.obj
 0002:0001280c       ??_C@_1BE@OLBNEILL@?$AA_?$AAc?$AAf?$AAt?$AAo?$AAe?$AA2?$AA_?$AAl?$AA?$AA@ 004b680c     LIBCMTD:cvt.obj
 0002:00012820       ??_C@_1FC@IKIMAMJB@?$AAs?$AAi?$AAz?$AAe?$AAI?$AAn?$AAB?$AAy?$AAt?$AAe?$AAs?$AA?5?$AA?$DO?$AA?5?$AA?$CI?$AAs?$AAi?$AAz?$AAe?$AA_?$AAt?$AA?$CJ?$AA?$CI?$AA1?$AA?5?$AA?$CL?$AA?5?$AA4?$AA?5?$AA?$CL?$AA?5?$AAn@ 004b6820     LIBCMTD:cvt.obj
 0002:00012874       ??_C@_1BC@JOKPCIC@?$AA_?$AAc?$AAf?$AAt?$AAo?$AAa?$AA_?$AAl?$AA?$AA@ 004b6874     LIBCMTD:cvt.obj
 0002:00012888       ??_C@_1BC@DCPPLJL@?$AA_?$AAc?$AAf?$AAt?$AAo?$AAf?$AA_?$AAl?$AA?$AA@ 004b6888     LIBCMTD:cvt.obj
 0002:0001289c       ??_C@_1BE@CKPDLI@?$AA_?$AAc?$AAf?$AAt?$AAo?$AAf?$AA2?$AA_?$AAl?$AA?$AA@ 004b689c     LIBCMTD:cvt.obj
 0002:000128b0       ??_C@_1BC@MPIFPLAF@?$AA_?$AAc?$AAf?$AAt?$AAo?$AAg?$AA_?$AAl?$AA?$AA@ 004b68b0     LIBCMTD:cvt.obj
 0002:000128c4       ??_C@_1BI@DFJDDOHM@?$AA_?$AAg?$AAm?$AAt?$AAi?$AAm?$AAe?$AA3?$AA2?$AA_?$AAs?$AA?$AA@ 004b68c4     LIBCMTD:gmtime.obj
 0002:000128e0       ??_C@_1GA@OAOCHJKE@?$AAf?$AA?3?$AA?2?$AAd?$AAd?$AA?2?$AAv?$AAc?$AAt?$AAo?$AAo?$AAl?$AAs?$AA?2?$AAc?$AAr?$AAt?$AA_?$AAb?$AAl?$AAd?$AA?2?$AAs?$AAe?$AAl?$AAf?$AA_?$AAx?$AA8?$AA6?$AA?2?$AAc@ 004b68e0     LIBCMTD:gmtime.obj
 0002:00012940       ??_C@_0DA@FNHOCICI@f?3?2dd?2vctools?2crt_bld?2self_x86?2c@ 004b6940     LIBCMTD:gmtime.obj
 0002:00012970       ??_C@_07LCBHPJJN@LC_TIME?$AA@ 004b6970     LIBCMTD:setlocal.obj
 0002:00012978       ??_C@_0L@DLHIECNL@LC_NUMERIC?$AA@ 004b6978     LIBCMTD:setlocal.obj
 0002:00012984       ??_C@_0M@MIENIKLA@LC_MONETARY?$AA@ 004b6984     LIBCMTD:setlocal.obj
 0002:00012990       ??_C@_08EADHIDAD@LC_CTYPE?$AA@ 004b6990     LIBCMTD:setlocal.obj
 0002:0001299c       ??_C@_0L@KFJHEKIK@LC_COLLATE?$AA@ 004b699c     LIBCMTD:setlocal.obj
 0002:000129a8       ??_C@_06NEFDFEKB@LC_ALL?$AA@ 004b69a8     LIBCMTD:setlocal.obj
 0002:000129b0       ___lc_category             004b69b0     LIBCMTD:setlocal.obj
 0002:00012a78       ??_C@_1CI@FGIONOJM@?$AA_?$AAc?$AAo?$AAn?$AAf?$AAi?$AAg?$AAt?$AAh?$AAr?$AAe?$AAa?$AAd?$AAl?$AAo?$AAc?$AAa?$AAl?$AAe?$AA?$AA@ 004b6a78     LIBCMTD:setlocal.obj
 0002:00012aa0       ??_C@_1GE@OLEIGPBJ@?$AAf?$AA?3?$AA?2?$AAd?$AAd?$AA?2?$AAv?$AAc?$AAt?$AAo?$AAo?$AAl?$AAs?$AA?2?$AAc?$AAr?$AAt?$AA_?$AAb?$AAl?$AAd?$AA?2?$AAs?$AAe?$AAl?$AAf?$AA_?$AAx?$AA8?$AA6?$AA?2?$AAc@ 004b6aa0     LIBCMTD:setlocal.obj
 0002:00012b08       ??_C@_1GA@LDEGDKD@?$AA?$CI?$AA?$CC?$AAI?$AAn?$AAv?$AAa?$AAl?$AAi?$AAd?$AA?5?$AAp?$AAa?$AAr?$AAa?$AAm?$AAe?$AAt?$AAe?$AAr?$AA?5?$AAf?$AAo?$AAr?$AA?5?$AA_?$AAc?$AAo?$AAn?$AAf?$AAi?$AAg?$AAt@ 004b6b08     LIBCMTD:setlocal.obj
 0002:00012b68       ??_C@_0DC@JCPFNMID@f?3?2dd?2vctools?2crt_bld?2self_x86?2c@ 004b6b68     LIBCMTD:setlocal.obj
 0002:00012b9c       ??_C@_1BE@DBJGBOJC@?$AAs?$AAe?$AAt?$AAl?$AAo?$AAc?$AAa?$AAl?$AAe?$AA?$AA@ 004b6b9c     LIBCMTD:setlocal.obj
 0002:00012bb0       ??_C@_1FG@OHLFEKMC@?$AAL?$AAC?$AA_?$AAM?$AAI?$AAN?$AA?5?$AA?$DM?$AA?$DN?$AA?5?$AA_?$AAc?$AAa?$AAt?$AAe?$AAg?$AAo?$AAr?$AAy?$AA?5?$AA?$CG?$AA?$CG?$AA?5?$AA_?$AAc?$AAa?$AAt?$AAe?$AAg?$AAo?$AAr?$AAy@ 004b6bb0     LIBCMTD:setlocal.obj
 0002:00012c08       ??_C@_1IA@PFIKKKFB@?$AAs?$AAt?$AAr?$AAn?$AAc?$AAp?$AAy?$AA_?$AAs?$AA?$CI?$AAl?$AAc?$AAt?$AAe?$AAm?$AAp?$AA?0?$AA?5?$AA?$CI?$AAs?$AAi?$AAz?$AAe?$AAo?$AAf?$AA?$CI?$AAl?$AAc?$AAt?$AAe?$AAm?$AAp@ 004b6c08     LIBCMTD:setlocal.obj
 0002:00012c88       ??_C@_1CE@OFNHIOO@?$AA_?$AAs?$AAe?$AAt?$AAl?$AAo?$AAc?$AAa?$AAl?$AAe?$AA_?$AAn?$AAo?$AAl?$AAo?$AAc?$AAk?$AA?$AA@ 004b6c88     LIBCMTD:setlocal.obj
 0002:00012cac       ??_C@_01ICJEACDI@?$DL?$AA@ 004b6cac     LIBCMTD:setlocal.obj
 0002:00012cb0       ??_C@_02BALPLPBG@?$DN?$DL?$AA@ 004b6cb0     LIBCMTD:setlocal.obj
 0002:00012cb8       ??_C@_1GO@JALHLJEH@?$AAs?$AAt?$AAr?$AAc?$AAp?$AAy?$AA_?$AAs?$AA?$CI?$AAp?$AAc?$AAh?$AA?5?$AA?$CL?$AA?5?$AAs?$AAi?$AAz?$AAe?$AAo?$AAf?$AA?$CI?$AAi?$AAn?$AAt?$AA?$CJ?$AA?0?$AA?5?$AAc?$AAc?$AAh?$AA?5@ 004b6cb8     LIBCMTD:setlocal.obj
 0002:00012d28       ??_C@_1CG@IEFIICPK@?$AA_?$AAs?$AAe?$AAt?$AAl?$AAo?$AAc?$AAa?$AAl?$AAe?$AA_?$AAs?$AAe?$AAt?$AA_?$AAc?$AAa?$AAt?$AA?$AA@ 004b6d28     LIBCMTD:setlocal.obj
 0002:00012d50       ??_C@_1DA@GDKKLCLM@?$AAs?$AAt?$AAr?$AAc?$AAa?$AAt?$AA_?$AAs?$AA?$CI?$AAp?$AAc?$AAh?$AA?0?$AA?5?$AAc?$AAc?$AAh?$AA?0?$AA?5?$AA?$CC?$AA?$DL?$AA?$CC?$AA?$CJ?$AA?$AA@ 004b6d50     LIBCMTD:setlocal.obj
 0002:00012d80       ??_C@_1CG@NNFIJLDA@?$AA_?$AAs?$AAe?$AAt?$AAl?$AAo?$AAc?$AAa?$AAl?$AAe?$AA_?$AAg?$AAe?$AAt?$AA_?$AAa?$AAl?$AAl?$AA?$AA@ 004b6d80     LIBCMTD:setlocal.obj
 0002:00012da8       ??_C@_01NEMOKFLO@?$DN?$AA@ 004b6da8     LIBCMTD:setlocal.obj
 0002:00012db0       ??_C@_1FA@MHAOOIBO@?$AAs?$AAt?$AAr?$AAc?$AAp?$AAy?$AA_?$AAs?$AA?$CI?$AAo?$AAu?$AAt?$AAp?$AAu?$AAt?$AA?0?$AA?5?$AAs?$AAi?$AAz?$AAe?$AAI?$AAn?$AAC?$AAh?$AAa?$AAr?$AAs?$AA?0?$AA?5?$AAc?$AAa@ 004b6db0     LIBCMTD:setlocal.obj
 0002:00012e00       ??_C@_1IA@ONNFOEDA@?$AAs?$AAt?$AAr?$AAn?$AAc?$AAp?$AAy?$AA_?$AAs?$AA?$CI?$AAc?$AAa?$AAc?$AAh?$AAe?$AAi?$AAn?$AA?0?$AA?5?$AAc?$AAa?$AAc?$AAh?$AAe?$AAi?$AAn?$AAS?$AAi?$AAz?$AAe?$AA?0?$AA?5@ 004b6e00     LIBCMTD:setlocal.obj
 0002:00012e80       ??_C@_01GFHCPBMG@C?$AA@    004b6e80     LIBCMTD:setlocal.obj
 0002:00012e88       ??_C@_1EG@MOMHKOD@?$AAs?$AAt?$AAr?$AAc?$AAp?$AAy?$AA_?$AAs?$AA?$CI?$AAo?$AAu?$AAt?$AAp?$AAu?$AAt?$AA?0?$AA?5?$AAs?$AAi?$AAz?$AAe?$AAI?$AAn?$AAC?$AAh?$AAa?$AAr?$AAs?$AA?0?$AA?5?$AA?$CC?$AAC@ 004b6e88     LIBCMTD:setlocal.obj
 0002:00012ed0       ??_C@_1BM@OIIBLEFG@?$AA_?$AAe?$AAx?$AAp?$AAa?$AAn?$AAd?$AAl?$AAo?$AAc?$AAa?$AAl?$AAe?$AA?$AA@ 004b6ed0     LIBCMTD:setlocal.obj
 0002:00012ef0       ??_C@_1BGM@IJDLABMC@?$AAs?$AAt?$AAr?$AAc?$AAa?$AAt?$AA_?$AAs?$AA?$CI?$AAo?$AAu?$AAt?$AAs?$AAt?$AAr?$AA?0?$AA?5?$AAs?$AAi?$AAz?$AAe?$AAI?$AAn?$AAB?$AAy?$AAt?$AAe?$AAs?$AA?0?$AA?5?$AA?$CI?$AA?5@ 004b6ef0     LIBCMTD:setlocal.obj
 0002:0001305c       ??_C@_1BC@PIABMDIP@?$AA_?$AAs?$AAt?$AAr?$AAc?$AAa?$AAt?$AAs?$AA?$AA@ 004b705c     LIBCMTD:setlocal.obj
 0002:00013070       ??_C@_1MM@NOPMGFHF@?$AAs?$AAt?$AAr?$AAn?$AAc?$AAp?$AAy?$AA_?$AAs?$AA?$CI?$AAn?$AAa?$AAm?$AAe?$AAs?$AA?9?$AA?$DO?$AAs?$AAz?$AAC?$AAo?$AAd?$AAe?$AAP?$AAa?$AAg?$AAe?$AA?0?$AA?5?$AA?$CI?$AAs?$AAi@ 004b7070     LIBCMTD:setlocal.obj
 0002:00013140       ??_C@_1MG@PHNILIAG@?$AAs?$AAt?$AAr?$AAn?$AAc?$AAp?$AAy?$AA_?$AAs?$AA?$CI?$AAn?$AAa?$AAm?$AAe?$AAs?$AA?9?$AA?$DO?$AAs?$AAz?$AAC?$AAo?$AAu?$AAn?$AAt?$AAr?$AAy?$AA?0?$AA?5?$AA?$CI?$AAs?$AAi?$AAz@ 004b7140     LIBCMTD:setlocal.obj
 0002:00013208       ??_C@_1MM@BFEECMAF@?$AAs?$AAt?$AAr?$AAn?$AAc?$AAp?$AAy?$AA_?$AAs?$AA?$CI?$AAn?$AAa?$AAm?$AAe?$AAs?$AA?9?$AA?$DO?$AAs?$AAz?$AAL?$AAa?$AAn?$AAg?$AAu?$AAa?$AAg?$AAe?$AA?0?$AA?5?$AA?$CI?$AAs?$AAi@ 004b7208     LIBCMTD:setlocal.obj
 0002:000132d4       ??_C@_03EGDHDPFD@_?4?0?$AA@ 004b72d4     LIBCMTD:setlocal.obj
 0002:000132d8       ??_C@_1NG@FMOPGKGG@?$AAs?$AAt?$AAr?$AAn?$AAc?$AAp?$AAy?$AA_?$AAs?$AA?$CI?$AAn?$AAa?$AAm?$AAe?$AAs?$AA?9?$AA?$DO?$AAs?$AAz?$AAC?$AAo?$AAd?$AAe?$AAP?$AAa?$AAg?$AAe?$AA?0?$AA?5?$AA?$CI?$AAs?$AAi@ 004b72d8     LIBCMTD:setlocal.obj
 0002:000133b0       ??_C@_1BK@CBMMLAGJ@?$AA_?$AA_?$AAl?$AAc?$AA_?$AAs?$AAt?$AAr?$AAt?$AAo?$AAl?$AAc?$AA?$AA@ 004b73b0     LIBCMTD:setlocal.obj
 0002:000133cc       ??_C@_01LFCBOECM@?4?$AA@   004b73cc     LIBCMTD:setlocal.obj
 0002:000133d0       ??_C@_01IDAFKMJL@_?$AA@    004b73d0     LIBCMTD:setlocal.obj
 0002:000133d8       ??_C@_1HC@IBDBLKCB@?$AAs?$AAt?$AAr?$AAc?$AAp?$AAy?$AA_?$AAs?$AA?$CI?$AAl?$AAo?$AAc?$AAa?$AAl?$AAe?$AA?0?$AA?5?$AAs?$AAi?$AAz?$AAe?$AAI?$AAn?$AAB?$AAy?$AAt?$AAe?$AAs?$AA?0?$AA?5?$AA?$CI?$AAc@ 004b73d8     LIBCMTD:setlocal.obj
 0002:0001344c       ??_C@_1BK@FGDJDEPG@?$AA_?$AA_?$AAl?$AAc?$AA_?$AAl?$AAc?$AAt?$AAo?$AAs?$AAt?$AAr?$AA?$AA@ 004b744c     LIBCMTD:setlocal.obj
 0002:00013468       __XcptActTab               004b7468     LIBCMTD:winxfltr.obj
 0002:000134f8       __First_FPE_Indx           004b74f8     LIBCMTD:winxfltr.obj
 0002:000134fc       __Num_FPE                  004b74fc     LIBCMTD:winxfltr.obj
 0002:00013500       __XcptActTabSize           004b7500     LIBCMTD:winxfltr.obj
 0002:00013504       __XcptActTabCount          004b7504     LIBCMTD:winxfltr.obj
 0002:00013508       ??_C@_1DE@MMOGFGHF@?$AAs?$AAt?$AAr?$AAc?$AAp?$AAy?$AA_?$AAs?$AA?$CI?$AA?$CK?$AAe?$AAn?$AAv?$AA?0?$AA?5?$AAc?$AAc?$AAh?$AAa?$AAr?$AAs?$AA?0?$AA?5?$AAp?$AA?$CJ?$AA?$AA@ 004b7508     LIBCMTD:stdenvp.obj
 0002:0001353c       ??_C@_1BC@GHMCNHHL@?$AA_?$AAs?$AAe?$AAt?$AAe?$AAn?$AAv?$AAp?$AA?$AA@ 004b753c     LIBCMTD:stdenvp.obj
 0002:00013550       ??_C@_1GC@DGBFLDBN@?$AAf?$AA?3?$AA?2?$AAd?$AAd?$AA?2?$AAv?$AAc?$AAt?$AAo?$AAo?$AAl?$AAs?$AA?2?$AAc?$AAr?$AAt?$AA_?$AAb?$AAl?$AAd?$AA?2?$AAs?$AAe?$AAl?$AAf?$AA_?$AAx?$AA8?$AA6?$AA?2?$AAc@ 004b7550     LIBCMTD:stdenvp.obj
 0002:000135b4       ??_C@_0DB@BMEBJJKP@f?3?2dd?2vctools?2crt_bld?2self_x86?2c@ 004b75b4     LIBCMTD:stdenvp.obj
 0002:000135e8       ??_C@_0DB@OEPBJOLC@f?3?2dd?2vctools?2crt_bld?2self_x86?2c@ 004b75e8     LIBCMTD:stdargv.obj
 0002:0001361c       ??_C@_0CP@PPLBCJDN@f?3?2dd?2vctools?2crt_bld?2self_x86?2c@ 004b761c     LIBCMTD:a_env.obj
 0002:00013668       ??_C@_01KDCPPGHE@r?$AA@    004b7668     LIBCMTD:_pdblkup_.obj
 0002:0001366c       ??_C@_0BB@KCIACLNC@PDBOpenValidate5?$AA@ 004b766c     LIBCMTD:_pdblkup_.obj
 0002:00013680       ??_C@_1CK@HHHCOJPD@?$AAE?$AAn?$AAv?$AAi?$AAr?$AAo?$AAn?$AAm?$AAe?$AAn?$AAt?$AAD?$AAi?$AAr?$AAe?$AAc?$AAt?$AAo?$AAr?$AAy?$AA?$AA@ 004b7680     LIBCMTD:_pdblkup_.obj
 0002:000136b0       ??_C@_1FM@DNCABAP@?$AAS?$AAO?$AAF?$AAT?$AAW?$AAA?$AAR?$AAE?$AA?2?$AAM?$AAi?$AAc?$AAr?$AAo?$AAs?$AAo?$AAf?$AAt?$AA?2?$AAV?$AAi?$AAs?$AAu?$AAa?$AAl?$AAS?$AAt?$AAu?$AAd?$AAi?$AAo?$AA?2@ 004b76b0     LIBCMTD:_pdblkup_.obj
 0002:0001370c       ??_C@_0M@HLOHPNFA@RegCloseKey?$AA@ 004b770c     LIBCMTD:_pdblkup_.obj
 0002:00013718       ??_C@_0BB@GLNAEDBD@RegQueryValueExW?$AA@ 004b7718     LIBCMTD:_pdblkup_.obj
 0002:0001372c       ??_C@_0O@COHOBMLB@RegOpenKeyExW?$AA@ 004b772c     LIBCMTD:_pdblkup_.obj
 0002:0001373c       ??_C@_1BK@GAEMIDIL@?$AAA?$AAD?$AAV?$AAA?$AAP?$AAI?$AA3?$AA2?$AA?4?$AAD?$AAL?$AAL?$AA?$AA@ 004b773c     LIBCMTD:_pdblkup_.obj
 0002:00013758       ??_C@_0BK@CFCOFLF@?5Complete?5Object?5Locator?8?$AA@ 004b7758     LIBCMTD:undname.obj
 0002:00013774       ??_C@_0BN@MECKDCOJ@?5Class?5Hierarchy?5Descriptor?8?$AA@ 004b7774     LIBCMTD:undname.obj
 0002:00013794       ??_C@_0BD@LGICGFMM@?5Base?5Class?5Array?8?$AA@ 004b7794     LIBCMTD:undname.obj
 0002:000137a8       ??_C@_0BM@LDKODKLH@?5Base?5Class?5Descriptor?5at?5?$CI?$AA@ 004b77a8     LIBCMTD:undname.obj
 0002:000137c4       ??_C@_0BC@DAFEJGAK@?5Type?5Descriptor?8?$AA@ 004b77c4     LIBCMTD:undname.obj
 0002:000137d8       ??_C@_0BM@PMGGMLDN@?$GAlocal?5static?5thread?5guard?8?$AA@ 004b77d8     LIBCMTD:undname.obj
 0002:000137f4       ??_C@_0CL@FGIJHLCE@?$GAmanaged?5vector?5copy?5constructor@ 004b77f4     LIBCMTD:undname.obj
 0002:00013820       ??_C@_0CJ@GJELGAMM@?$GAvector?5vbase?5copy?5constructor?5i@ 004b7820     LIBCMTD:undname.obj
 0002:0001384c       ??_C@_0CD@CGAJBKEJ@?$GAvector?5copy?5constructor?5iterato@ 004b784c     LIBCMTD:undname.obj
 0002:00013870       ??_C@_0CB@PDBIFEP@?$GAdynamic?5atexit?5destructor?5for?5?8@ 004b7870     LIBCMTD:undname.obj
 0002:00013894       ??_C@_0BL@CLIPGLGB@?$GAdynamic?5initializer?5for?5?8?$AA@ 004b7894     LIBCMTD:undname.obj
 0002:000138b0       ??_C@_0CM@FCBBDIGB@?$GAeh?5vector?5vbase?5copy?5constructo@ 004b78b0     LIBCMTD:undname.obj
 0002:000138dc       ??_C@_0CG@HLDDJMAG@?$GAeh?5vector?5copy?5constructor?5iter@ 004b78dc     LIBCMTD:undname.obj
 0002:00013904       ??_C@_0CF@IMGKMJNO@?$GAmanaged?5vector?5destructor?5itera@ 004b7904     LIBCMTD:undname.obj
 0002:0001392c       ??_C@_0CG@CFDHKGGD@?$GAmanaged?5vector?5constructor?5iter@ 004b792c     LIBCMTD:undname.obj
 0002:00013954       ??_C@_0BN@CKNJLHMB@?$GAplacement?5delete?$FL?$FN?5closure?8?$AA@ 004b7954     LIBCMTD:undname.obj
 0002:00013974       ??_C@_0BL@CNOONJFP@?$GAplacement?5delete?5closure?8?$AA@ 004b7974     LIBCMTD:undname.obj
 0002:00013990       ??_C@_0P@HJKNJFNN@?$GAomni?5callsig?8?$AA@ 004b7990     LIBCMTD:undname.obj
 0002:000139a0       ??_C@_09LBNFPBCA@?5delete?$FL?$FN?$AA@ 004b79a0     LIBCMTD:undname.obj
 0002:000139ac       ??_C@_06FHBGPFGH@?5new?$FL?$FN?$AA@ 004b79ac     LIBCMTD:undname.obj
 0002:000139b4       ??_C@_0CE@IIHCMGGL@?$GAlocal?5vftable?5constructor?5closu@ 004b79b4     LIBCMTD:undname.obj
 0002:000139d8       ??_C@_0BA@KKLDJDLB@?$GAlocal?5vftable?8?$AA@ 004b79d8     LIBCMTD:undname.obj
 0002:000139e8       ??_C@_05KHLCHHI@?$GARTTI?$AA@ 004b79e8     LIBCMTD:undname.obj
 0002:000139f0       ??_C@_03KLGMFNMG@?$GAEH?$AA@ 004b79f0     LIBCMTD:undname.obj
 0002:000139f4       ??_C@_0BA@KBCDOMBN@?$GAudt?5returning?8?$AA@ 004b79f4     LIBCMTD:undname.obj
 0002:00013a04       ??_C@_0BL@LLKPOHJI@?$GAcopy?5constructor?5closure?8?$AA@ 004b7a04     LIBCMTD:undname.obj
 0002:00013a20       ??_C@_0CH@OOJPLCPH@?$GAeh?5vector?5vbase?5constructor?5ite@ 004b7a20     LIBCMTD:undname.obj
 0002:00013a48       ??_C@_0CA@GCEOPDGL@?$GAeh?5vector?5destructor?5iterator?8?$AA@ 004b7a48     LIBCMTD:undname.obj
 0002:00013a68       ??_C@_0CB@JONCMFFK@?$GAeh?5vector?5constructor?5iterator?8@ 004b7a68     LIBCMTD:undname.obj
 0002:00013a8c       ??_C@_0BL@NILFHHPC@?$GAvirtual?5displacement?5map?8?$AA@ 004b7a8c     LIBCMTD:undname.obj
 0002:00013aa8       ??_C@_0CE@IKBNEHA@?$GAvector?5vbase?5constructor?5iterat@ 004b7aa8     LIBCMTD:undname.obj
 0002:00013acc       ??_C@_0BN@LFPFMEDL@?$GAvector?5destructor?5iterator?8?$AA@ 004b7acc     LIBCMTD:undname.obj
 0002:00013aec       ??_C@_0BO@PFGOCPJJ@?$GAvector?5constructor?5iterator?8?$AA@ 004b7aec     LIBCMTD:undname.obj
 0002:00013b0c       ??_C@_0BN@IMDCHIKM@?$GAscalar?5deleting?5destructor?8?$AA@ 004b7b0c     LIBCMTD:undname.obj
 0002:00013b2c       ??_C@_0BO@OBMKPJIG@?$GAdefault?5constructor?5closure?8?$AA@ 004b7b2c     LIBCMTD:undname.obj
 0002:00013b4c       ??_C@_0BN@DEGPLNFK@?$GAvector?5deleting?5destructor?8?$AA@ 004b7b4c     LIBCMTD:undname.obj
 0002:00013b6c       ??_C@_0BD@JDLKDPAB@?$GAvbase?5destructor?8?$AA@ 004b7b6c     LIBCMTD:undname.obj
 0002:00013b80       ??_C@_08OBABFOLI@?$GAstring?8?$AA@ 004b7b80     LIBCMTD:undname.obj
 0002:00013b8c       ??_C@_0BF@KDPPACIK@?$GAlocal?5static?5guard?8?$AA@ 004b7b8c     LIBCMTD:undname.obj
 0002:00013ba4       ??_C@_08LLFFHHDJ@?$GAtypeof?8?$AA@ 004b7ba4     LIBCMTD:undname.obj
 0002:00013bb0       ??_C@_07FEEIOKP@?$GAvcall?8?$AA@ 004b7bb0     LIBCMTD:undname.obj
 0002:00013bb8       ??_C@_09BLBHBJP@?$GAvbtable?8?$AA@ 004b7bb8     LIBCMTD:undname.obj
 0002:00013bc4       ??_C@_09IFPLHPGF@?$GAvftable?8?$AA@ 004b7bc4     LIBCMTD:undname.obj
 0002:00013bd0       ??_C@_02MHEGNOJ@?$FO?$DN?$AA@ 004b7bd0     LIBCMTD:undname.obj
 0002:00013bd4       ??_C@_02DHLNPPGH@?$HM?$DN?$AA@ 004b7bd4     LIBCMTD:undname.obj
 0002:00013bd8       ??_C@_02FGJGFEAB@?$CG?$DN?$AA@ 004b7bd8     LIBCMTD:undname.obj
 0002:00013bdc       ??_C@_03CDNPDDLA@?$DM?$DM?$DN?$AA@ 004b7bdc     LIBCMTD:undname.obj
 0002:00013be0       ??_C@_03IKFCCPFF@?$DO?$DO?$DN?$AA@ 004b7be0     LIBCMTD:undname.obj
 0002:00013be4       ??_C@_02FENAOKFI@?$CF?$DN?$AA@ 004b7be4     LIBCMTD:undname.obj
 0002:00013be8       ??_C@_02FJEHGPIO@?1?$DN?$AA@ 004b7be8     LIBCMTD:undname.obj
 0002:00013bec       ??_C@_02FKMDLLOA@?9?$DN?$AA@ 004b7bec     LIBCMTD:undname.obj
 0002:00013bf0       ??_C@_02FOEOMHFC@?$CL?$DN?$AA@ 004b7bf0     LIBCMTD:undname.obj
 0002:00013bf4       ??_C@_02FPIMKNGF@?$CK?$DN?$AA@ 004b7bf4     LIBCMTD:undname.obj
 0002:00013bf8       ??_C@_02NONPIBCD@?$HM?$HM?$AA@ 004b7bf8     LIBCMTD:undname.obj
 0002:00013bfc       ??_C@_02PPKAJPJL@?$CG?$CG?$AA@ 004b7bfc     LIBCMTD:undname.obj
 0002:00013c00       ??_C@_01DNKMNLPK@?$HM?$AA@ 004b7c00     LIBCMTD:undname.obj
 0002:00013c04       ??_C@_01JKBOJNNK@?$FO?$AA@ 004b7c04     LIBCMTD:undname.obj
 0002:00013c08       ??_C@_01PJKLJHI@?$HO?$AA@  004b7c08     LIBCMTD:undname.obj
 0002:00013c0c       ??_C@_02HCKGKOFO@?$CI?$CJ?$AA@ 004b7c0c     LIBCMTD:undname.obj
 0002:00013c10       ??_C@_01IHBHIGKO@?0?$AA@   004b7c10     LIBCMTD:undname.obj
 0002:00013c14       ??_C@_02EEKDKGMJ@?$DO?$DN?$AA@ 004b7c14     LIBCMTD:undname.obj
 0002:00013c18       ??_C@_01PPODPGHN@?$DO?$AA@ 004b7c18     LIBCMTD:undname.obj
 0002:00013c1c       ??_C@_02EHCHHCKH@?$DM?$DN?$AA@ 004b7c1c     LIBCMTD:undname.obj
 0002:00013c20       ??_C@_01MNNFJEPP@?$DM?$AA@ 004b7c20     LIBCMTD:undname.obj
 0002:00013c24       ??_C@_01FGNFDNOH@?$CF?$AA@ 004b7c24     LIBCMTD:undname.obj
 0002:00013c28       ??_C@_01KMDKNFGN@?1?$AA@   004b7c28     LIBCMTD:undname.obj
 0002:00013c2c       ??_C@_03MNHNFDLC@?9?$DO?$CK?$AA@ 004b7c2c     LIBCMTD:undname.obj
 0002:00013c30       ??_C@_01HNPIGOCE@?$CG?$AA@ 004b7c30     LIBCMTD:undname.obj
 0002:00013c34       ??_C@_01MIFGBAGJ@?$CL?$AA@ 004b7c34     LIBCMTD:undname.obj
 0002:00013c38       ??_C@_01JOAMLHOP@?9?$AA@   004b7c38     LIBCMTD:undname.obj
 0002:00013c3c       ??_C@_02BAABKJLB@?9?9?$AA@ 004b7c3c     LIBCMTD:undname.obj
 0002:00013c40       ??_C@_02ECNGHCIF@?$CL?$CL?$AA@ 004b7c40     LIBCMTD:undname.obj
 0002:00013c44       ??_C@_01NBENCBCI@?$CK?$AA@ 004b7c44     LIBCMTD:undname.obj
 0002:00013c48       ??_C@_02HBOOOICD@?9?$DO?$AA@ 004b7c48     LIBCMTD:undname.obj
 0002:00013c4c       ??_C@_08LHJFAFGD@operator?$AA@ 004b7c4c     LIBCMTD:undname.obj
 0002:00013c58       ??_C@_02GPECMEKF@?$FL?$FN?$AA@ 004b7c58     LIBCMTD:undname.obj
 0002:00013c5c       ??_C@_02FDNJECIE@?$CB?$DN?$AA@ 004b7c5c     LIBCMTD:undname.obj
 0002:00013c60       ??_C@_02EGOFBIJA@?$DN?$DN?$AA@ 004b7c60     LIBCMTD:undname.obj
 0002:00013c64       ??_C@_01DCLJPIOD@?$CB?$AA@ 004b7c64     LIBCMTD:undname.obj
 0002:00013c68       ??_C@_02FODMEDOG@?$DM?$DM?$AA@ 004b7c68     LIBCMTD:undname.obj
 0002:00013c6c       ??_C@_02GPIOPFAK@?$DO?$DO?$AA@ 004b7c6c     LIBCMTD:undname.obj
 0002:00013c70       ??_C@_07FPCDHGMM@?5delete?$AA@ 004b7c70     LIBCMTD:undname.obj
 0002:00013c78       ??_C@_04NIHEBCM@?5new?$AA@ 004b7c78     LIBCMTD:undname.obj
 0002:00013c80       ??_C@_0M@GFIIJFMG@__unaligned?$AA@ 004b7c80     LIBCMTD:undname.obj
 0002:00013c8c       ??_C@_0L@PILCLIHE@__restrict?$AA@ 004b7c8c     LIBCMTD:undname.obj
 0002:00013c98       ??_C@_07JOMMBBKO@__ptr64?$AA@ 004b7c98     LIBCMTD:undname.obj
 0002:00013ca0       ??_C@_06GHPCKEAG@__eabi?$AA@ 004b7ca0     LIBCMTD:undname.obj
 0002:00013ca8       ??_C@_09HIJEGCPM@__clrcall?$AA@ 004b7ca8     LIBCMTD:undname.obj
 0002:00013cb4       ??_C@_0L@JMKHOMEK@__fastcall?$AA@ 004b7cb4     LIBCMTD:undname.obj
 0002:00013cc0       ??_C@_0L@NPHFGOKO@__thiscall?$AA@ 004b7cc0     LIBCMTD:undname.obj
 0002:00013ccc       ??_C@_09IFJBGAPI@__stdcall?$AA@ 004b7ccc     LIBCMTD:undname.obj
 0002:00013cd8       ??_C@_08GHMPAG@__pascal?$AA@ 004b7cd8     LIBCMTD:undname.obj
 0002:00013ce4       ??_C@_07KOLFKCDI@__cdecl?$AA@ 004b7ce4     LIBCMTD:undname.obj
 0002:00013cec       ??_C@_08EHJDFFNH@__based?$CI?$AA@ 004b7cec     LIBCMTD:undname.obj
 0002:00013e7c       ??_C@_04HEJADOOB@CV?3?5?$AA@ 004b7e7c     LIBCMTD:undname.obj
 0002:00013e84       ??_C@_02MOLJINC@?3?3?$AA@  004b7e84     LIBCMTD:undname.obj
 0002:00013e88       ??_C@_01GEODFPGF@?8?$AA@   004b7e88     LIBCMTD:undname.obj
 0002:00013e8c       ??_C@_01NLNLIGKH@?$GA?$AA@ 004b7e8c     LIBCMTD:undname.obj
 0002:00013e90       ??_C@_0O@KHGCOMHP@generic?9type?9?$AA@ 004b7e90     LIBCMTD:undname.obj
 0002:00013ea0       ??_C@_0BE@JAEOCHPE@template?9parameter?9?$AA@ 004b7ea0     LIBCMTD:undname.obj
 0002:00013eb4       ??_C@_02OHHJMEON@?8?8?$AA@ 004b7eb4     LIBCMTD:undname.obj
 0002:00013eb8       ??_C@_0BG@JNJLAMPM@?$GAanonymous?5namespace?8?$AA@ 004b7eb8     LIBCMTD:undname.obj
 0002:00013ed0       ??_C@_0BN@IBLMMFAP@?$GAnon?9type?9template?9parameter?$AA@ 004b7ed0     LIBCMTD:undname.obj
 0002:00013ef0       ??_C@_0BE@EODMJLIF@?$GAtemplate?9parameter?$AA@ 004b7ef0     LIBCMTD:undname.obj
 0002:00013f04       ??_C@_04GKJNKENE@void?$AA@ 004b7f04     LIBCMTD:undname.obj
 0002:00013f0c       ??_C@_04HIBGFPH@NULL?$AA@  004b7f0c     LIBCMTD:undname.obj
 0002:00013f14       ??_C@_0M@DHNBOJMP@extern?5?$CCC?$CC?5?$AA@ 004b7f14     LIBCMTD:undname.obj
 0002:00013f20       ??_C@_08KJLFOPNE@?$FLthunk?$FN?3?$AA@ 004b7f20     LIBCMTD:undname.obj
 0002:00013f2c       ??_C@_08GPDDCMKI@public?3?5?$AA@ 004b7f2c     LIBCMTD:undname.obj
 0002:00013f38       ??_C@_0M@GAIFPFIP@protected?3?5?$AA@ 004b7f38     LIBCMTD:undname.obj
 0002:00013f44       ??_C@_09LAPHOOG@private?3?5?$AA@ 004b7f44     LIBCMTD:undname.obj
 0002:00013f50       ??_C@_08NIEOINHE@virtual?5?$AA@ 004b7f50     LIBCMTD:undname.obj
 0002:00013f5c       ??_C@_07PGOEDBHP@static?5?$AA@ 004b7f5c     LIBCMTD:undname.obj
 0002:00013f64       ??_C@_0DA@HGFJFBBE@?$GAtemplate?5static?5data?5member?5des@ 004b7f64     LIBCMTD:undname.obj
 0002:00013f94       ??_C@_0DB@ILEFOCIJ@?$GAtemplate?5static?5data?5member?5con@ 004b7f94     LIBCMTD:undname.obj
 0002:00013fc8       ??_C@_0CB@KJDOOODE@?$GAlocal?5static?5destructor?5helper?8@ 004b7fc8     LIBCMTD:undname.obj
 0002:00013fec       ??_C@_0L@HNGCOGAE@?$GAadjustor?$HL?$AA@ 004b7fec     LIBCMTD:undname.obj
 0002:00013ff8       ??_C@_0L@GHPFDFH@?$GAvtordisp?$HL?$AA@ 004b7ff8     LIBCMTD:undname.obj
 0002:00014004       ??_C@_0N@CBHHHENL@?$GAvtordispex?$HL?$AA@ 004b8004     LIBCMTD:undname.obj
 0002:00014014       ??_C@_01CLKCMJKC@?5?$AA@   004b8014     LIBCMTD:undname.obj
 0002:00014018       ??_C@_02IGFCGPIL@?$HN?8?$AA@ 004b8018     LIBCMTD:undname.obj
 0002:0001401c       ??_C@_03OPGICMGF@?$HN?8?5?$AA@ 004b801c     LIBCMTD:undname.obj
 0002:00014020       ??_C@_02KCKGHPCA@?$CJ?5?$AA@ 004b8020     LIBCMTD:undname.obj
 0002:00014024       ??_C@_05BEFAKPML@void?5?$AA@ 004b8024     LIBCMTD:undname.obj
 0002:0001402c       ??_C@_0P@GCOCNKDM@std?3?3nullptr_t?$AA@ 004b802c     LIBCMTD:undname.obj
 0002:0001403c       ??_C@_08PABEKFH@volatile?$AA@ 004b803c     LIBCMTD:undname.obj
 0002:00014048       ??_C@_0M@ELJOJFFH@?0?$DMellipsis?$DO?$AA@ 004b8048     LIBCMTD:undname.obj
 0002:00014054       ??_C@_04EENFHACM@?0?4?4?4?$AA@ 004b8054     LIBCMTD:undname.obj
 0002:0001405c       ??_C@_0L@EGPHHEKN@?$DMellipsis?$DO?$AA@ 004b805c     LIBCMTD:undname.obj
 0002:00014068       ??_C@_07HDJPLPEK@?5throw?$CI?$AA@ 004b8068     LIBCMTD:undname.obj
 0002:00014070       ??_C@_09EFNPDFFP@?5volatile?$AA@ 004b8070     LIBCMTD:undname.obj
 0002:0001407c       ??_C@_05BNCCCJPP@const?$AA@ 004b807c     LIBCMTD:undname.obj
 0002:00014084       ??_C@_07EDHNAJHC@signed?5?$AA@ 004b8084     LIBCMTD:undname.obj
 0002:0001408c       ??_C@_09EBBEKKIH@unsigned?5?$AA@ 004b808c     LIBCMTD:undname.obj
 0002:00014098       ??_C@_07NFANNNEC@UNKNOWN?$AA@ 004b8098     LIBCMTD:undname.obj
 0002:000140a0       ??_C@_06GCICPBLB@__w64?5?$AA@ 004b80a0     LIBCMTD:undname.obj
 0002:000140a8       ??_C@_07CLGGIAMF@wchar_t?$AA@ 004b80a8     LIBCMTD:undname.obj
 0002:000140b0       ??_C@_09EEKGDCPH@?$DMunknown?$DO?$AA@ 004b80b0     LIBCMTD:undname.obj
 0002:000140bc       ??_C@_08GAHOLHEO@__int128?$AA@ 004b80bc     LIBCMTD:undname.obj
 0002:000140c8       ??_C@_07LFCOJCAC@__int64?$AA@ 004b80c8     LIBCMTD:undname.obj
 0002:000140d0       ??_C@_07OFLPPHGP@__int32?$AA@ 004b80d0     LIBCMTD:undname.obj
 0002:000140d8       ??_C@_07ICFHOGAF@__int16?$AA@ 004b80d8     LIBCMTD:undname.obj
 0002:000140e0       ??_C@_06EBGKOKIG@__int8?$AA@ 004b80e0     LIBCMTD:undname.obj
 0002:000140e8       ??_C@_04DDKJGDCM@bool?$AA@ 004b80e8     LIBCMTD:undname.obj
 0002:000140f0       ??_C@_06BNJCAIGJ@double?$AA@ 004b80f0     LIBCMTD:undname.obj
 0002:000140f8       ??_C@_05CJIMAING@long?5?$AA@ 004b80f8     LIBCMTD:undname.obj
 0002:00014100       ??_C@_05KNFBNCOH@float?$AA@ 004b8100     LIBCMTD:undname.obj
 0002:00014108       ??_C@_04GOKPGOLB@long?$AA@ 004b8108     LIBCMTD:undname.obj
 0002:00014110       ??_C@_03JBIPMCLC@int?$AA@  004b8110     LIBCMTD:undname.obj
 0002:00014114       ??_C@_05BFKKPKCG@short?$AA@ 004b8114     LIBCMTD:undname.obj
 0002:0001411c       ??_C@_04ENMBGAPA@char?$AA@ 004b811c     LIBCMTD:undname.obj
 0002:00014124       ??_C@_05LJGMCFOG@enum?5?$AA@ 004b8124     LIBCMTD:undname.obj
 0002:0001412c       ??_C@_0N@DLIEFKNA@cointerface?5?$AA@ 004b812c     LIBCMTD:undname.obj
 0002:0001413c       ??_C@_08KOFANOFK@coclass?5?$AA@ 004b813c     LIBCMTD:undname.obj
 0002:00014148       ??_C@_06LJBABKPM@class?5?$AA@ 004b8148     LIBCMTD:undname.obj
 0002:00014150       ??_C@_07DIBCDNGL@struct?5?$AA@ 004b8150     LIBCMTD:undname.obj
 0002:00014158       ??_C@_06MOJHIBMG@union?5?$AA@ 004b8158     LIBCMTD:undname.obj
 0002:00014160       ??_C@_0P@GCIFDJCJ@?$GAunknown?5ecsu?8?$AA@ 004b8160     LIBCMTD:undname.obj
 0002:00014170       ??_C@_04LAHKHJMA@int?5?$AA@ 004b8170     LIBCMTD:undname.obj
 0002:00014178       ??_C@_06EHJMALKF@short?5?$AA@ 004b8178     LIBCMTD:undname.obj
 0002:00014180       ??_C@_05CIHEBHNO@char?5?$AA@ 004b8180     LIBCMTD:undname.obj
 0002:00014188       ??_C@_06LIJLOJAG@const?5?$AA@ 004b8188     LIBCMTD:undname.obj
 0002:00014190       ??_C@_09GAIEOBLP@volatile?5?$AA@ 004b8190     LIBCMTD:undname.obj
 0002:0001419c       ??_C@_0O@GKABPPIF@cli?3?3pin_ptr?$DM?$AA@ 004b819c     LIBCMTD:undname.obj
 0002:000141ac       ??_C@_0M@EALIELKG@cli?3?3array?$DM?$AA@ 004b81ac     LIBCMTD:undname.obj
 0002:000141b8       ??_C@_02GOGNNPBN@?$CJ?$FL?$AA@ 004b81b8     LIBCMTD:undname.obj
 0002:000141bc       ??_C@_06EEGAIFAK@?$HLflat?$HN?$AA@ 004b81bc     LIBCMTD:undname.obj
 0002:000141c4       ??_C@_02MDINNEEG@s?5?$AA@  004b81c4     LIBCMTD:undname.obj
 0002:000141c8       ??_C@_05JIBOFOHK@?$HLfor?5?$AA@ 004b81c8     LIBCMTD:undname.obj
 0002:000141d0       ??_7DNameNode@@6B@         004b81d0     LIBCMTD:undname.obj
 0002:000141dc       ??_7charNode@@6B@          004b81dc     LIBCMTD:undname.obj
 0002:000141e8       ??_7pcharNode@@6B@         004b81e8     LIBCMTD:undname.obj
 0002:000141f4       ??_7pDNameNode@@6B@        004b81f4     LIBCMTD:undname.obj
 0002:00014200       ??_7DNameStatusNode@@6B@   004b8200     LIBCMTD:undname.obj
 0002:0001420c       ??_C@_04OKOHEJBO@?5?$DP?$DP?5?$AA@ 004b820c     LIBCMTD:undname.obj
 0002:00014214       ??_7pairNode@@6B@          004b8214     LIBCMTD:undname.obj
 0002:00014220       ??_C@_1BE@KHFBJMNM@?$AA_?$AAl?$AAs?$AAe?$AAe?$AAk?$AAi?$AA6?$AA4?$AA?$AA@ 004b8220     LIBCMTD:lseeki64.obj
 0002:00014238       ??_C@_1GE@MINKPNPH@?$AAf?$AA?3?$AA?2?$AAd?$AAd?$AA?2?$AAv?$AAc?$AAt?$AAo?$AAo?$AAl?$AAs?$AA?2?$AAc?$AAr?$AAt?$AA_?$AAb?$AAl?$AAd?$AA?2?$AAs?$AAe?$AAl?$AAf?$AA_?$AAx?$AA8?$AA6?$AA?2?$AAc@ 004b8238     LIBCMTD:lseeki64.obj
 0002:0001429c       ??_C@_0DB@JEHOCBEJ@f?3?2dd?2vctools?2crt_bld?2self_x86?2c@ 004b829c     LIBCMTD:_getbuf.obj
 0002:000142d0       ??_C@_1GC@DKMGNNCC@?$AAf?$AA?3?$AA?2?$AAd?$AAd?$AA?2?$AAv?$AAc?$AAt?$AAo?$AAo?$AAl?$AAs?$AA?2?$AAc?$AAr?$AAt?$AA_?$AAb?$AAl?$AAd?$AA?2?$AAs?$AAe?$AAl?$AAf?$AA_?$AAx?$AA8?$AA6?$AA?2?$AAc@ 004b82d0     LIBCMTD:_getbuf.obj
 0002:00014334       ??_C@_1BA@LEBDGIHM@?$AA_?$AAi?$AAs?$AAa?$AAt?$AAt?$AAy?$AA?$AA@ 004b8334     LIBCMTD:isatty.obj
 0002:00014348       ??_C@_1GA@LPGDJDEN@?$AAf?$AA?3?$AA?2?$AAd?$AAd?$AA?2?$AAv?$AAc?$AAt?$AAo?$AAo?$AAl?$AAs?$AA?2?$AAc?$AAr?$AAt?$AA_?$AAb?$AAl?$AAd?$AA?2?$AAs?$AAe?$AAl?$AAf?$AA_?$AAx?$AA8?$AA6?$AA?2?$AAc@ 004b8348     LIBCMTD:isatty.obj
 0002:000143a8       ??_C@_1O@GKDHFACN@?$AAp?$AAr?$AAi?$AAn?$AAt?$AAf?$AA?$AA@ 004b83a8     LIBCMTD:printf.obj
 0002:000143b8       ??_C@_1GA@LHEGHOAF@?$AAf?$AA?3?$AA?2?$AAd?$AAd?$AA?2?$AAv?$AAc?$AAt?$AAo?$AAo?$AAl?$AAs?$AA?2?$AAc?$AAr?$AAt?$AA_?$AAb?$AAl?$AAd?$AA?2?$AAs?$AAe?$AAl?$AAf?$AA_?$AAx?$AA8?$AA6?$AA?2?$AAc@ 004b83b8     LIBCMTD:printf.obj
 0002:00014418       ??_C@_1BI@IEADNOHF@?$AA_?$AAw?$AAc?$AAt?$AAo?$AAm?$AAb?$AA_?$AAs?$AA_?$AAl?$AA?$AA@ 004b8418     LIBCMTD:wctomb.obj
 0002:00014430       ??_C@_1GA@LDLHPOO@?$AAf?$AA?3?$AA?2?$AAd?$AAd?$AA?2?$AAv?$AAc?$AAt?$AAo?$AAo?$AAl?$AAs?$AA?2?$AAc?$AAr?$AAt?$AA_?$AAb?$AAl?$AAd?$AA?2?$AAs?$AAe?$AAl?$AAf?$AA_?$AAx?$AA8?$AA6?$AA?2?$AAc@ 004b8430     LIBCMTD:wctomb.obj
 0002:00014490       ??_C@_1CO@HFMIILNF@?$AAs?$AAi?$AAz?$AAe?$AAI?$AAn?$AAB?$AAy?$AAt?$AAe?$AAs?$AA?5?$AA?$DM?$AA?$DN?$AA?5?$AAI?$AAN?$AAT?$AA_?$AAM?$AAA?$AAX?$AA?$AA@ 004b8490     LIBCMTD:wctomb.obj
 0002:000144c0       ??_C@_1GE@GJCMHHMH@?$AAf?$AA?3?$AA?2?$AAd?$AAd?$AA?2?$AAv?$AAc?$AAt?$AAo?$AAo?$AAl?$AAs?$AA?2?$AAc?$AAr?$AAt?$AA_?$AAb?$AAl?$AAd?$AA?2?$AAs?$AAe?$AAl?$AAf?$AA_?$AAx?$AA8?$AA6?$AA?2?$AAc@ 004b84c0     LIBCMTD:inittime.obj
 0002:00014528       ??_C@_1EE@FDHCFDHN@?$AAp?$AAl?$AAo?$AAc?$AAi?$AA?9?$AA?$DO?$AAl?$AAc?$AA_?$AAt?$AAi?$AAm?$AAe?$AA_?$AAc?$AAu?$AAr?$AAr?$AA?9?$AA?$DO?$AAr?$AAe?$AAf?$AAc?$AAo?$AAu?$AAn?$AAt?$AA?5?$AA?$DO?$AA?5@ 004b8528     LIBCMTD:inittime.obj
 0002:0001456c       ??_C@_0DC@KICHHNFK@f?3?2dd?2vctools?2crt_bld?2self_x86?2c@ 004b856c     LIBCMTD:inittime.obj
 0002:000145a0       ??_C@_1GC@EDJOCBCL@?$AAf?$AA?3?$AA?2?$AAd?$AAd?$AA?2?$AAv?$AAc?$AAt?$AAo?$AAo?$AAl?$AAs?$AA?2?$AAc?$AAr?$AAt?$AA_?$AAb?$AAl?$AAd?$AA?2?$AAs?$AAe?$AAl?$AAf?$AA_?$AAx?$AA8?$AA6?$AA?2?$AAc@ 004b85a0     LIBCMTD:initnum.obj
 0002:00014604       ??_C@_1DM@IFKAINNE@?$AAp?$AAl?$AAo?$AAc?$AAi?$AA?9?$AA?$DO?$AAl?$AAc?$AAo?$AAn?$AAv?$AA_?$AAn?$AAu?$AAm?$AA_?$AAr?$AAe?$AAf?$AAc?$AAo?$AAu?$AAn?$AAt?$AA?5?$AA?$DO?$AA?5?$AA0?$AA?$AA@ 004b8604     LIBCMTD:initnum.obj
 0002:00014640       ??_C@_0DB@KKFMDHFI@f?3?2dd?2vctools?2crt_bld?2self_x86?2c@ 004b8640     LIBCMTD:initnum.obj
 0002:00014678       ??_C@_1GC@IKADOFBJ@?$AAf?$AA?3?$AA?2?$AAd?$AAd?$AA?2?$AAv?$AAc?$AAt?$AAo?$AAo?$AAl?$AAs?$AA?2?$AAc?$AAr?$AAt?$AA_?$AAb?$AAl?$AAd?$AA?2?$AAs?$AAe?$AAl?$AAf?$AA_?$AAx?$AA8?$AA6?$AA?2?$AAc@ 004b8678     LIBCMTD:initmon.obj
 0002:000146dc       ??_C@_1DM@GKAPAMDO@?$AAp?$AAl?$AAo?$AAc?$AAi?$AA?9?$AA?$DO?$AAl?$AAc?$AAo?$AAn?$AAv?$AA_?$AAm?$AAo?$AAn?$AA_?$AAr?$AAe?$AAf?$AAc?$AAo?$AAu?$AAn?$AAt?$AA?5?$AA?$DO?$AA?5?$AA0?$AA?$AA@ 004b86dc     LIBCMTD:initmon.obj
 0002:00014718       ??_C@_0DB@BECNGFDL@f?3?2dd?2vctools?2crt_bld?2self_x86?2c@ 004b8718     LIBCMTD:initmon.obj
 0002:00014750       ___newctype                004b8750     LIBCMTD:ctype.obj
 0002:00014a50       __wctype                   004b8a50     LIBCMTD:ctype.obj
 0002:00014c58       ___newclmap                004b8c58     LIBCMTD:ctype.obj
 0002:00014dd8       ___newcumap                004b8dd8     LIBCMTD:ctype.obj
 0002:00014f58       ??_C@_1CA@LFDHAMEM@?$AA_?$AAs?$AAe?$AAt?$AA_?$AAe?$AAr?$AAr?$AAo?$AAr?$AA_?$AAm?$AAo?$AAd?$AAe?$AA?$AA@ 004b8f58     LIBCMTD:errmode.obj
 0002:00014f78       ??_C@_1GC@FGMGFCNB@?$AAf?$AA?3?$AA?2?$AAd?$AAd?$AA?2?$AAv?$AAc?$AAt?$AAo?$AAo?$AAl?$AAs?$AA?2?$AAc?$AAr?$AAt?$AA_?$AAb?$AAl?$AAd?$AA?2?$AAs?$AAe?$AAl?$AAf?$AA_?$AAx?$AA8?$AA6?$AA?2?$AAc@ 004b8f78     LIBCMTD:errmode.obj
 0002:00014fdc       ??_C@_1DE@BCNCAIK@?$AA?$CI?$AA?$CC?$AAI?$AAn?$AAv?$AAa?$AAl?$AAi?$AAd?$AA?5?$AAe?$AAr?$AAr?$AAo?$AAr?$AA_?$AAm?$AAo?$AAd?$AAe?$AA?$CC?$AA?0?$AA?5?$AA0?$AA?$CJ?$AA?$AA@ 004b8fdc     LIBCMTD:errmode.obj
 0002:00015010       ??_C@_1FA@MJKDNFFB@?$AA?$CI?$AAL?$AA?$CC?$AAS?$AAt?$AAr?$AAi?$AAn?$AAg?$AA?5?$AAi?$AAs?$AA?5?$AAn?$AAo?$AAt?$AA?5?$AAn?$AAu?$AAl?$AAl?$AA?5?$AAt?$AAe?$AAr?$AAm?$AAi?$AAn?$AAa?$AAt?$AAe?$AAd@ 004b9010     LIBCMTD:wcscat_s.obj
 0002:00015060       ??_C@_1DM@FHLMIEG@?$AAS?$AAt?$AAr?$AAi?$AAn?$AAg?$AA?5?$AAi?$AAs?$AA?5?$AAn?$AAo?$AAt?$AA?5?$AAn?$AAu?$AAl?$AAl?$AA?5?$AAt?$AAe?$AAr?$AAm?$AAi?$AAn?$AAa?$AAt?$AAe?$AAd?$AA?$AA@ 004b9060     LIBCMTD:wcscat_s.obj
 0002:0001509c       ??_C@_1BC@PLIEPKPJ@?$AAw?$AAc?$AAs?$AAc?$AAa?$AAt?$AA_?$AAs?$AA?$AA@ 004b909c     LIBCMTD:wcscat_s.obj
 0002:000150b0       ??_C@_1GI@NOKGIAGA@?$AAf?$AA?3?$AA?2?$AAd?$AAd?$AA?2?$AAv?$AAc?$AAt?$AAo?$AAo?$AAl?$AAs?$AA?2?$AAc?$AAr?$AAt?$AA_?$AAb?$AAl?$AAd?$AA?2?$AAs?$AAe?$AAl?$AAf?$AA_?$AAx?$AA8?$AA6?$AA?2?$AAc@ 004b90b0     LIBCMTD:wcscat_s.obj
 0002:00015118       ??_C@_1BE@PMMBFFCC@?$AAw?$AAc?$AAs?$AAn?$AAc?$AAp?$AAy?$AA_?$AAs?$AA?$AA@ 004b9118     LIBCMTD:wcsncpy_s.obj
 0002:00015130       ??_C@_1GK@PAJJBKJF@?$AAf?$AA?3?$AA?2?$AAd?$AAd?$AA?2?$AAv?$AAc?$AAt?$AAo?$AAo?$AAl?$AAs?$AA?2?$AAc?$AAr?$AAt?$AA_?$AAb?$AAl?$AAd?$AA?2?$AAs?$AAe?$AAl?$AAf?$AA_?$AAx?$AA8?$AA6?$AA?2?$AAc@ 004b9130     LIBCMTD:wcsncpy_s.obj
 0002:0001519c       ??_C@_1BE@NDMJHJJG@?$AAs?$AAt?$AAr?$AAn?$AAc?$AAp?$AAy?$AA_?$AAs?$AA?$AA@ 004b919c     LIBCMTD:strncpy_s.obj
 0002:000151b0       ??_C@_1CG@JEHFHLNG@?$AA_?$AAm?$AAb?$AAs?$AAt?$AAo?$AAw?$AAc?$AAs?$AA_?$AAl?$AA_?$AAh?$AAe?$AAl?$AAp?$AAe?$AAr?$AA?$AA@ 004b91b0     LIBCMTD:mbstowcs.obj
 0002:000151d8       ??_C@_1GE@LCCDHBMH@?$AAf?$AA?3?$AA?2?$AAd?$AAd?$AA?2?$AAv?$AAc?$AAt?$AAo?$AAo?$AAl?$AAs?$AA?2?$AAc?$AAr?$AAt?$AA_?$AAb?$AAl?$AAd?$AA?2?$AAs?$AAe?$AAl?$AAf?$AA_?$AAx?$AA8?$AA6?$AA?2?$AAc@ 004b91d8     LIBCMTD:mbstowcs.obj
 0002:0001523c       ??_C@_1BE@EEKACIGI@?$AAs?$AA?5?$AA?$CB?$AA?$DN?$AA?5?$AAN?$AAU?$AAL?$AAL?$AA?$AA@ 004b923c     LIBCMTD:mbstowcs.obj
 0002:00015250       ??_C@_1CO@JNPEPJAL@?$AAr?$AAe?$AAt?$AAs?$AAi?$AAz?$AAe?$AA?5?$AA?$DM?$AA?$DN?$AA?5?$AAs?$AAi?$AAz?$AAe?$AAI?$AAn?$AAW?$AAo?$AAr?$AAd?$AAs?$AA?$AA@ 004b9250     LIBCMTD:mbstowcs.obj
 0002:00015280       ??_C@_1CM@LLECFMFH@?$AAb?$AAu?$AAf?$AAf?$AAe?$AAr?$AAS?$AAi?$AAz?$AAe?$AA?5?$AA?$DM?$AA?$DN?$AA?5?$AAI?$AAN?$AAT?$AA_?$AAM?$AAA?$AAX?$AA?$AA@ 004b9280     LIBCMTD:mbstowcs.obj
 0002:000152ac       ??_C@_1BM@PHENIGHD@?$AA_?$AAm?$AAb?$AAs?$AAt?$AAo?$AAw?$AAc?$AAs?$AA_?$AAs?$AA_?$AAl?$AA?$AA@ 004b92ac     LIBCMTD:mbstowcs.obj
 0002:000152c8       ??_C@_1JA@JKDFMOPO@?$AA?$CI?$AAp?$AAw?$AAc?$AAs?$AA?5?$AA?$DN?$AA?$DN?$AA?5?$AAN?$AAU?$AAL?$AAL?$AA?5?$AA?$CG?$AA?$CG?$AA?5?$AAs?$AAi?$AAz?$AAe?$AAI?$AAn?$AAW?$AAo?$AAr?$AAd?$AAs?$AA?5?$AA?$DN?$AA?$DN?$AA?5@ 004b92c8     LIBCMTD:mbstowcs.obj
 0002:00015358       ??_C@_1BC@HGPNAKGC@?$AAs?$AAt?$AAr?$AAc?$AAa?$AAt?$AA_?$AAs?$AA?$AA@ 004b9358     LIBCMTD:strcat_s.obj
 0002:0001536c       ??_C@_1CM@HABGDNLJ@?$AAl?$AAe?$AAn?$AAg?$AAt?$AAh?$AA?5?$AA?$DM?$AA?5?$AAs?$AAi?$AAz?$AAe?$AAI?$AAn?$AAT?$AAC?$AAh?$AAa?$AAr?$AAs?$AA?$AA@ 004b936c     LIBCMTD:xtoas.obj
 0002:00015398       ??_C@_1DE@PCJGDBBD@?$AA2?$AA?5?$AA?$DM?$AA?$DN?$AA?5?$AAr?$AAa?$AAd?$AAi?$AAx?$AA?5?$AA?$CG?$AA?$CG?$AA?5?$AAr?$AAa?$AAd?$AAi?$AAx?$AA?5?$AA?$DM?$AA?$DN?$AA?5?$AA3?$AA6?$AA?$AA@ 004b9398     LIBCMTD:xtoas.obj
 0002:000153d0       ??_C@_1FA@MKGGAGEI@?$AAs?$AAi?$AAz?$AAe?$AAI?$AAn?$AAT?$AAC?$AAh?$AAa?$AAr?$AAs?$AA?5?$AA?$DO?$AA?5?$AA?$CI?$AAs?$AAi?$AAz?$AAe?$AA_?$AAt?$AA?$CJ?$AA?$CI?$AAi?$AAs?$AA_?$AAn?$AAe?$AAg?$AA?5?$AA?$DP@ 004b93d0     LIBCMTD:xtoas.obj
 0002:00015420       ??_C@_1CC@JNJFIMGE@?$AAs?$AAi?$AAz?$AAe?$AAI?$AAn?$AAT?$AAC?$AAh?$AAa?$AAr?$AAs?$AA?5?$AA?$DO?$AA?5?$AA0?$AA?$AA@ 004b9420     LIBCMTD:xtoas.obj
 0002:00015444       ??_C@_1O@GIMBNLEI@?$AAx?$AAt?$AAo?$AAa?$AA_?$AAs?$AA?$AA@ 004b9444     LIBCMTD:xtoas.obj
 0002:00015458       ??_C@_1FM@MFCBFCGB@?$AAf?$AA?3?$AA?2?$AAd?$AAd?$AA?2?$AAv?$AAc?$AAt?$AAo?$AAo?$AAl?$AAs?$AA?2?$AAc?$AAr?$AAt?$AA_?$AAb?$AAl?$AAd?$AA?2?$AAs?$AAe?$AAl?$AAf?$AA_?$AAx?$AA8?$AA6?$AA?2?$AAc@ 004b9458     LIBCMTD:xtoas.obj
 0002:000154b4       ??_C@_1BC@MJJNBNFN@?$AAx?$AA6?$AA4?$AAt?$AAo?$AAa?$AA_?$AAs?$AA?$AA@ 004b94b4     LIBCMTD:xtoas.obj
 0002:000154c8       ??_C@_1CG@LLJCAOHF@?$AA_?$AAw?$AAc?$AAs?$AAt?$AAo?$AAm?$AAb?$AAs?$AA_?$AAl?$AA_?$AAh?$AAe?$AAl?$AAp?$AAe?$AAr?$AA?$AA@ 004b94c8     LIBCMTD:wcstombs.obj
 0002:000154f0       ??_C@_1GE@OAENIBOD@?$AAf?$AA?3?$AA?2?$AAd?$AAd?$AA?2?$AAv?$AAc?$AAt?$AAo?$AAo?$AAl?$AAs?$AA?2?$AAc?$AAr?$AAt?$AA_?$AAb?$AAl?$AAd?$AA?2?$AAs?$AAe?$AAl?$AAf?$AA_?$AAx?$AA8?$AA6?$AA?2?$AAc@ 004b94f0     LIBCMTD:wcstombs.obj
 0002:00015554       ??_C@_1BK@OIBENBPM@?$AAp?$AAw?$AAc?$AAs?$AA?5?$AA?$CB?$AA?$DN?$AA?5?$AAN?$AAU?$AAL?$AAL?$AA?$AA@ 004b9554     LIBCMTD:wcstombs.obj
 0002:00015570       ??_C@_1CM@KEOGBFLI@?$AAs?$AAi?$AAz?$AAe?$AAI?$AAn?$AAB?$AAy?$AAt?$AAe?$AAs?$AA?5?$AA?$DO?$AA?5?$AAr?$AAe?$AAt?$AAs?$AAi?$AAz?$AAe?$AA?$AA@ 004b9570     LIBCMTD:wcstombs.obj
 0002:0001559c       ??_C@_1BM@BDMCLLDL@?$AA_?$AAw?$AAc?$AAs?$AAt?$AAo?$AAm?$AAb?$AAs?$AA_?$AAs?$AA_?$AAl?$AA?$AA@ 004b959c     LIBCMTD:wcstombs.obj
 0002:000155b8       ??_C@_1IM@MFGKHGBP@?$AA?$CI?$AAd?$AAs?$AAt?$AA?5?$AA?$CB?$AA?$DN?$AA?5?$AAN?$AAU?$AAL?$AAL?$AA?5?$AA?$CG?$AA?$CG?$AA?5?$AAs?$AAi?$AAz?$AAe?$AAI?$AAn?$AAB?$AAy?$AAt?$AAe?$AAs?$AA?5?$AA?$DO?$AA?5?$AA0?$AA?$CJ@ 004b95b8     LIBCMTD:wcstombs.obj
 0002:00015644       ??_C@_1CE@IGKFIJFD@?$AA_?$AAv?$AAs?$AAw?$AAp?$AAr?$AAi?$AAn?$AAt?$AAf?$AA_?$AAh?$AAe?$AAl?$AAp?$AAe?$AAr?$AA?$AA@ 004b9644     LIBCMTD:vswprnc.obj
 0002:00015668       ??_C@_1GE@KINELFI@?$AAf?$AA?3?$AA?2?$AAd?$AAd?$AA?2?$AAv?$AAc?$AAt?$AAo?$AAo?$AAl?$AAs?$AA?2?$AAc?$AAr?$AAt?$AA_?$AAb?$AAl?$AAd?$AA?2?$AAs?$AAe?$AAl?$AAf?$AA_?$AAx?$AA8?$AA6?$AA?2?$AAc@ 004b9668     LIBCMTD:vswprnc.obj
 0002:000156d0       ??_C@_1EE@MPCHJFGP@?$AAs?$AAt?$AAr?$AAi?$AAn?$AAg?$AA?5?$AA?$CB?$AA?$DN?$AA?5?$AAN?$AAU?$AAL?$AAL?$AA?5?$AA?$CG?$AA?$CG?$AA?5?$AAs?$AAi?$AAz?$AAe?$AAI?$AAn?$AAW?$AAo?$AAr?$AAd?$AAs?$AA?5?$AA?$DO?$AA?5@ 004b96d0     LIBCMTD:vswprnc.obj
 0002:00015714       ??_C@_1BO@OALHJLCI@?$AA_?$AAv?$AAs?$AAw?$AAp?$AAr?$AAi?$AAn?$AAt?$AAf?$AA_?$AAs?$AA_?$AAl?$AA?$AA@ 004b9714     LIBCMTD:vswprnc.obj
 0002:00015734       ??_C@_1CA@BKFKMJFF@?$AA_?$AAv?$AAs?$AAn?$AAw?$AAp?$AAr?$AAi?$AAn?$AAt?$AAf?$AA_?$AAs?$AA_?$AAl?$AA?$AA@ 004b9734     LIBCMTD:vswprnc.obj
 0002:00015754       ??_C@_1O@NCBFODOE@?$AAx?$AAt?$AAo?$AAw?$AA_?$AAs?$AA?$AA@ 004b9754     LIBCMTD:xtows.obj
 0002:00015764       ??_C@_1BC@HDEJCFPB@?$AAx?$AA6?$AA4?$AAt?$AAo?$AAw?$AA_?$AAs?$AA?$AA@ 004b9764     LIBCMTD:xtows.obj
 0002:00015778       ??_C@_0BC@JEAENNKH@SystemFunction036?$AA@ 004b9778     LIBCMTD:rand_s.obj
 0002:00015790       ??_C@_1GA@EBEDGGGB@?$AA?$CI?$AA?$CC?$AAr?$AAa?$AAn?$AAd?$AA_?$AAs?$AA?5?$AAi?$AAs?$AA?5?$AAn?$AAo?$AAt?$AA?5?$AAa?$AAv?$AAa?$AAi?$AAl?$AAa?$AAb?$AAl?$AAe?$AA?5?$AAo?$AAn?$AA?5?$AAt?$AAh?$AAi@ 004b9790     LIBCMTD:rand_s.obj
 0002:000157f0       ??_C@_1O@IJGPPOGF@?$AAr?$AAa?$AAn?$AAd?$AA_?$AAs?$AA?$AA@ 004b97f0     LIBCMTD:rand_s.obj
 0002:00015800       ??_C@_1GA@HBGBBKCD@?$AAf?$AA?3?$AA?2?$AAd?$AAd?$AA?2?$AAv?$AAc?$AAt?$AAo?$AAo?$AAl?$AAs?$AA?2?$AAc?$AAr?$AAt?$AA_?$AAb?$AAl?$AAd?$AA?2?$AAs?$AAe?$AAl?$AAf?$AA_?$AAx?$AA8?$AA6?$AA?2?$AAc@ 004b9800     LIBCMTD:rand_s.obj
 0002:00015860       ??_C@_1CK@GFDNDKK@?$AA_?$AAR?$AAa?$AAn?$AAd?$AAo?$AAm?$AAV?$AAa?$AAl?$AAu?$AAe?$AA?5?$AA?$CB?$AA?$DN?$AA?5?$AAN?$AAU?$AAL?$AAL?$AA?$AA@ 004b9860     LIBCMTD:rand_s.obj
 0002:0001588c       ??_C@_1BG@BBCDFOMA@?$AA_?$AAw?$AAo?$AAu?$AAt?$AAp?$AAu?$AAt?$AA_?$AAl?$AA?$AA@ 004b988c     LIBCMTD:woutput.obj
 0002:000158a4       ??_C@_1BK@EPLNBKAK@?$AA_?$AAv?$AAs?$AAw?$AAp?$AAr?$AAi?$AAn?$AAt?$AAf?$AA_?$AAl?$AA?$AA@ 004b98a4     LIBCMTD:vswprint.obj
 0002:000158c0       ??_C@_1CG@IMMIEPNA@?$AA_?$AAv?$AAs?$AAc?$AAw?$AAp?$AAr?$AAi?$AAn?$AAt?$AAf?$AA_?$AAh?$AAe?$AAl?$AAp?$AAe?$AAr?$AA?$AA@ 004b98c0     LIBCMTD:vswprint.obj
 0002:000158e8       ??_C@_0DB@KIKNCIEC@f?3?2dd?2vctools?2crt_bld?2self_x86?2c@ 004b98e8     LIBCMTD:osfinfo.obj
 0002:0001591c       ??_C@_1BO@EMBOBGKE@?$AA_?$AAg?$AAe?$AAt?$AA_?$AAo?$AAs?$AAf?$AAh?$AAa?$AAn?$AAd?$AAl?$AAe?$AA?$AA@ 004b991c     LIBCMTD:osfinfo.obj
 0002:00015940       ??_C@_1GC@MLKLDJJG@?$AAf?$AA?3?$AA?2?$AAd?$AAd?$AA?2?$AAv?$AAc?$AAt?$AAo?$AAo?$AAl?$AAs?$AA?2?$AAc?$AAr?$AAt?$AA_?$AAb?$AAl?$AAd?$AA?2?$AAs?$AAe?$AAl?$AAf?$AA_?$AAx?$AA8?$AA6?$AA?2?$AAc@ 004b9940     LIBCMTD:osfinfo.obj
 0002:000159a8       ??_C@_1GA@GFFDGGFH@?$AAf?$AA?3?$AA?2?$AAd?$AAd?$AA?2?$AAv?$AAc?$AAt?$AAo?$AAo?$AAl?$AAs?$AA?2?$AAc?$AAr?$AAt?$AA_?$AAb?$AAl?$AAd?$AA?2?$AAs?$AAe?$AAl?$AAf?$AA_?$AAx?$AA8?$AA6?$AA?2?$AAc@ 004b99a8     LIBCMTD:mbtowc.obj
 0002:00015a08       ??_C@_1NC@EINCOKCO@?$AA_?$AAl?$AAo?$AAc?$AA_?$AAu?$AAp?$AAd?$AAa?$AAt?$AAe?$AA?4?$AAG?$AAe?$AAt?$AAL?$AAo?$AAc?$AAa?$AAl?$AAe?$AAT?$AA?$CI?$AA?$CJ?$AA?9?$AA?$DO?$AAl?$AAo?$AAc?$AAi?$AAn?$AAf@ 004b9a08     LIBCMTD:mbtowc.obj
 0002:00015adc       ??_C@_1M@MFLJCMFJ@?$AA_?$AAo?$AAp?$AAe?$AAn?$AA?$AA@ 004b9adc     LIBCMTD:open.obj
 0002:00015ae8       ??_C@_1FM@LFKHNNH@?$AAf?$AA?3?$AA?2?$AAd?$AAd?$AA?2?$AAv?$AAc?$AAt?$AAo?$AAo?$AAl?$AAs?$AA?2?$AAc?$AAr?$AAt?$AA_?$AAb?$AAl?$AAd?$AA?2?$AAs?$AAe?$AAl?$AAf?$AA_?$AAx?$AA8?$AA6?$AA?2?$AAc@ 004b9ae8     LIBCMTD:open.obj
 0002:00015b44       ??_C@_1BO@DPAOGEII@?$AA?$CI?$AAp?$AAa?$AAt?$AAh?$AA?5?$AA?$CB?$AA?$DN?$AA?5?$AAN?$AAU?$AAL?$AAL?$AA?$CJ?$AA?$AA@ 004b9b44     LIBCMTD:open.obj
 0002:00015b68       ??_C@_1FG@NFINBJCM@?$AA?$CI?$AA?$CI?$AAp?$AAm?$AAo?$AAd?$AAe?$AA?5?$AA?$CG?$AA?5?$AA?$CI?$AA?$HO?$AA?$CI?$AA_?$AAS?$AA_?$AAI?$AAR?$AAE?$AAA?$AAD?$AA?5?$AA?$HM?$AA?5?$AA_?$AAS?$AA_?$AAI?$AAW?$AAR?$AAI?$AAT@ 004b9b68     LIBCMTD:open.obj
 0002:00015bc0       ??_C@_1BM@IOBAMMHO@?$AA_?$AAs?$AAo?$AAp?$AAe?$AAn?$AA_?$AAh?$AAe?$AAl?$AAp?$AAe?$AAr?$AA?$AA@ 004b9bc0     LIBCMTD:open.obj
 0002:00015bdc       ??_C@_1BM@PGEEHLHE@?$AA?$CI?$AAp?$AAf?$AAh?$AA?5?$AA?$CB?$AA?$DN?$AA?5?$AAN?$AAU?$AAL?$AAL?$AA?$CJ?$AA?$AA@ 004b9bdc     LIBCMTD:open.obj
 0002:00015bf8       ??_C@_1IA@IENOJNJF@?$AA0?$AA?5?$AA?$CG?$AA?$CG?$AA?5?$AA?$CC?$AAO?$AAn?$AAl?$AAy?$AA?5?$AAU?$AAT?$AAF?$AA?9?$AA1?$AA6?$AA?5?$AAl?$AAi?$AAt?$AAt?$AAl?$AAe?$AA?5?$AAe?$AAn?$AAd?$AAi?$AAa?$AAn?$AA?5@ 004b9bf8     LIBCMTD:open.obj
 0002:00015c78       ??_C@_1CM@IDLMKMPG@?$AA0?$AA?5?$AA?$CG?$AA?$CG?$AA?5?$AA?$CC?$AAI?$AAn?$AAt?$AAe?$AAr?$AAn?$AAa?$AAl?$AA?5?$AAE?$AAr?$AAr?$AAo?$AAr?$AA?$CC?$AA?$AA@ 004b9c78     LIBCMTD:open.obj
 0002:00015ca8       ??_C@_1HM@GJANBLHJ@?$AA?$CI?$AAo?$AAf?$AAl?$AAa?$AAg?$AA?5?$AA?$CG?$AA?5?$AA?$CI?$AA_?$AAO?$AA_?$AAT?$AAE?$AAX?$AAT?$AA?5?$AA?$HM?$AA?5?$AA_?$AAO?$AA_?$AAW?$AAT?$AAE?$AAX?$AAT?$AA?5?$AA?$HM?$AA?5?$AA_@ 004b9ca8     LIBCMTD:open.obj
 0002:00015d24       ??_C@_1DO@PJLMOANO@?$AA?$CI?$AA?5?$AA?$CC?$AAI?$AAn?$AAv?$AAa?$AAl?$AAi?$AAd?$AA?5?$AAs?$AAh?$AAa?$AAr?$AAi?$AAn?$AAg?$AA?5?$AAf?$AAl?$AAa?$AAg?$AA?$CC?$AA?5?$AA?0?$AA?5?$AA0?$AA?5?$AA?$CJ?$AA?$AA@ 004b9d24     LIBCMTD:open.obj
 0002:00015d64       ??_C@_1DI@DGKIFCCE@?$AA?$CI?$AA?5?$AA?$CC?$AAI?$AAn?$AAv?$AAa?$AAl?$AAi?$AAd?$AA?5?$AAo?$AAp?$AAe?$AAn?$AA?5?$AAf?$AAl?$AAa?$AAg?$AA?$CC?$AA?5?$AA?0?$AA?5?$AA0?$AA?5?$AA?$CJ?$AA?$AA@ 004b9d64     LIBCMTD:open.obj
 0002:00015d9c       ??_C@_1CG@ICBEBDJJ@?$AA_?$AAg?$AAe?$AAt?$AA_?$AAf?$AAm?$AAo?$AAd?$AAe?$AA?$CI?$AA?$CG?$AAf?$AAm?$AAo?$AAd?$AAe?$AA?$CJ?$AA?$AA@ 004b9d9c     LIBCMTD:open.obj
