 MenuDemo_d

 Timestamp is 51e77331 (Thu Jul 18 12:46:41 2013)

 Preferred load address is 00400000

 Start         Length     Name                   Class
 0001:00000000 000603d2H .text                   CODE
 0001:000603e0 00001d77H .text$x                 CODE
 0001:00062160 00001089H .text$yc                CODE
 0001:000631f0 00001080H .text$yd                CODE
 0002:00000000 00000104H .CRT$XCA                DATA
 0002:00000104 00000104H .CRT$XCC                DATA
 0002:00000208 00000109H .CRT$XCU                DATA
 0002:00000314 00000104H .CRT$XCZ                DATA
 0002:00000418 00000104H .CRT$XIA                DATA
 0002:0000051c 00000113H .CRT$XIC                DATA
 0002:00000630 00000104H .CRT$XIY                DATA
 0002:00000734 00000104H .CRT$XIZ                DATA
 0002:00000838 00000104H .CRT$XPA                DATA
 0002:0000093c 00000109H .CRT$XPX                DATA
 0002:00000a48 00000104H .CRT$XPXA               DATA
 0002:00000b4c 00000104H .CRT$XPZ                DATA
 0002:00000c50 00000104H .CRT$XTA                DATA
 0002:00000d54 00000104H .CRT$XTZ                DATA
 0002:00000e60 000103a6H .rdata                  DATA
 0002:00011208 00000150H .rdata$debug            DATA
 0002:00011358 00000ffdH .rdata$r                DATA
 0002:00012360 0000021bH .rdata$sxdata           DATA
 0002:0001257c 00000104H .rtc$IAA                DATA
 0002:00012680 00000118H .rtc$IMZ                DATA
 0002:00012798 00000104H .rtc$IZZ                DATA
 0002:0001289c 00000104H .rtc$TAA                DATA
 0002:000129a0 00000118H .rtc$TMZ                DATA
 0002:00012ab8 00000104H .rtc$TZZ                DATA
 0002:00012bc0 00001e0eH .xdata$x                DATA
 0002:000149ce 00000000H .edata                  DATA
 0003:00000000 00001ab6H .data                   DATA
 0003:00001ac0 000024c4H .bss                    DATA
 0004:00000000 00000064H .idata$2                DATA
 0004:00000064 00000014H .idata$3                DATA
 0004:00000078 0000074cH .idata$4                DATA
 0004:000007c4 0000074cH .idata$5                DATA
 0004:00000f10 00003b23H .idata$6                DATA
 0005:00000000 00000876H .rsrc$01                DATA
 0005:00000880 0004f19cH .rsrc$02                DATA

  Address         Publics by Value              Rva+Base       Lib:Object

 0000:00000000       __except_list              00000000     <absolute>
 0000:0000003b       ___safe_se_handler_count   0000003b     <absolute>
 0000:00000000       ___ImageBase               00400000     <linker-defined>
 0001:00000cb0       ??0OS_CLockable@@QAE@XZ    00401cb0 f   debug.obj
 0001:00000da0       ??1OS_CLockable@@QAE@XZ    00401da0 f   debug.obj
 0001:00000de0       ?Acquire@OS_CLockable@@QAEXXZ 00401de0 f   debug.obj
 0001:00000e20       ?Release@OS_CLockable@@QAEXXZ 00401e20 f   debug.obj
 0001:00000e60       ?DbgPrint@@YAHPBDZZ        00401e60 f   debug.obj
 0001:000012a0       ??0OS_CAutoLock@@QAE@AAVOS_CLockable@@@Z 004022a0 f i debug.obj
 0001:000012e0       ??1OS_CAutoLock@@QAE@XZ    004022e0 f i debug.obj
 0001:00001310       ??0MainFrame@@QAE@XZ       00402310 f   main_frame.obj
 0001:00001360       ??1MainFrame@@UAE@XZ       00402360 f   main_frame.obj
 0001:000013c0       ?GetWindowClassName@MainFrame@@UBEPBDXZ 004023c0 f   main_frame.obj
 0001:000013e0       ?CreateControl@MainFrame@@UAEPAVCControlUI@DuiLib@@PBD@Z 004023e0 f   main_frame.obj
 0001:00001400       ?OnFinalMessage@MainFrame@@UAEXPAUHWND__@@@Z 00402400 f   main_frame.obj
 0001:00001470       ?GetSkinFile@MainFrame@@UAE?AV?$basic_string@DU?$char_traits@D@std@@V?$allocator@D@2@@std@@XZ 00402470 f   main_frame.obj
 0001:00001550       ?GetSkinFolder@MainFrame@@UAE?AV?$basic_string@DU?$char_traits@D@std@@V?$allocator@D@2@@std@@XZ 00402550 f   main_frame.obj
 0001:00001620       ?OnSysCommand@MainFrame@@UAEJIIJAAH@Z 00402620 f   main_frame.obj
 0001:000017c0       ?HandleMessage@MainFrame@@UAEJIIJ@Z 004027c0 f   main_frame.obj
 0001:00001800       ?ResponseDefaultKeyEvent@MainFrame@@UAEJI@Z 00402800 f   main_frame.obj
 0001:00001830       ?OnTimer@MainFrame@@IAEXAAUtagTNotifyUI@DuiLib@@@Z 00402830 f   main_frame.obj
 0001:00001850       ?OnExit@MainFrame@@IAEXAAUtagTNotifyUI@DuiLib@@@Z 00402850 f   main_frame.obj
 0001:00001890       ?Init@MainFrame@@UAEXXZ    00402890 f   main_frame.obj
 0001:000018b0       ?OnPrepare@MainFrame@@IAEXAAUtagTNotifyUI@DuiLib@@@Z 004028b0 f   main_frame.obj
 0001:000018d0       ?Notify@MainFrame@@MAEXAAUtagTNotifyUI@DuiLib@@@Z 004028d0 f   main_frame.obj
 0001:00001e70       ?HandleCustomMessage@MainFrame@@UAEJIIJAAH@Z 00402e70 f   main_frame.obj
 0001:00002170       ??_GMainFrame@@UAEPAXI@Z   00403170 f i main_frame.obj
 0001:00002170       ??_EMainFrame@@UAEPAXI@Z   00403170 f i main_frame.obj
 0001:000021c0       __tcsicmp                  004031c0 f i main_frame.obj
 0001:000021f0       ??0STRINGorID@DuiLib@@QAE@I@Z 004031f0 f i main_frame.obj
 0001:00002220       ??0?$basic_string@DU?$char_traits@D@std@@V?$allocator@D@2@@std@@QAE@PBD@Z 00403220 f i main_frame.obj
 0001:000022d0       ??1?$basic_string@DU?$char_traits@D@std@@V?$allocator@D@2@@std@@QAE@XZ 004032d0 f i main_frame.obj
 0001:00002360       ?assign@?$basic_string@DU?$char_traits@D@std@@V?$allocator@D@2@@std@@QAEAAV12@PBD@Z 00403360 f i main_frame.obj
 0001:000023c0       ?length@?$char_traits@D@std@@SAIPBD@Z 004033c0 f i main_frame.obj
 0001:000023e0       ?_Tidy@?$basic_string@DU?$char_traits@D@std@@V?$allocator@D@2@@std@@QAEX_NI@Z 004033e0 f i main_frame.obj
 0001:000024a0       ?copy@?$char_traits@D@std@@SAPADPADPBDI@Z 004034a0 f i main_frame.obj
 0001:000024d0       ??0?$_String_val@DV?$allocator@D@std@@@std@@QAE@V?$allocator@D@1@@Z 004034d0 f i main_frame.obj
 0001:00002610       ??0_Container_proxy@std@@QAE@XZ 00403610 f i main_frame.obj
 0001:00002650       ??0_Container_base12@std@@QAE@XZ 00403650 f i main_frame.obj
 0001:00002680       ??1_Container_base12@std@@QAE@XZ 00403680 f i main_frame.obj
 0001:000026b0       ?_Orphan_all@_Container_base12@std@@QAEXXZ 004036b0 f i main_frame.obj
 0001:00002790       ??1?$_String_val@DV?$allocator@D@std@@@std@@QAE@XZ 00403790 f i main_frame.obj
 0001:000028a0       ??0?$allocator@D@std@@QAE@XZ 004038a0 f i main_frame.obj
 0001:000028c0       ??0?$allocator@D@std@@QAE@ABV01@@Z 004038c0 f i main_frame.obj
 0001:000028e0       ?assign@?$basic_string@DU?$char_traits@D@std@@V?$allocator@D@2@@std@@QAEAAV12@PBDI@Z 004038e0 f i main_frame.obj
 0001:000029c0       ?_Eos@?$basic_string@DU?$char_traits@D@std@@V?$allocator@D@2@@std@@QAEXI@Z 004039c0 f i main_frame.obj
 0001:00002a20       ?assign@?$char_traits@D@std@@SAXAADABD@Z 00403a20 f i main_frame.obj
 0001:00002a40       ?_Myptr@?$basic_string@DU?$char_traits@D@std@@V?$allocator@D@2@@std@@QAEPADXZ 00403a40 f i main_frame.obj
 0001:00002a90       ?deallocate@?$allocator@D@std@@QAEXPADI@Z 00403a90 f i main_frame.obj
 0001:00002ad0       ?deallocate@?$allocator@U_Container_proxy@std@@@std@@QAEXPAU_Container_proxy@2@I@Z 00403ad0 f i main_frame.obj
 0001:00002b10       ?allocate@?$allocator@U_Container_proxy@std@@@std@@QAEPAU_Container_proxy@2@I@Z 00403b10 f i main_frame.obj
 0001:00002b50       ?assign@?$basic_string@DU?$char_traits@D@std@@V?$allocator@D@2@@std@@QAEAAV12@ABV12@II@Z 00403b50 f i main_frame.obj
 0001:00002c50       ?size@?$basic_string@DU?$char_traits@D@std@@V?$allocator@D@2@@std@@QBEIXZ 00403c50 f i main_frame.obj
 0001:00002c70       ?_Myptr@?$basic_string@DU?$char_traits@D@std@@V?$allocator@D@2@@std@@QBEPBDXZ 00403c70 f i main_frame.obj
 0001:00002cc0       ?_Xran@?$basic_string@DU?$char_traits@D@std@@V?$allocator@D@2@@std@@QBEXXZ 00403cc0 f i main_frame.obj
 0001:00002cf0       ?_Grow@?$basic_string@DU?$char_traits@D@std@@V?$allocator@D@2@@std@@QAE_NI_N@Z 00403cf0 f i main_frame.obj
 0001:00002dd0       ?_Inside@?$basic_string@DU?$char_traits@D@std@@V?$allocator@D@2@@std@@QAE_NPBD@Z 00403dd0 f i main_frame.obj
 0001:00002e30       ?_Xlen@?$basic_string@DU?$char_traits@D@std@@V?$allocator@D@2@@std@@QBEXXZ 00403e30 f i main_frame.obj
 0001:00002e60       ?erase@?$basic_string@DU?$char_traits@D@std@@V?$allocator@D@2@@std@@QAEAAV12@II@Z 00403e60 f i main_frame.obj
 0001:00002f30       ?move@?$char_traits@D@std@@SAPADPADPBDI@Z 00403f30 f i main_frame.obj
 0001:00002f60       ?max_size@?$basic_string@DU?$char_traits@D@std@@V?$allocator@D@2@@std@@QBEIXZ 00403f60 f i main_frame.obj
 0001:00002fd0       ?_Copy@?$basic_string@DU?$char_traits@D@std@@V?$allocator@D@2@@std@@QAEXII@Z 00403fd0 f i main_frame.obj
 0001:000031e0       ?allocate@?$allocator@D@std@@QAEPADI@Z 004041e0 f i main_frame.obj
 0001:00003220       ?max_size@?$allocator@D@std@@QBEIXZ 00404220 f i main_frame.obj
 0001:00003280       ??$_Debug_pointer@D@std@@YAXPBDPB_WI@Z 00404280 f i main_frame.obj
 0001:000032b0       ??$?0D@?$allocator@U_Container_proxy@std@@@std@@QAE@ABV?$allocator@D@1@@Z 004042b0 f i main_frame.obj
 0001:000032d0       ??$_Cons_val@V?$allocator@U_Container_proxy@std@@@std@@U_Container_proxy@2@U32@@std@@YAXAAV?$allocator@U_Container_proxy@std@@@0@PAU_Container_proxy@0@$$QAU20@@Z 004042d0 f i main_frame.obj
 0001:00003300       ??$_Dest_val@V?$allocator@U_Container_proxy@std@@@std@@U_Container_proxy@2@@std@@YAXAAV?$allocator@U_Container_proxy@std@@@0@PAU_Container_proxy@0@@Z 00404300 f i main_frame.obj
 0001:00003320       ??$_Allocate@U_Container_proxy@std@@@std@@YAPAU_Container_proxy@0@IPAU10@@Z 00404320 f i main_frame.obj
 0001:000033c0       ??0bad_alloc@std@@QAE@PBD@Z 004043c0 f i main_frame.obj
 0001:00003410       ??1bad_alloc@std@@UAE@XZ   00404410 f i main_frame.obj
 0001:00003450       ??_Gbad_alloc@std@@UAEPAXI@Z 00404450 f i main_frame.obj
 0001:00003450       ??_Ebad_alloc@std@@UAEPAXI@Z 00404450 f i main_frame.obj
 0001:000034a0       ??$_Allocate@D@std@@YAPADIPAD@Z 004044a0 f i main_frame.obj
 0001:00003530       ??0bad_alloc@std@@QAE@ABV01@@Z 00404530 f i main_frame.obj
 0001:00003580       ?construct@?$allocator@U_Container_proxy@std@@@std@@QAEXPAU_Container_proxy@2@$$QAU32@@Z 00404580 f i main_frame.obj
 0001:00003650       ??2@YAPAXIPAX@Z            00404650 f i main_frame.obj
 0001:00003660       ??3@YAXPAX0@Z              00404660 f i main_frame.obj
 0001:00003670       ?destroy@?$allocator@U_Container_proxy@std@@@std@@QAEXPAU_Container_proxy@2@@Z 00404670 f i main_frame.obj
 0001:000036b0       ??$forward@U_Container_proxy@std@@@std@@YA$$QAU_Container_proxy@0@AAU10@@Z 004046b0 f i main_frame.obj
 0001:000036c0       ??$_Destroy@U_Container_proxy@std@@@std@@YAXPAU_Container_proxy@0@@Z 004046c0 f i main_frame.obj
 0001:000036d0       ??0CMenuUI@DuiLib@@QAE@XZ  004046d0 f   UIMenu.obj
 0001:000037c0       ??1CMenuUI@DuiLib@@UAE@XZ  004047c0 f   UIMenu.obj
 0001:00003820       ?GetClass@CMenuUI@DuiLib@@UBEPBDXZ 00404820 f   UIMenu.obj
 0001:00003840       ?GetInterface@CMenuUI@DuiLib@@UAEPAXPBD@Z 00404840 f   UIMenu.obj
 0001:000038a0       ?DoEvent@CMenuUI@DuiLib@@UAEXAAUtagTEventUI@2@@Z 004048a0 f   UIMenu.obj
 0001:000038e0       ?Add@CMenuUI@DuiLib@@UAE_NPAVCControlUI@2@@Z 004048e0 f   UIMenu.obj
 0001:00003a40       ?AddAt@CMenuUI@DuiLib@@UAE_NPAVCControlUI@2@H@Z 00404a40 f   UIMenu.obj
 0001:00003ba0       ?GetItemIndex@CMenuUI@DuiLib@@UBEHPAVCControlUI@2@@Z 00404ba0 f   UIMenu.obj
 0001:00003c10       ?SetItemIndex@CMenuUI@DuiLib@@UAE_NPAVCControlUI@2@H@Z 00404c10 f   UIMenu.obj
 0001:00003c80       ?Remove@CMenuUI@DuiLib@@UAE_NPAVCControlUI@2@@Z 00404c80 f   UIMenu.obj
 0001:00003cf0       ?EstimateSize@CMenuUI@DuiLib@@UAE?AUtagSIZE@@U3@@Z 00404cf0 f   UIMenu.obj
 0001:00003e50       ?SetAttribute@CMenuUI@DuiLib@@UAEXPBD0@Z 00404e50 f   UIMenu.obj
 0001:00003e90       ??0CMenuWnd@DuiLib@@QAE@PAUHWND__@@@Z 00404e90 f   UIMenu.obj
 0001:00003f80       ?Receive@CMenuWnd@DuiLib@@UAEHUContextMenuParam@2@@Z 00404f80 f   UIMenu.obj
 0001:00004040       ?Init@CMenuWnd@DuiLib@@QAEXPAVCMenuElementUI@2@VSTRINGorID@2@PBDUtagPOINT@@@Z 00405040 f   UIMenu.obj
 0001:00004220       ?GetWindowClassName@CMenuWnd@DuiLib@@UBEPBDXZ 00405220 f   UIMenu.obj
 0001:00004240       ?OnFinalMessage@CMenuWnd@DuiLib@@UAEXPAUHWND__@@@Z 00405240 f   UIMenu.obj
 0001:000044f0       ?HandleMessage@CMenuWnd@DuiLib@@UAEJIIJ@Z 004054f0 f   UIMenu.obj
 0001:00005790       ??0CMenuElementUI@DuiLib@@QAE@XZ 00406790 f   UIMenu.obj
 0001:00005860       ??1CMenuElementUI@DuiLib@@UAE@XZ 00406860 f   UIMenu.obj
 0001:000058c0       ?GetClass@CMenuElementUI@DuiLib@@UBEPBDXZ 004068c0 f   UIMenu.obj
 0001:000058e0       ?GetInterface@CMenuElementUI@DuiLib@@UAEPAXPBD@Z 004068e0 f   UIMenu.obj
 0001:00005940       ?DoPaint@CMenuElementUI@DuiLib@@UAEXPAUHDC__@@ABUtagRECT@@@Z 00406940 f   UIMenu.obj
 0001:00005ac0       ?DrawItemText@CMenuElementUI@DuiLib@@UAEXPAUHDC__@@ABUtagRECT@@@Z 00406ac0 f   UIMenu.obj
 0001:00005d30       ?EstimateSize@CMenuElementUI@DuiLib@@UAE?AUtagSIZE@@U3@@Z 00406d30 f   UIMenu.obj
 0001:00006100       ?DoEvent@CMenuElementUI@DuiLib@@UAEXAAUtagTEventUI@2@@Z 00407100 f   UIMenu.obj
 0001:000065d0       ?Activate@CMenuElementUI@DuiLib@@UAE_NXZ 004075d0 f   UIMenu.obj
 0001:00006810       ?GetMenuWnd@CMenuElementUI@DuiLib@@QAEPAVCMenuWnd@2@XZ 00407810 f   UIMenu.obj
 0001:00006830       ?CreateMenuWnd@CMenuElementUI@DuiLib@@QAEXXZ 00407830 f   UIMenu.obj
 0001:00007690       ??_ECMenuUI@DuiLib@@UAEPAXI@Z 00408690 f i UIMenu.obj
 0001:00007690       ??_GCMenuUI@DuiLib@@UAEPAXI@Z 00408690 f i UIMenu.obj
 0001:000076e0       ??0STRINGorID@DuiLib@@QAE@PBD@Z 004086e0 f i UIMenu.obj
 0001:00007710       ??0CMenuBuilderCallback@DuiLib@@QAE@XZ 00408710 f i UIMenu.obj
 0001:00007750       ?CreateControl@CMenuBuilderCallback@DuiLib@@EAEPAVCControlUI@2@PBD@Z 00408750 f i UIMenu.obj
 0001:000078b0       ??0IDialogBuilderCallback@DuiLib@@QAE@XZ 004088b0 f i UIMenu.obj
 0001:000078e0       ??_GCMenuElementUI@DuiLib@@UAEPAXI@Z 004088e0 f i UIMenu.obj
 0001:000078e0       ??_ECMenuElementUI@DuiLib@@UAEPAXI@Z 004088e0 f i UIMenu.obj
 0001:00007930       ?AddReceiver@?$ObserverImpl@HUContextMenuParam@DuiLib@@@@UAEXPAV?$ReceiverImplBase@HUContextMenuParam@DuiLib@@@@@Z 00408930 f i UIMenu.obj
 0001:000079a0       ?RBroadcast@?$ObserverImpl@HUContextMenuParam@DuiLib@@@@UAEHUContextMenuParam@DuiLib@@@Z 004089a0 f i UIMenu.obj
 0001:00007b20       ??0?$ReceiverImpl@HUContextMenuParam@DuiLib@@@@QAE@XZ 00408b20 f i UIMenu.obj
 0001:00007b70       ??1?$ReceiverImpl@HUContextMenuParam@DuiLib@@@@UAE@XZ 00408b70 f i UIMenu.obj
 0001:00007bb0       ?AddObserver@?$ReceiverImpl@HUContextMenuParam@DuiLib@@@@UAEXPAV?$ObserverImplBase@HUContextMenuParam@DuiLib@@@@@Z 00408bb0 f i UIMenu.obj
 0001:00007bf0       ?RemoveObserver@?$ReceiverImpl@HUContextMenuParam@DuiLib@@@@UAEXXZ 00408bf0 f i UIMenu.obj
 0001:00007d50       ?Receive@?$ReceiverImpl@HUContextMenuParam@DuiLib@@@@UAEHUContextMenuParam@DuiLib@@@Z 00408d50 f i UIMenu.obj
 0001:00007d70       ?Respond@?$ReceiverImpl@HUContextMenuParam@DuiLib@@@@UAEHUContextMenuParam@DuiLib@@PAV?$ObserverImplBase@HUContextMenuParam@DuiLib@@@@@Z 00408d70 f i UIMenu.obj
 0001:00007d90       ??0?$Iterator@HUContextMenuParam@DuiLib@@@?$ObserverImpl@HUContextMenuParam@DuiLib@@@@QAE@AAV1@@Z 00408d90 f i UIMenu.obj
 0001:00007dd0       ?next@?$Iterator@HUContextMenuParam@DuiLib@@@?$ObserverImpl@HUContextMenuParam@DuiLib@@@@QAEPAV?$ReceiverImplBase@HUContextMenuParam@DuiLib@@@@XZ 00408dd0 f i UIMenu.obj
 0001:00007e90       ??1?$reverse_iterator@V?$_Vector_iterator@V?$_Vector_val@PAV?$ReceiverImplBase@HUContextMenuParam@DuiLib@@@@V?$allocator@PAV?$ReceiverImplBase@HUContextMenuParam@DuiLib@@@@@std@@@std@@@std@@@std@@QAE@XZ 00408e90 f i UIMenu.obj
 0001:00007ec0       ??_E?$ReceiverImpl@HUContextMenuParam@DuiLib@@@@UAEPAXI@Z 00408ec0 f i UIMenu.obj
 0001:00007ec0       ??_G?$ReceiverImpl@HUContextMenuParam@DuiLib@@@@UAEPAXI@Z 00408ec0 f i UIMenu.obj
 0001:00007f10       ??0?$ReceiverImplBase@HUContextMenuParam@DuiLib@@@@QAE@XZ 00408f10 f i UIMenu.obj
 0001:00007f40       ??1?$_Vector_iterator@V?$_Vector_val@PAV?$ObserverImplBase@HUContextMenuParam@DuiLib@@@@V?$allocator@PAV?$ObserverImplBase@HUContextMenuParam@DuiLib@@@@@std@@@std@@@std@@QAE@XZ 00408f40 f i UIMenu.obj
 0001:00007f70       ??1?$_Revranit@V?$_Vector_iterator@V?$_Vector_val@PAV?$ReceiverImplBase@HUContextMenuParam@DuiLib@@@@V?$allocator@PAV?$ReceiverImplBase@HUContextMenuParam@DuiLib@@@@@std@@@std@@@std@@U?$iterator@Urandom_access_iterator_tag@std@@PAV?$ReceiverImplBase@HUContextMenuParam@DuiLib@@@@HPAPAV3@AAPAV3@@2@@std@@QAE@XZ 00408f70 f i UIMenu.obj
 0001:00007fa0       ??1?$_Vector_iterator@V?$_Vector_val@PAV?$ReceiverImplBase@HUContextMenuParam@DuiLib@@@@V?$allocator@PAV?$ReceiverImplBase@HUContextMenuParam@DuiLib@@@@@std@@@std@@@std@@QAE@XZ 00408fa0 f i UIMenu.obj
 0001:00007fd0       ??1?$_Vector_const_iterator@V?$_Vector_val@PAV?$ReceiverImplBase@HUContextMenuParam@DuiLib@@@@V?$allocator@PAV?$ReceiverImplBase@HUContextMenuParam@DuiLib@@@@@std@@@std@@@std@@QAE@XZ 00408fd0 f i UIMenu.obj
 0001:00008000       ??1?$_Iterator012@Urandom_access_iterator_tag@std@@PAV?$ReceiverImplBase@HUContextMenuParam@DuiLib@@@@HPBQAV3@ABQAV3@U_Iterator_base12@2@@std@@QAE@XZ 00409000 f i UIMenu.obj
 0001:00008030       ??1_Iterator_base12@std@@QAE@XZ 00409030 f i UIMenu.obj
 0001:00008100       ?_Orphan_me@_Iterator_base12@std@@QAEXXZ 00409100 f i UIMenu.obj
 0001:000081b0       ??1?$_Vector_const_iterator@V?$_Vector_val@PAV?$ObserverImplBase@HUContextMenuParam@DuiLib@@@@V?$allocator@PAV?$ObserverImplBase@HUContextMenuParam@DuiLib@@@@@std@@@std@@@std@@QAE@XZ 004091b0 f i UIMenu.obj
 0001:000081e0       ??1?$_Iterator012@Urandom_access_iterator_tag@std@@PAV?$ObserverImplBase@HUContextMenuParam@DuiLib@@@@HPBQAV3@ABQAV3@U_Iterator_base12@2@@std@@QAE@XZ 004091e0 f i UIMenu.obj
 0001:00008210       ?rbegin@?$vector@PAV?$ReceiverImplBase@HUContextMenuParam@DuiLib@@@@V?$allocator@PAV?$ReceiverImplBase@HUContextMenuParam@DuiLib@@@@@std@@@std@@QAE?AV?$reverse_iterator@V?$_Vector_iterator@V?$_Vector_val@PAV?$ReceiverImplBase@HUContextMenuParam@DuiLib@@@@V?$allocator@PAV?$ReceiverImplBase@HUContextMenuParam@DuiLib@@@@@std@@@std@@@std@@@2@XZ 00409210 f i UIMenu.obj
 0001:00008300       ?end@?$vector@PAV?$ReceiverImplBase@HUContextMenuParam@DuiLib@@@@V?$allocator@PAV?$ReceiverImplBase@HUContextMenuParam@DuiLib@@@@@std@@@std@@QAE?AV?$_Vector_iterator@V?$_Vector_val@PAV?$ReceiverImplBase@HUContextMenuParam@DuiLib@@@@V?$allocator@PAV?$ReceiverImplBase@HUContextMenuParam@DuiLib@@@@@std@@@std@@@2@XZ 00409300 f i UIMenu.obj
 0001:00008360       ?rend@?$vector@PAV?$ReceiverImplBase@HUContextMenuParam@DuiLib@@@@V?$allocator@PAV?$ReceiverImplBase@HUContextMenuParam@DuiLib@@@@@std@@@std@@QAE?AV?$reverse_iterator@V?$_Vector_iterator@V?$_Vector_val@PAV?$ReceiverImplBase@HUContextMenuParam@DuiLib@@@@V?$allocator@PAV?$ReceiverImplBase@HUContextMenuParam@DuiLib@@@@@std@@@std@@@std@@@2@XZ 00409360 f i UIMenu.obj
 0001:00008450       ?begin@?$vector@PAV?$ReceiverImplBase@HUContextMenuParam@DuiLib@@@@V?$allocator@PAV?$ReceiverImplBase@HUContextMenuParam@DuiLib@@@@@std@@@std@@QAE?AV?$_Vector_iterator@V?$_Vector_val@PAV?$ReceiverImplBase@HUContextMenuParam@DuiLib@@@@V?$allocator@PAV?$ReceiverImplBase@HUContextMenuParam@DuiLib@@@@@std@@@std@@@2@XZ 00409450 f i UIMenu.obj
 0001:000084b0       ?size@?$vector@PAV?$ReceiverImplBase@HUContextMenuParam@DuiLib@@@@V?$allocator@PAV?$ReceiverImplBase@HUContextMenuParam@DuiLib@@@@@std@@@std@@QBEIXZ 004094b0 f i UIMenu.obj
 0001:000084e0       ??A?$vector@PAV?$ReceiverImplBase@HUContextMenuParam@DuiLib@@@@V?$allocator@PAV?$ReceiverImplBase@HUContextMenuParam@DuiLib@@@@@std@@@std@@QAEAAPAV?$ReceiverImplBase@HUContextMenuParam@DuiLib@@@@I@Z 004094e0 f i UIMenu.obj
 0001:000085a0       ?push_back@?$vector@PAV?$ReceiverImplBase@HUContextMenuParam@DuiLib@@@@V?$allocator@PAV?$ReceiverImplBase@HUContextMenuParam@DuiLib@@@@@std@@@std@@QAEXABQAV?$ReceiverImplBase@HUContextMenuParam@DuiLib@@@@@Z 004095a0 f i UIMenu.obj
 0001:00008700       ??0?$vector@PAV?$ObserverImplBase@HUContextMenuParam@DuiLib@@@@V?$allocator@PAV?$ObserverImplBase@HUContextMenuParam@DuiLib@@@@@std@@@std@@QAE@XZ 00409700 f i UIMenu.obj
 0001:00008750       ??1?$vector@PAV?$ObserverImplBase@HUContextMenuParam@DuiLib@@@@V?$allocator@PAV?$ObserverImplBase@HUContextMenuParam@DuiLib@@@@@std@@@std@@QAE@XZ 00409750 f i UIMenu.obj
 0001:000087d0       ?begin@?$vector@PAV?$ObserverImplBase@HUContextMenuParam@DuiLib@@@@V?$allocator@PAV?$ObserverImplBase@HUContextMenuParam@DuiLib@@@@@std@@@std@@QAE?AV?$_Vector_iterator@V?$_Vector_val@PAV?$ObserverImplBase@HUContextMenuParam@DuiLib@@@@V?$allocator@PAV?$ObserverImplBase@HUContextMenuParam@DuiLib@@@@@std@@@std@@@2@XZ 004097d0 f i UIMenu.obj
 0001:00008830       ?end@?$vector@PAV?$ObserverImplBase@HUContextMenuParam@DuiLib@@@@V?$allocator@PAV?$ObserverImplBase@HUContextMenuParam@DuiLib@@@@@std@@@std@@QAE?AV?$_Vector_iterator@V?$_Vector_val@PAV?$ObserverImplBase@HUContextMenuParam@DuiLib@@@@V?$allocator@PAV?$ObserverImplBase@HUContextMenuParam@DuiLib@@@@@std@@@std@@@2@XZ 00409830 f i UIMenu.obj
 0001:00008890       ?push_back@?$vector@PAV?$ObserverImplBase@HUContextMenuParam@DuiLib@@@@V?$allocator@PAV?$ObserverImplBase@HUContextMenuParam@DuiLib@@@@@std@@@std@@QAEXABQAV?$ObserverImplBase@HUContextMenuParam@DuiLib@@@@@Z 00409890 f i UIMenu.obj
 0001:000089f0       ??E?$reverse_iterator@V?$_Vector_iterator@V?$_Vector_val@PAV?$ReceiverImplBase@HUContextMenuParam@DuiLib@@@@V?$allocator@PAV?$ReceiverImplBase@HUContextMenuParam@DuiLib@@@@@std@@@std@@@std@@@std@@QAEAAV01@XZ 004099f0 f i UIMenu.obj
 0001:00008a20       ??D?$_Revranit@V?$_Vector_iterator@V?$_Vector_val@PAV?$ReceiverImplBase@HUContextMenuParam@DuiLib@@@@V?$allocator@PAV?$ReceiverImplBase@HUContextMenuParam@DuiLib@@@@@std@@@std@@@std@@U?$iterator@Urandom_access_iterator_tag@std@@PAV?$ReceiverImplBase@HUContextMenuParam@DuiLib@@@@HPAPAV3@AAPAV3@@2@@std@@QBEAAPAV?$ReceiverImplBase@HUContextMenuParam@DuiLib@@@@XZ 00409a20 f i UIMenu.obj
 0001:00008b10       ??D?$_Vector_iterator@V?$_Vector_val@PAV?$ReceiverImplBase@HUContextMenuParam@DuiLib@@@@V?$allocator@PAV?$ReceiverImplBase@HUContextMenuParam@DuiLib@@@@@std@@@std@@@std@@QBEAAPAV?$ReceiverImplBase@HUContextMenuParam@DuiLib@@@@XZ 00409b10 f i UIMenu.obj
 0001:00008b40       ??D?$_Vector_iterator@V?$_Vector_val@PAV?$ObserverImplBase@HUContextMenuParam@DuiLib@@@@V?$allocator@PAV?$ObserverImplBase@HUContextMenuParam@DuiLib@@@@@std@@@std@@@std@@QBEAAPAV?$ObserverImplBase@HUContextMenuParam@DuiLib@@@@XZ 00409b40 f i UIMenu.obj
 0001:00008b70       ??E?$_Vector_iterator@V?$_Vector_val@PAV?$ObserverImplBase@HUContextMenuParam@DuiLib@@@@V?$allocator@PAV?$ObserverImplBase@HUContextMenuParam@DuiLib@@@@@std@@@std@@@std@@QAEAAV01@XZ 00409b70 f i UIMenu.obj
 0001:00008ba0       ??9?$_Vector_const_iterator@V?$_Vector_val@PAV?$ObserverImplBase@HUContextMenuParam@DuiLib@@@@V?$allocator@PAV?$ObserverImplBase@HUContextMenuParam@DuiLib@@@@@std@@@std@@@std@@QBE_NABV01@@Z 00409ba0 f i UIMenu.obj
 0001:00008bf0       ??0?$reverse_iterator@V?$_Vector_iterator@V?$_Vector_val@PAV?$ReceiverImplBase@HUContextMenuParam@DuiLib@@@@V?$allocator@PAV?$ReceiverImplBase@HUContextMenuParam@DuiLib@@@@@std@@@std@@@std@@@std@@QAE@ABV01@@Z 00409bf0 f i UIMenu.obj
 0001:00008c30       ??0?$_Vector_iterator@V?$_Vector_val@PAV?$ReceiverImplBase@HUContextMenuParam@DuiLib@@@@V?$allocator@PAV?$ReceiverImplBase@HUContextMenuParam@DuiLib@@@@@std@@@std@@@std@@QAE@ABV01@@Z 00409c30 f i UIMenu.obj
 0001:00008c70       ??0?$_Vector_const_iterator@V?$_Vector_val@PAV?$ReceiverImplBase@HUContextMenuParam@DuiLib@@@@V?$allocator@PAV?$ReceiverImplBase@HUContextMenuParam@DuiLib@@@@@std@@@std@@@std@@QAE@ABV01@@Z 00409c70 f i UIMenu.obj
 0001:00008cc0       ??0?$_Iterator012@Urandom_access_iterator_tag@std@@PAV?$ReceiverImplBase@HUContextMenuParam@DuiLib@@@@HPBQAV3@ABQAV3@U_Iterator_base12@2@@std@@QAE@ABU01@@Z 00409cc0 f i UIMenu.obj
 0001:00008d00       ??0_Iterator_base12@std@@QAE@ABU01@@Z 00409d00 f i UIMenu.obj
 0001:00008d50       ??4_Iterator_base12@std@@QAEAAU01@ABU01@@Z 00409d50 f i UIMenu.obj
 0001:00008da0       ?_Adopt@_Iterator_base12@std@@QAEXPBU_Container_base12@2@@Z 00409da0 f i UIMenu.obj
 0001:00008ec0       ??0?$_Revranit@V?$_Vector_iterator@V?$_Vector_val@PAV?$ReceiverImplBase@HUContextMenuParam@DuiLib@@@@V?$allocator@PAV?$ReceiverImplBase@HUContextMenuParam@DuiLib@@@@@std@@@std@@@std@@U?$iterator@Urandom_access_iterator_tag@std@@PAV?$ReceiverImplBase@HUContextMenuParam@DuiLib@@@@HPAPAV3@AAPAV3@@2@@std@@QAE@ABV01@@Z 00409ec0 f i UIMenu.obj
 0001:00008f00       ?_Inside@?$vector@PAV?$ReceiverImplBase@HUContextMenuParam@DuiLib@@@@V?$allocator@PAV?$ReceiverImplBase@HUContextMenuParam@DuiLib@@@@@std@@@std@@IBE_NPBQAV?$ReceiverImplBase@HUContextMenuParam@DuiLib@@@@@Z 00409f00 f i UIMenu.obj
 0001:00008f60       ?_Reserve@?$vector@PAV?$ReceiverImplBase@HUContextMenuParam@DuiLib@@@@V?$allocator@PAV?$ReceiverImplBase@HUContextMenuParam@DuiLib@@@@@std@@@std@@IAEXI@Z 00409f60 f i UIMenu.obj
 0001:00009000       ?_Orphan_range@?$vector@PAV?$ReceiverImplBase@HUContextMenuParam@DuiLib@@@@V?$allocator@PAV?$ReceiverImplBase@HUContextMenuParam@DuiLib@@@@@std@@@std@@IBEXPAPAV?$ReceiverImplBase@HUContextMenuParam@DuiLib@@@@0@Z 0040a000 f i UIMenu.obj
 0001:00009150       ?_Getpfirst@_Container_base12@std@@QBEPAPAU_Iterator_base12@2@XZ 0040a150 f i UIMenu.obj
 0001:000091a0       ?_Clrcont@_Iterator_base12@std@@QAEXXZ 0040a1a0 f i UIMenu.obj
 0001:000091d0       ?_Getpnext@_Iterator_base12@std@@QAEPAPAU12@XZ 0040a1d0 f i UIMenu.obj
 0001:000091f0       ?_Inside@?$vector@PAV?$ObserverImplBase@HUContextMenuParam@DuiLib@@@@V?$allocator@PAV?$ObserverImplBase@HUContextMenuParam@DuiLib@@@@@std@@@std@@IBE_NPBQAV?$ObserverImplBase@HUContextMenuParam@DuiLib@@@@@Z 0040a1f0 f i UIMenu.obj
 0001:00009250       ?_Reserve@?$vector@PAV?$ObserverImplBase@HUContextMenuParam@DuiLib@@@@V?$allocator@PAV?$ObserverImplBase@HUContextMenuParam@DuiLib@@@@@std@@@std@@IAEXI@Z 0040a250 f i UIMenu.obj
 0001:000092f0       ?_Tidy@?$vector@PAV?$ObserverImplBase@HUContextMenuParam@DuiLib@@@@V?$allocator@PAV?$ObserverImplBase@HUContextMenuParam@DuiLib@@@@@std@@@std@@IAEXXZ 0040a2f0 f i UIMenu.obj
 0001:000093a0       ?_Orphan_range@?$vector@PAV?$ObserverImplBase@HUContextMenuParam@DuiLib@@@@V?$allocator@PAV?$ObserverImplBase@HUContextMenuParam@DuiLib@@@@@std@@@std@@IBEXPAPAV?$ObserverImplBase@HUContextMenuParam@DuiLib@@@@0@Z 0040a3a0 f i UIMenu.obj
 0001:000094f0       ??0?$_Vector_val@PAV?$ObserverImplBase@HUContextMenuParam@DuiLib@@@@V?$allocator@PAV?$ObserverImplBase@HUContextMenuParam@DuiLib@@@@@std@@@std@@QAE@V?$allocator@PAV?$ObserverImplBase@HUContextMenuParam@DuiLib@@@@@1@@Z 0040a4f0 f i UIMenu.obj
 0001:00009650       ??1?$_Vector_val@PAV?$ObserverImplBase@HUContextMenuParam@DuiLib@@@@V?$allocator@PAV?$ObserverImplBase@HUContextMenuParam@DuiLib@@@@@std@@@std@@QAE@XZ 0040a650 f i UIMenu.obj
 0001:00009760       ??0?$allocator@PAV?$ObserverImplBase@HUContextMenuParam@DuiLib@@@@@std@@QAE@XZ 0040a760 f i UIMenu.obj
 0001:00009780       ??0?$_Vector_iterator@V?$_Vector_val@PAV?$ReceiverImplBase@HUContextMenuParam@DuiLib@@@@V?$allocator@PAV?$ReceiverImplBase@HUContextMenuParam@DuiLib@@@@@std@@@std@@@std@@QAE@PAPAV?$ReceiverImplBase@HUContextMenuParam@DuiLib@@@@PBU_Container_base12@1@@Z 0040a780 f i UIMenu.obj
 0001:000097c0       ??F?$_Vector_iterator@V?$_Vector_val@PAV?$ReceiverImplBase@HUContextMenuParam@DuiLib@@@@V?$allocator@PAV?$ReceiverImplBase@HUContextMenuParam@DuiLib@@@@@std@@@std@@@std@@QAEAAV01@XZ 0040a7c0 f i UIMenu.obj
 0001:000097f0       ??D?$_Vector_const_iterator@V?$_Vector_val@PAV?$ReceiverImplBase@HUContextMenuParam@DuiLib@@@@V?$allocator@PAV?$ReceiverImplBase@HUContextMenuParam@DuiLib@@@@@std@@@std@@@std@@QBEABQAV?$ReceiverImplBase@HUContextMenuParam@DuiLib@@@@XZ 0040a7f0 f i UIMenu.obj
 0001:000098e0       ?_Getcont@_Iterator_base12@std@@QBEPBU_Container_base12@2@XZ 0040a8e0 f i UIMenu.obj
 0001:00009930       ??0?$reverse_iterator@V?$_Vector_iterator@V?$_Vector_val@PAV?$ReceiverImplBase@HUContextMenuParam@DuiLib@@@@V?$allocator@PAV?$ReceiverImplBase@HUContextMenuParam@DuiLib@@@@@std@@@std@@@std@@@std@@QAE@V?$_Vector_iterator@V?$_Vector_val@PAV?$ReceiverImplBase@HUContextMenuParam@DuiLib@@@@V?$allocator@PAV?$ReceiverImplBase@HUContextMenuParam@DuiLib@@@@@std@@@std@@@1@@Z 0040a930 f i UIMenu.obj
 0001:000099e0       ??E?$_Revranit@V?$_Vector_iterator@V?$_Vector_val@PAV?$ReceiverImplBase@HUContextMenuParam@DuiLib@@@@V?$allocator@PAV?$ReceiverImplBase@HUContextMenuParam@DuiLib@@@@@std@@@std@@@std@@U?$iterator@Urandom_access_iterator_tag@std@@PAV?$ReceiverImplBase@HUContextMenuParam@DuiLib@@@@HPAPAV3@AAPAV3@@2@@std@@QAEAAV01@XZ 0040a9e0 f i UIMenu.obj
 0001:00009a10       ??0?$_Vector_iterator@V?$_Vector_val@PAV?$ObserverImplBase@HUContextMenuParam@DuiLib@@@@V?$allocator@PAV?$ObserverImplBase@HUContextMenuParam@DuiLib@@@@@std@@@std@@@std@@QAE@PAPAV?$ObserverImplBase@HUContextMenuParam@DuiLib@@@@PBU_Container_base12@1@@Z 0040aa10 f i UIMenu.obj
 0001:00009a50       ??D?$_Vector_const_iterator@V?$_Vector_val@PAV?$ObserverImplBase@HUContextMenuParam@DuiLib@@@@V?$allocator@PAV?$ObserverImplBase@HUContextMenuParam@DuiLib@@@@@std@@@std@@@std@@QBEABQAV?$ObserverImplBase@HUContextMenuParam@DuiLib@@@@XZ 0040aa50 f i UIMenu.obj
 0001:00009b40       ??E?$_Vector_const_iterator@V?$_Vector_val@PAV?$ObserverImplBase@HUContextMenuParam@DuiLib@@@@V?$allocator@PAV?$ObserverImplBase@HUContextMenuParam@DuiLib@@@@@std@@@std@@@std@@QAEAAV01@XZ 0040ab40 f i UIMenu.obj
 0001:00009c20       ??8?$_Vector_const_iterator@V?$_Vector_val@PAV?$ObserverImplBase@HUContextMenuParam@DuiLib@@@@V?$allocator@PAV?$ObserverImplBase@HUContextMenuParam@DuiLib@@@@@std@@@std@@@std@@QBE_NABV01@@Z 0040ac20 f i UIMenu.obj
 0001:00009c70       ?reserve@?$vector@PAV?$ReceiverImplBase@HUContextMenuParam@DuiLib@@@@V?$allocator@PAV?$ReceiverImplBase@HUContextMenuParam@DuiLib@@@@@std@@@std@@QAEXI@Z 0040ac70 f i UIMenu.obj
 0001:00009e40       ?_Destroy@?$vector@PAV?$ReceiverImplBase@HUContextMenuParam@DuiLib@@@@V?$allocator@PAV?$ReceiverImplBase@HUContextMenuParam@DuiLib@@@@@std@@@std@@IAEXPAPAV?$ReceiverImplBase@HUContextMenuParam@DuiLib@@@@0@Z 0040ae40 f i UIMenu.obj
 0001:00009e90       ?capacity@?$vector@PAV?$ReceiverImplBase@HUContextMenuParam@DuiLib@@@@V?$allocator@PAV?$ReceiverImplBase@HUContextMenuParam@DuiLib@@@@@std@@@std@@QBEIXZ 0040ae90 f i UIMenu.obj
 0001:00009ec0       ?max_size@?$vector@PAV?$ReceiverImplBase@HUContextMenuParam@DuiLib@@@@V?$allocator@PAV?$ReceiverImplBase@HUContextMenuParam@DuiLib@@@@@std@@@std@@QBEIXZ 0040aec0 f i UIMenu.obj
 0001:00009ef0       ?_Grow_to@?$vector@PAV?$ReceiverImplBase@HUContextMenuParam@DuiLib@@@@V?$allocator@PAV?$ReceiverImplBase@HUContextMenuParam@DuiLib@@@@@std@@@std@@IBEII@Z 0040aef0 f i UIMenu.obj
 0001:00009f90       ?_Xlen@?$vector@PAV?$ReceiverImplBase@HUContextMenuParam@DuiLib@@@@V?$allocator@PAV?$ReceiverImplBase@HUContextMenuParam@DuiLib@@@@@std@@@std@@IBEXXZ 0040af90 f i UIMenu.obj
 0001:00009fc0       ?deallocate@?$allocator@PAV?$ReceiverImplBase@HUContextMenuParam@DuiLib@@@@@std@@QAEXPAPAV?$ReceiverImplBase@HUContextMenuParam@DuiLib@@@@I@Z 0040afc0 f i UIMenu.obj
 0001:0000a000       ?reserve@?$vector@PAV?$ObserverImplBase@HUContextMenuParam@DuiLib@@@@V?$allocator@PAV?$ObserverImplBase@HUContextMenuParam@DuiLib@@@@@std@@@std@@QAEXI@Z 0040b000 f i UIMenu.obj
 0001:0000a1d0       ?capacity@?$vector@PAV?$ObserverImplBase@HUContextMenuParam@DuiLib@@@@V?$allocator@PAV?$ObserverImplBase@HUContextMenuParam@DuiLib@@@@@std@@@std@@QBEIXZ 0040b1d0 f i UIMenu.obj
 0001:0000a200       ?size@?$vector@PAV?$ObserverImplBase@HUContextMenuParam@DuiLib@@@@V?$allocator@PAV?$ObserverImplBase@HUContextMenuParam@DuiLib@@@@@std@@@std@@QBEIXZ 0040b200 f i UIMenu.obj
 0001:0000a230       ?max_size@?$vector@PAV?$ObserverImplBase@HUContextMenuParam@DuiLib@@@@V?$allocator@PAV?$ObserverImplBase@HUContextMenuParam@DuiLib@@@@@std@@@std@@QBEIXZ 0040b230 f i UIMenu.obj
 0001:0000a260       ?_Destroy@?$vector@PAV?$ObserverImplBase@HUContextMenuParam@DuiLib@@@@V?$allocator@PAV?$ObserverImplBase@HUContextMenuParam@DuiLib@@@@@std@@@std@@IAEXPAPAV?$ObserverImplBase@HUContextMenuParam@DuiLib@@@@0@Z 0040b260 f i UIMenu.obj
 0001:0000a2b0       ?_Grow_to@?$vector@PAV?$ObserverImplBase@HUContextMenuParam@DuiLib@@@@V?$allocator@PAV?$ObserverImplBase@HUContextMenuParam@DuiLib@@@@@std@@@std@@IBEII@Z 0040b2b0 f i UIMenu.obj
 0001:0000a350       ?_Xlen@?$vector@PAV?$ObserverImplBase@HUContextMenuParam@DuiLib@@@@V?$allocator@PAV?$ObserverImplBase@HUContextMenuParam@DuiLib@@@@@std@@@std@@IBEXXZ 0040b350 f i UIMenu.obj
 0001:0000a380       ??0?$allocator@PAV?$ObserverImplBase@HUContextMenuParam@DuiLib@@@@@std@@QAE@ABV01@@Z 0040b380 f i UIMenu.obj
 0001:0000a3a0       ?deallocate@?$allocator@PAV?$ObserverImplBase@HUContextMenuParam@DuiLib@@@@@std@@QAEXPAPAV?$ObserverImplBase@HUContextMenuParam@DuiLib@@@@I@Z 0040b3a0 f i UIMenu.obj
 0001:0000a3e0       ??0?$_Vector_const_iterator@V?$_Vector_val@PAV?$ReceiverImplBase@HUContextMenuParam@DuiLib@@@@V?$allocator@PAV?$ReceiverImplBase@HUContextMenuParam@DuiLib@@@@@std@@@std@@@std@@QAE@PAPAV?$ReceiverImplBase@HUContextMenuParam@DuiLib@@@@PBU_Container_base12@1@@Z 0040b3e0 f i UIMenu.obj
 0001:0000a480       ??F?$_Vector_const_iterator@V?$_Vector_val@PAV?$ReceiverImplBase@HUContextMenuParam@DuiLib@@@@V?$allocator@PAV?$ReceiverImplBase@HUContextMenuParam@DuiLib@@@@@std@@@std@@@std@@QAEAAV01@XZ 0040b480 f i UIMenu.obj
 0001:0000a570       ??0?$_Revranit@V?$_Vector_iterator@V?$_Vector_val@PAV?$ReceiverImplBase@HUContextMenuParam@DuiLib@@@@V?$allocator@PAV?$ReceiverImplBase@HUContextMenuParam@DuiLib@@@@@std@@@std@@@std@@U?$iterator@Urandom_access_iterator_tag@std@@PAV?$ReceiverImplBase@HUContextMenuParam@DuiLib@@@@HPAPAV3@AAPAV3@@2@@std@@QAE@V?$_Vector_iterator@V?$_Vector_val@PAV?$ReceiverImplBase@HUContextMenuParam@DuiLib@@@@V?$allocator@PAV?$ReceiverImplBase@HUContextMenuParam@DuiLib@@@@@std@@@std@@@1@@Z 0040b570 f i UIMenu.obj
 0001:0000a600       ??0?$_Vector_const_iterator@V?$_Vector_val@PAV?$ObserverImplBase@HUContextMenuParam@DuiLib@@@@V?$allocator@PAV?$ObserverImplBase@HUContextMenuParam@DuiLib@@@@@std@@@std@@@std@@QAE@PAPAV?$ObserverImplBase@HUContextMenuParam@DuiLib@@@@PBU_Container_base12@1@@Z 0040b600 f i UIMenu.obj
 0001:0000a6a0       ?_Compat@?$_Vector_const_iterator@V?$_Vector_val@PAV?$ObserverImplBase@HUContextMenuParam@DuiLib@@@@V?$allocator@PAV?$ObserverImplBase@HUContextMenuParam@DuiLib@@@@@std@@@std@@@std@@QBEXABV12@@Z 0040b6a0 f i UIMenu.obj
 0001:0000a770       ??0?$_Iterator012@Urandom_access_iterator_tag@std@@PAV?$ReceiverImplBase@HUContextMenuParam@DuiLib@@@@HPBQAV3@ABQAV3@U_Iterator_base12@2@@std@@QAE@XZ 0040b770 f i UIMenu.obj
 0001:0000a7a0       ??0_Iterator_base12@std@@QAE@XZ 0040b7a0 f i UIMenu.obj
 0001:0000a7e0       ??0?$_Iterator012@Urandom_access_iterator_tag@std@@PAV?$ObserverImplBase@HUContextMenuParam@DuiLib@@@@HPBQAV3@ABQAV3@U_Iterator_base12@2@@std@@QAE@XZ 0040b7e0 f i UIMenu.obj
 0001:0000a810       ?allocate@?$allocator@PAV?$ReceiverImplBase@HUContextMenuParam@DuiLib@@@@@std@@QAEPAPAV?$ReceiverImplBase@HUContextMenuParam@DuiLib@@@@I@Z 0040b810 f i UIMenu.obj
 0001:0000a850       ?max_size@?$allocator@PAV?$ReceiverImplBase@HUContextMenuParam@DuiLib@@@@@std@@QBEIXZ 0040b850 f i UIMenu.obj
 0001:0000a8b0       ?allocate@?$allocator@PAV?$ObserverImplBase@HUContextMenuParam@DuiLib@@@@@std@@QAEPAPAV?$ObserverImplBase@HUContextMenuParam@DuiLib@@@@I@Z 0040b8b0 f i UIMenu.obj
 0001:0000a8f0       ?max_size@?$allocator@PAV?$ObserverImplBase@HUContextMenuParam@DuiLib@@@@@std@@QBEIXZ 0040b8f0 f i UIMenu.obj
 0001:0000a950       ??$?9V?$_Vector_iterator@V?$_Vector_val@PAV?$ReceiverImplBase@HUContextMenuParam@DuiLib@@@@V?$allocator@PAV?$ReceiverImplBase@HUContextMenuParam@DuiLib@@@@@std@@@std@@@std@@V01@@std@@YA_NABV?$reverse_iterator@V?$_Vector_iterator@V?$_Vector_val@PAV?$ReceiverImplBase@HUContextMenuParam@DuiLib@@@@V?$allocator@PAV?$ReceiverImplBase@HUContextMenuParam@DuiLib@@@@@std@@@std@@@std@@@0@0@Z 0040b950 f i UIMenu.obj
 0001:0000a980       ??$addressof@QAV?$ReceiverImplBase@HUContextMenuParam@DuiLib@@@@@std@@YAPBQAV?$ReceiverImplBase@HUContextMenuParam@DuiLib@@@@ABQAV1@@Z 0040b980 f i UIMenu.obj
 0001:0000a990       ??$_Cons_val@V?$allocator@PAV?$ReceiverImplBase@HUContextMenuParam@DuiLib@@@@@std@@PAV?$ReceiverImplBase@HUContextMenuParam@DuiLib@@@@AAPAV3@@std@@YAXAAV?$allocator@PAV?$ReceiverImplBase@HUContextMenuParam@DuiLib@@@@@0@PAPAV?$ReceiverImplBase@HUContextMenuParam@DuiLib@@@@AAPAV2@@Z 0040b990 f i UIMenu.obj
 0001:0000a9c0       ??$_Cons_val@V?$allocator@PAV?$ReceiverImplBase@HUContextMenuParam@DuiLib@@@@@std@@PAV?$ReceiverImplBase@HUContextMenuParam@DuiLib@@@@ABQAV3@@std@@YAXAAV?$allocator@PAV?$ReceiverImplBase@HUContextMenuParam@DuiLib@@@@@0@PAPAV?$ReceiverImplBase@HUContextMenuParam@DuiLib@@@@ABQAV2@@Z 0040b9c0 f i UIMenu.obj
 0001:0000a9f0       ??$addressof@QAV?$ObserverImplBase@HUContextMenuParam@DuiLib@@@@@std@@YAPBQAV?$ObserverImplBase@HUContextMenuParam@DuiLib@@@@ABQAV1@@Z 0040b9f0 f i UIMenu.obj
 0001:0000aa00       ??$_Cons_val@V?$allocator@PAV?$ObserverImplBase@HUContextMenuParam@DuiLib@@@@@std@@PAV?$ObserverImplBase@HUContextMenuParam@DuiLib@@@@AAPAV3@@std@@YAXAAV?$allocator@PAV?$ObserverImplBase@HUContextMenuParam@DuiLib@@@@@0@PAPAV?$ObserverImplBase@HUContextMenuParam@DuiLib@@@@AAPAV2@@Z 0040ba00 f i UIMenu.obj
 0001:0000aa30       ??$_Cons_val@V?$allocator@PAV?$ObserverImplBase@HUContextMenuParam@DuiLib@@@@@std@@PAV?$ObserverImplBase@HUContextMenuParam@DuiLib@@@@ABQAV3@@std@@YAXAAV?$allocator@PAV?$ObserverImplBase@HUContextMenuParam@DuiLib@@@@@0@PAPAV?$ObserverImplBase@HUContextMenuParam@DuiLib@@@@ABQAV2@@Z 0040ba30 f i UIMenu.obj
 0001:0000aa60       ??$_Destroy_range@V?$allocator@PAV?$ReceiverImplBase@HUContextMenuParam@DuiLib@@@@@std@@@std@@YAXPAPAV?$ReceiverImplBase@HUContextMenuParam@DuiLib@@@@0AAV?$allocator@PAV?$ReceiverImplBase@HUContextMenuParam@DuiLib@@@@@0@@Z 0040ba60 f i UIMenu.obj
 0001:0000aac0       ??$?0PAV?$ObserverImplBase@HUContextMenuParam@DuiLib@@@@@?$allocator@U_Container_proxy@std@@@std@@QAE@ABV?$allocator@PAV?$ObserverImplBase@HUContextMenuParam@DuiLib@@@@@1@@Z 0040bac0 f i UIMenu.obj
 0001:0000aae0       ??$_Umove@PAPAV?$ReceiverImplBase@HUContextMenuParam@DuiLib@@@@@?$vector@PAV?$ReceiverImplBase@HUContextMenuParam@DuiLib@@@@V?$allocator@PAV?$ReceiverImplBase@HUContextMenuParam@DuiLib@@@@@std@@@std@@IAEPAPAV?$ReceiverImplBase@HUContextMenuParam@DuiLib@@@@PAPAV2@00@Z 0040bae0 f i UIMenu.obj
 0001:0000ab30       ??$_Umove@PAPAV?$ObserverImplBase@HUContextMenuParam@DuiLib@@@@@?$vector@PAV?$ObserverImplBase@HUContextMenuParam@DuiLib@@@@V?$allocator@PAV?$ObserverImplBase@HUContextMenuParam@DuiLib@@@@@std@@@std@@IAEPAPAV?$ObserverImplBase@HUContextMenuParam@DuiLib@@@@PAPAV2@00@Z 0040bb30 f i UIMenu.obj
 0001:0000ab80       ??$_Destroy_range@V?$allocator@PAV?$ObserverImplBase@HUContextMenuParam@DuiLib@@@@@std@@@std@@YAXPAPAV?$ObserverImplBase@HUContextMenuParam@DuiLib@@@@0AAV?$allocator@PAV?$ObserverImplBase@HUContextMenuParam@DuiLib@@@@@0@@Z 0040bb80 f i UIMenu.obj
 0001:0000abe0       ??$_Allocate@PAV?$ReceiverImplBase@HUContextMenuParam@DuiLib@@@@@std@@YAPAPAV?$ReceiverImplBase@HUContextMenuParam@DuiLib@@@@IPAPAV1@@Z 0040bbe0 f i UIMenu.obj
 0001:0000ac80       ??$_Allocate@PAV?$ObserverImplBase@HUContextMenuParam@DuiLib@@@@@std@@YAPAPAV?$ObserverImplBase@HUContextMenuParam@DuiLib@@@@IPAPAV1@@Z 0040bc80 f i UIMenu.obj
 0001:0000ad20       ?construct@?$allocator@PAV?$ReceiverImplBase@HUContextMenuParam@DuiLib@@@@@std@@QAEXPAPAV?$ReceiverImplBase@HUContextMenuParam@DuiLib@@@@ABQAV3@@Z 0040bd20 f i UIMenu.obj
 0001:0000ad60       ?construct@?$allocator@PAV?$ObserverImplBase@HUContextMenuParam@DuiLib@@@@@std@@QAEXPAPAV?$ObserverImplBase@HUContextMenuParam@DuiLib@@@@ABQAV3@@Z 0040bd60 f i UIMenu.obj
 0001:0000ada0       ??$?8V?$_Vector_iterator@V?$_Vector_val@PAV?$ReceiverImplBase@HUContextMenuParam@DuiLib@@@@V?$allocator@PAV?$ReceiverImplBase@HUContextMenuParam@DuiLib@@@@@std@@@std@@@std@@V01@@std@@YA_NABV?$reverse_iterator@V?$_Vector_iterator@V?$_Vector_val@PAV?$ReceiverImplBase@HUContextMenuParam@DuiLib@@@@V?$allocator@PAV?$ReceiverImplBase@HUContextMenuParam@DuiLib@@@@@std@@@std@@@std@@@0@0@Z 0040bda0 f i UIMenu.obj
 0001:0000adc0       ??$forward@AAPAV?$ReceiverImplBase@HUContextMenuParam@DuiLib@@@@@std@@YAAAPAV?$ReceiverImplBase@HUContextMenuParam@DuiLib@@@@AAPAV1@@Z 0040bdc0 f i UIMenu.obj
 0001:0000add0       ??$construct@AAPAV?$ReceiverImplBase@HUContextMenuParam@DuiLib@@@@@?$allocator@PAV?$ReceiverImplBase@HUContextMenuParam@DuiLib@@@@@std@@QAEXPAPAV?$ReceiverImplBase@HUContextMenuParam@DuiLib@@@@AAPAV2@@Z 0040bdd0 f i UIMenu.obj
 0001:0000aea0       ??$forward@ABQAV?$ReceiverImplBase@HUContextMenuParam@DuiLib@@@@@std@@YAABQAV?$ReceiverImplBase@HUContextMenuParam@DuiLib@@@@ABQAV1@@Z 0040bea0 f i UIMenu.obj
 0001:0000aeb0       ??$_Ptr_cat@PAV?$ReceiverImplBase@HUContextMenuParam@DuiLib@@@@PAV1@@std@@YA?AU_Scalar_ptr_iterator_tag@0@PAPAV?$ReceiverImplBase@HUContextMenuParam@DuiLib@@@@0@Z 0040beb0 f i UIMenu.obj
 0001:0000af10       ??$forward@AAPAV?$ObserverImplBase@HUContextMenuParam@DuiLib@@@@@std@@YAAAPAV?$ObserverImplBase@HUContextMenuParam@DuiLib@@@@AAPAV1@@Z 0040bf10 f i UIMenu.obj
 0001:0000af20       ??$construct@AAPAV?$ObserverImplBase@HUContextMenuParam@DuiLib@@@@@?$allocator@PAV?$ObserverImplBase@HUContextMenuParam@DuiLib@@@@@std@@QAEXPAPAV?$ObserverImplBase@HUContextMenuParam@DuiLib@@@@AAPAV2@@Z 0040bf20 f i UIMenu.obj
 0001:0000aff0       ??$forward@ABQAV?$ObserverImplBase@HUContextMenuParam@DuiLib@@@@@std@@YAABQAV?$ObserverImplBase@HUContextMenuParam@DuiLib@@@@ABQAV1@@Z 0040bff0 f i UIMenu.obj
 0001:0000b000       ??$_Destroy_range@V?$allocator@PAV?$ReceiverImplBase@HUContextMenuParam@DuiLib@@@@@std@@@std@@YAXPAPAV?$ReceiverImplBase@HUContextMenuParam@DuiLib@@@@0AAV?$allocator@PAV?$ReceiverImplBase@HUContextMenuParam@DuiLib@@@@@0@U_Scalar_ptr_iterator_tag@0@@Z 0040c000 f i UIMenu.obj
 0001:0000b010       ??$_Uninitialized_move@PAPAV?$ReceiverImplBase@HUContextMenuParam@DuiLib@@@@PAPAV1@V?$allocator@PAV?$ReceiverImplBase@HUContextMenuParam@DuiLib@@@@@std@@@std@@YAPAPAV?$ReceiverImplBase@HUContextMenuParam@DuiLib@@@@PAPAV1@00AAV?$allocator@PAV?$ReceiverImplBase@HUContextMenuParam@DuiLib@@@@@0@@Z 0040c010 f i UIMenu.obj
 0001:0000b080       ??$_Uninitialized_move@PAPAV?$ObserverImplBase@HUContextMenuParam@DuiLib@@@@PAPAV1@V?$allocator@PAV?$ObserverImplBase@HUContextMenuParam@DuiLib@@@@@std@@@std@@YAPAPAV?$ObserverImplBase@HUContextMenuParam@DuiLib@@@@PAPAV1@00AAV?$allocator@PAV?$ObserverImplBase@HUContextMenuParam@DuiLib@@@@@0@@Z 0040c080 f i UIMenu.obj
 0001:0000b0f0       ??$_Ptr_cat@PAV?$ObserverImplBase@HUContextMenuParam@DuiLib@@@@PAV1@@std@@YA?AU_Scalar_ptr_iterator_tag@0@PAPAV?$ObserverImplBase@HUContextMenuParam@DuiLib@@@@0@Z 0040c0f0 f i UIMenu.obj
 0001:0000b150       ??$_Destroy_range@V?$allocator@PAV?$ObserverImplBase@HUContextMenuParam@DuiLib@@@@@std@@@std@@YAXPAPAV?$ObserverImplBase@HUContextMenuParam@DuiLib@@@@0AAV?$allocator@PAV?$ObserverImplBase@HUContextMenuParam@DuiLib@@@@@0@U_Scalar_ptr_iterator_tag@0@@Z 0040c150 f i UIMenu.obj
 0001:0000b160       ??$_Construct@PAV?$ReceiverImplBase@HUContextMenuParam@DuiLib@@@@ABQAV1@@std@@YAXPAPAV?$ReceiverImplBase@HUContextMenuParam@DuiLib@@@@ABQAV1@@Z 0040c160 f i UIMenu.obj
 0001:0000b230       ??$_Construct@PAV?$ObserverImplBase@HUContextMenuParam@DuiLib@@@@ABQAV1@@std@@YAXPAPAV?$ObserverImplBase@HUContextMenuParam@DuiLib@@@@ABQAV1@@Z 0040c230 f i UIMenu.obj
 0001:0000b300       ??$_Equal@V?$_Vector_iterator@V?$_Vector_val@PAV?$ReceiverImplBase@HUContextMenuParam@DuiLib@@@@V?$allocator@PAV?$ReceiverImplBase@HUContextMenuParam@DuiLib@@@@@std@@@std@@@std@@U?$iterator@Urandom_access_iterator_tag@std@@PAV?$ReceiverImplBase@HUContextMenuParam@DuiLib@@@@HPAPAV3@AAPAV3@@2@@?$_Revranit@V?$_Vector_iterator@V?$_Vector_val@PAV?$ReceiverImplBase@HUContextMenuParam@DuiLib@@@@V?$allocator@PAV?$ReceiverImplBase@HUContextMenuParam@DuiLib@@@@@std@@@std@@@std@@U?$iterator@Urandom_access_iterator_tag@std@@PAV?$ReceiverImplBase@HUContextMenuParam@DuiLib@@@@HPAPAV3@AAPAV3@@2@@std@@QBE_NABV01@@Z 0040c300 f i UIMenu.obj
 0001:0000b3c0       ??8?$_Vector_const_iterator@V?$_Vector_val@PAV?$ReceiverImplBase@HUContextMenuParam@DuiLib@@@@V?$allocator@PAV?$ReceiverImplBase@HUContextMenuParam@DuiLib@@@@@std@@@std@@@std@@QBE_NABV01@@Z 0040c3c0 f i UIMenu.obj
 0001:0000b410       ?_Compat@?$_Vector_const_iterator@V?$_Vector_val@PAV?$ReceiverImplBase@HUContextMenuParam@DuiLib@@@@V?$allocator@PAV?$ReceiverImplBase@HUContextMenuParam@DuiLib@@@@@std@@@std@@@std@@QBEXABV12@@Z 0040c410 f i UIMenu.obj
 0001:0000b4e0       ??$_Val_type@PAPAV?$ReceiverImplBase@HUContextMenuParam@DuiLib@@@@@std@@YAPAPAV?$ReceiverImplBase@HUContextMenuParam@DuiLib@@@@PAPAV1@@Z 0040c4e0 f i UIMenu.obj
 0001:0000b4f0       ??$_Uninit_move@PAV?$ReceiverImplBase@HUContextMenuParam@DuiLib@@@@PAV1@PAV1@@std@@YAPAPAV?$ReceiverImplBase@HUContextMenuParam@DuiLib@@@@PAPAV1@00AAV?$allocator@PAV?$ReceiverImplBase@HUContextMenuParam@DuiLib@@@@@0@0U_Scalar_ptr_iterator_tag@0@@Z 0040c4f0 f i UIMenu.obj
 0001:0000b580       ??$_Val_type@PAPAV?$ObserverImplBase@HUContextMenuParam@DuiLib@@@@@std@@YAPAPAV?$ObserverImplBase@HUContextMenuParam@DuiLib@@@@PAPAV1@@Z 0040c580 f i UIMenu.obj
 0001:0000b590       ??$_Uninit_move@PAV?$ObserverImplBase@HUContextMenuParam@DuiLib@@@@PAV1@PAV1@@std@@YAPAPAV?$ObserverImplBase@HUContextMenuParam@DuiLib@@@@PAPAV1@00AAV?$allocator@PAV?$ObserverImplBase@HUContextMenuParam@DuiLib@@@@@0@0U_Scalar_ptr_iterator_tag@0@@Z 0040c590 f i UIMenu.obj
 0001:0000b620       ?base@?$_Revranit@V?$_Vector_iterator@V?$_Vector_val@PAV?$ReceiverImplBase@HUContextMenuParam@DuiLib@@@@V?$allocator@PAV?$ReceiverImplBase@HUContextMenuParam@DuiLib@@@@@std@@@std@@@std@@U?$iterator@Urandom_access_iterator_tag@std@@PAV?$ReceiverImplBase@HUContextMenuParam@DuiLib@@@@HPAPAV3@AAPAV3@@2@@std@@QBE?AV?$_Vector_iterator@V?$_Vector_val@PAV?$ReceiverImplBase@HUContextMenuParam@DuiLib@@@@V?$allocator@PAV?$ReceiverImplBase@HUContextMenuParam@DuiLib@@@@@std@@@std@@@2@XZ 0040c620 f i UIMenu.obj
 0001:0000b680       ??$_Debug_range@PAPAV?$ReceiverImplBase@HUContextMenuParam@DuiLib@@@@@std@@YAXPAPAV?$ReceiverImplBase@HUContextMenuParam@DuiLib@@@@0PB_WI@Z 0040c680 f i UIMenu.obj
 0001:0000b6e0       ??$_Debug_pointer@PAV?$ReceiverImplBase@HUContextMenuParam@DuiLib@@@@@std@@YAXPAPAV?$ReceiverImplBase@HUContextMenuParam@DuiLib@@@@PB_WI@Z 0040c6e0 f i UIMenu.obj
 0001:0000b710       ??$_Debug_range@PAPAV?$ObserverImplBase@HUContextMenuParam@DuiLib@@@@@std@@YAXPAPAV?$ObserverImplBase@HUContextMenuParam@DuiLib@@@@0PB_WI@Z 0040c710 f i UIMenu.obj
 0001:0000b770       ??$_Debug_pointer@PAV?$ObserverImplBase@HUContextMenuParam@DuiLib@@@@@std@@YAXPAPAV?$ObserverImplBase@HUContextMenuParam@DuiLib@@@@PB_WI@Z 0040c770 f i UIMenu.obj
 0001:0000b7a0       ??$_Iter_cat@PAPAV?$ReceiverImplBase@HUContextMenuParam@DuiLib@@@@@std@@YA?AUrandom_access_iterator_tag@0@ABQAPAV?$ReceiverImplBase@HUContextMenuParam@DuiLib@@@@@Z 0040c7a0 f i UIMenu.obj
 0001:0000b810       ??$_Debug_range2@PAPAV?$ReceiverImplBase@HUContextMenuParam@DuiLib@@@@@std@@YAXPAPAV?$ReceiverImplBase@HUContextMenuParam@DuiLib@@@@0PB_WIUrandom_access_iterator_tag@0@@Z 0040c810 f i UIMenu.obj
 0001:0000b880       ??$_Iter_cat@PAPAV?$ObserverImplBase@HUContextMenuParam@DuiLib@@@@@std@@YA?AUrandom_access_iterator_tag@0@ABQAPAV?$ObserverImplBase@HUContextMenuParam@DuiLib@@@@@Z 0040c880 f i UIMenu.obj
 0001:0000b8f0       ??$_Debug_range2@PAPAV?$ObserverImplBase@HUContextMenuParam@DuiLib@@@@@std@@YAXPAPAV?$ObserverImplBase@HUContextMenuParam@DuiLib@@@@0PB_WIUrandom_access_iterator_tag@0@@Z 0040c8f0 f i UIMenu.obj
 0001:0000b960       ?DoEvent@CMenuUI@DuiLib@@WCJE@AEXAAUtagTEventUI@2@@Z 0040c960 f i UIMenu.obj
 0001:0000b970       ??_ECMenuWnd@DuiLib@@WBA@AEPAXI@Z 0040c970 f i UIMenu.obj
 0001:0000b980       ??_ECMenuWnd@DuiLib@@UAEPAXI@Z 0040c980 f i UIMenu.obj
 0001:0000b980       ??_GCMenuWnd@DuiLib@@UAEPAXI@Z 0040c980 f i UIMenu.obj
 0001:0000b9d0       ??1CMenuWnd@DuiLib@@UAE@XZ 0040c9d0 f i UIMenu.obj
 0001:0000ba90       ??0?$ObserverImpl@HUContextMenuParam@DuiLib@@@@QAE@XZ 0040ca90 f i UIMenu.obj
 0001:0000bae0       ?RemoveReceiver@?$ObserverImpl@HUContextMenuParam@DuiLib@@@@UAEXPAV?$ReceiverImplBase@HUContextMenuParam@DuiLib@@@@@Z 0040cae0 f i UIMenu.obj
 0001:0000bc70       ?Broadcast@?$ObserverImpl@HUContextMenuParam@DuiLib@@@@UAEHUContextMenuParam@DuiLib@@@Z 0040cc70 f i UIMenu.obj
 0001:0000bde0       ?Notify@?$ObserverImpl@HUContextMenuParam@DuiLib@@@@UAEHUContextMenuParam@DuiLib@@@Z 0040cde0 f i UIMenu.obj
 0001:0000bf60       ??_G?$ObserverImpl@HUContextMenuParam@DuiLib@@@@UAEPAXI@Z 0040cf60 f i UIMenu.obj
 0001:0000bf60       ??_E?$ObserverImpl@HUContextMenuParam@DuiLib@@@@UAEPAXI@Z 0040cf60 f i UIMenu.obj
 0001:0000bfb0       ??1?$ObserverImpl@HUContextMenuParam@DuiLib@@@@UAE@XZ 0040cfb0 f i UIMenu.obj
 0001:0000bff0       ??0?$ObserverImplBase@HUContextMenuParam@DuiLib@@@@QAE@XZ 0040cff0 f i UIMenu.obj
 0001:0000c020       ??0?$vector@PAV?$ReceiverImplBase@HUContextMenuParam@DuiLib@@@@V?$allocator@PAV?$ReceiverImplBase@HUContextMenuParam@DuiLib@@@@@std@@@std@@QAE@XZ 0040d020 f i UIMenu.obj
 0001:0000c070       ??1?$vector@PAV?$ReceiverImplBase@HUContextMenuParam@DuiLib@@@@V?$allocator@PAV?$ReceiverImplBase@HUContextMenuParam@DuiLib@@@@@std@@@std@@QAE@XZ 0040d070 f i UIMenu.obj
 0001:0000c0f0       ?erase@?$vector@PAV?$ReceiverImplBase@HUContextMenuParam@DuiLib@@@@V?$allocator@PAV?$ReceiverImplBase@HUContextMenuParam@DuiLib@@@@@std@@@std@@QAE?AV?$_Vector_iterator@V?$_Vector_val@PAV?$ReceiverImplBase@HUContextMenuParam@DuiLib@@@@V?$allocator@PAV?$ReceiverImplBase@HUContextMenuParam@DuiLib@@@@@std@@@std@@@2@V?$_Vector_const_iterator@V?$_Vector_val@PAV?$ReceiverImplBase@HUContextMenuParam@DuiLib@@@@V?$allocator@PAV?$ReceiverImplBase@HUContextMenuParam@DuiLib@@@@@std@@@std@@@2@@Z 0040d0f0 f i UIMenu.obj
 0001:0000c270       ??E?$_Vector_iterator@V?$_Vector_val@PAV?$ReceiverImplBase@HUContextMenuParam@DuiLib@@@@V?$allocator@PAV?$ReceiverImplBase@HUContextMenuParam@DuiLib@@@@@std@@@std@@@std@@QAEAAV01@XZ 0040d270 f i UIMenu.obj
 0001:0000c2a0       ??9?$_Vector_const_iterator@V?$_Vector_val@PAV?$ReceiverImplBase@HUContextMenuParam@DuiLib@@@@V?$allocator@PAV?$ReceiverImplBase@HUContextMenuParam@DuiLib@@@@@std@@@std@@@std@@QBE_NABV01@@Z 0040d2a0 f i UIMenu.obj
 0001:0000c2f0       ?_Make_iter@?$vector@PAV?$ReceiverImplBase@HUContextMenuParam@DuiLib@@@@V?$allocator@PAV?$ReceiverImplBase@HUContextMenuParam@DuiLib@@@@@std@@@std@@QBE?AV?$_Vector_iterator@V?$_Vector_val@PAV?$ReceiverImplBase@HUContextMenuParam@DuiLib@@@@V?$allocator@PAV?$ReceiverImplBase@HUContextMenuParam@DuiLib@@@@@std@@@std@@@2@V?$_Vector_const_iterator@V?$_Vector_val@PAV?$ReceiverImplBase@HUContextMenuParam@DuiLib@@@@V?$allocator@PAV?$ReceiverImplBase@HUContextMenuParam@DuiLib@@@@@std@@@std@@@2@@Z 0040d2f0 f i UIMenu.obj
 0001:0000c3a0       ?_Tidy@?$vector@PAV?$ReceiverImplBase@HUContextMenuParam@DuiLib@@@@V?$allocator@PAV?$ReceiverImplBase@HUContextMenuParam@DuiLib@@@@@std@@@std@@IAEXXZ 0040d3a0 f i UIMenu.obj
 0001:0000c450       ??0?$_Vector_val@PAV?$ReceiverImplBase@HUContextMenuParam@DuiLib@@@@V?$allocator@PAV?$ReceiverImplBase@HUContextMenuParam@DuiLib@@@@@std@@@std@@QAE@V?$allocator@PAV?$ReceiverImplBase@HUContextMenuParam@DuiLib@@@@@1@@Z 0040d450 f i UIMenu.obj
 0001:0000c5b0       ??1?$_Vector_val@PAV?$ReceiverImplBase@HUContextMenuParam@DuiLib@@@@V?$allocator@PAV?$ReceiverImplBase@HUContextMenuParam@DuiLib@@@@@std@@@std@@QAE@XZ 0040d5b0 f i UIMenu.obj
 0001:0000c6c0       ??0?$allocator@PAV?$ReceiverImplBase@HUContextMenuParam@DuiLib@@@@@std@@QAE@XZ 0040d6c0 f i UIMenu.obj
 0001:0000c6e0       ??E?$_Vector_const_iterator@V?$_Vector_val@PAV?$ReceiverImplBase@HUContextMenuParam@DuiLib@@@@V?$allocator@PAV?$ReceiverImplBase@HUContextMenuParam@DuiLib@@@@@std@@@std@@@std@@QAEAAV01@XZ 0040d6e0 f i UIMenu.obj
 0001:0000c7c0       ??0?$allocator@PAV?$ReceiverImplBase@HUContextMenuParam@DuiLib@@@@@std@@QAE@ABV01@@Z 0040d7c0 f i UIMenu.obj
 0001:0000c7e0       ??$_Move@PAPAV?$ReceiverImplBase@HUContextMenuParam@DuiLib@@@@PAPAV1@@std@@YAPAPAV?$ReceiverImplBase@HUContextMenuParam@DuiLib@@@@PAPAV1@00@Z 0040d7e0 f i UIMenu.obj
 0001:0000c840       ??$?0PAV?$ReceiverImplBase@HUContextMenuParam@DuiLib@@@@@?$allocator@U_Container_proxy@std@@@std@@QAE@ABV?$allocator@PAV?$ReceiverImplBase@HUContextMenuParam@DuiLib@@@@@1@@Z 0040d840 f i UIMenu.obj
 0001:0000c860       ??$_Move@PAPAV?$ReceiverImplBase@HUContextMenuParam@DuiLib@@@@PAPAV1@@std@@YAPAPAV?$ReceiverImplBase@HUContextMenuParam@DuiLib@@@@PAPAV1@00U_Scalar_ptr_iterator_tag@0@@Z 0040d860 f i UIMenu.obj
 0001:0000c8c0       ??0WindowImplBase@@QAE@XZ  0040d8c0 f   win_impl_base.obj
 0001:0000c950       ??1WindowImplBase@@UAE@XZ  0040d950 f   win_impl_base.obj
 0001:0000c9b0       ?GetClassStyle@WindowImplBase@@UBEIXZ 0040d9b0 f   win_impl_base.obj
 0001:0000c9d0       ?CreateControl@WindowImplBase@@UAEPAVCControlUI@DuiLib@@PBD@Z 0040d9d0 f   win_impl_base.obj
 0001:0000c9f0       ?OnFinalMessage@WindowImplBase@@UAEXPAUHWND__@@@Z 0040d9f0 f   win_impl_base.obj
 0001:0000cab0       ?Init@WindowImplBase@@UAEXXZ 0040dab0 f   win_impl_base.obj
 0001:0000cad0       ?OnClose@WindowImplBase@@UAEJIIJAAH@Z 0040dad0 f   win_impl_base.obj
 0001:0000caf0       ?OnDestroy@WindowImplBase@@UAEJIIJAAH@Z 0040daf0 f   win_impl_base.obj
 0001:0000cb10       ?OnNcActivate@WindowImplBase@@UAEJIIJAAH@Z 0040db10 f   win_impl_base.obj
 0001:0000cb70       ?OnNcCalcSize@WindowImplBase@@UAEJIIJAAH@Z 0040db70 f   win_impl_base.obj
 0001:0000cb90       ?OnNcPaint@WindowImplBase@@UAEJIIJAAH@Z 0040db90 f   win_impl_base.obj
 0001:0000cbb0       ?OnNcHitTest@WindowImplBase@@UAEJIIJAAH@Z 0040dbb0 f   win_impl_base.obj
 0001:0000ceb0       ?OnGetMinMaxInfo@WindowImplBase@@UAEJIIJAAH@Z 0040deb0 f   win_impl_base.obj
 0001:0000d000       ?OnMouseWheel@WindowImplBase@@UAEJIIJAAH@Z 0040e000 f   win_impl_base.obj
 0001:0000d020       ?OnSetFocus@WindowImplBase@@UAEJIIJAAH@Z 0040e020 f   win_impl_base.obj
 0001:0000d040       ?OnLButtonDown@WindowImplBase@@UAEJIIJAAH@Z 0040e040 f   win_impl_base.obj
 0001:0000d060       ?OnMouseMove@WindowImplBase@@UAEJIIJAAH@Z 0040e060 f   win_impl_base.obj
 0001:0000d080       ?OnLButtonUp@WindowImplBase@@UAEJIIJAAH@Z 0040e080 f   win_impl_base.obj
 0001:0000d0a0       ?OnKeyDown@WindowImplBase@@UAEJIIJAAH@Z 0040e0a0 f   win_impl_base.obj
 0001:0000d0c0       ?OnKillFocus@WindowImplBase@@UAEJIIJAAH@Z 0040e0c0 f   win_impl_base.obj
 0001:0000d0e0       ?OnSize@WindowImplBase@@UAEJIIJAAH@Z 0040e0e0 f   win_impl_base.obj
 0001:0000d2a0       ?OnSysCommand@WindowImplBase@@UAEJIIJAAH@Z 0040e2a0 f   win_impl_base.obj
 0001:0000d360       ?GetStyle@WindowImplBase@@UAEJXZ 0040e360 f   win_impl_base.obj
 0001:0000d3c0       ?OnCreate@WindowImplBase@@UAEJIIJAAH@Z 0040e3c0 f   win_impl_base.obj
 0001:0000d760       ?HandleCustomMessage@WindowImplBase@@UAEJIIJAAH@Z 0040e760 f   win_impl_base.obj
 0001:0000d780       ?HandleMessage@WindowImplBase@@UAEJIIJ@Z 0040e780 f   win_impl_base.obj
 0001:0000dde0       ?MessageHandler@WindowImplBase@@UAEJIIJAA_N@Z 0040ede0 f   win_impl_base.obj
 0001:0000de50       ?ResponseDefaultKeyEvent@WindowImplBase@@MAEJI@Z 0040ee50 f   win_impl_base.obj
 0001:0000e420       ??_GWindowImplBase@@UAEPAXI@Z 0040f420 f i win_impl_base.obj
 0001:0000e420       ??_EWindowImplBase@@UAEPAXI@Z 0040f420 f i win_impl_base.obj
 0001:0000e470       ??0INotifyUI@DuiLib@@QAE@XZ 0040f470 f i win_impl_base.obj
 0001:0000e4a0       ??0IMessageFilterUI@DuiLib@@QAE@XZ 0040f4a0 f i win_impl_base.obj
 0001:0000e4d0       ?c_str@?$basic_string@DU?$char_traits@D@std@@V?$allocator@D@2@@std@@QBEPBDXZ 0040f4d0 f i win_impl_base.obj
 0001:0000e500       _WinMain@16                0040f500 f   main.obj
 0001:0000e666       _InitializeCriticalSection@4 0040f666 f   kernel32:KERNEL32.dll
 0001:0000e66c       _GetVersionExA@4           0040f66c f   kernel32:KERNEL32.dll
 0001:0000e672       _DeleteCriticalSection@4   0040f672 f   kernel32:KERNEL32.dll
 0001:0000e678       _EnterCriticalSection@4    0040f678 f   kernel32:KERNEL32.dll
 0001:0000e67e       _LeaveCriticalSection@4    0040f67e f   kernel32:KERNEL32.dll
 0001:0000e684       _OutputDebugStringA@4      0040f684 f   kernel32:KERNEL32.dll
 0001:0000e68a       _GetTickCount@0            0040f68a f   kernel32:KERNEL32.dll
 0001:0000e690       _GetLocalTime@4            0040f690 f   kernel32:KERNEL32.dll
 0001:0000e696       _PostQuitMessage@4         0040f696 f   user32:USER32.dll
 0001:0000e69c       _IsZoomed@4                0040f69c f   user32:USER32.dll
 0001:0000e6a2       _ClientToScreen@8          0040f6a2 f   user32:USER32.dll
 0001:0000e6a8       _GetParent@4               0040f6a8 f   user32:USER32.dll
 0001:0000e6ae       _SendMessageA@16           0040f6ae f   user32:USER32.dll
 0001:0000e6b4       _ShowWindow@8              0040f6b4 f   user32:USER32.dll
 0001:0000e6ba       _SetForegroundWindow@4     0040f6ba f   user32:USER32.dll
 0001:0000e6c0       _MoveWindow@24             0040f6c0 f   user32:USER32.dll
 0001:0000e6c6       _MapWindowPoints@16        0040f6c6 f   user32:USER32.dll
 0001:0000e6cc       _GetWindowRect@8           0040f6cc f   user32:USER32.dll
 0001:0000e6d2       _GetMonitorInfoA@8         0040f6d2 f   user32:USER32.dll
 0001:0000e6d8       _MonitorFromWindow@8       0040f6d8 f   user32:USER32.dll
 0001:0000e6de       _SetWindowPos@28           0040f6de f   user32:USER32.dll
 0001:0000e6e4       _GetClientRect@8           0040f6e4 f   user32:USER32.dll
 0001:0000e6ea       _SetWindowLongA@12         0040f6ea f   user32:USER32.dll
 0001:0000e6f0       _GetWindowLongA@8          0040f6f0 f   user32:USER32.dll
 0001:0000e6f6       _IntersectRect@12          0040f6f6 f   user32:USER32.dll
 0001:0000e6fc       _IsIconic@4                0040f6fc f   user32:USER32.dll
 0001:0000e702       _ScreenToClient@8          0040f702 f   user32:USER32.dll
 0001:0000e708       _SetWindowRgn@12           0040f708 f   user32:USER32.dll
 0001:0000e70e       _DeleteObject@4            0040f70e f   gdi32:GDI32.dll
 0001:0000e714       _CreateRoundRectRgn@24     0040f714 f   gdi32:GDI32.dll
 0001:0000e71a       _CoInitialize@4            0040f71a f   ole32:ole32.dll
 0001:0000e720       ?GetSuperClassName@CWindowWnd@DuiLib@@MBEPBDXZ 0040f720 f   DuiLib_d:DuiLib_d.dll
 0001:0000e726       ??1CStdString@DuiLib@@QAE@XZ 0040f726 f   DuiLib_d:DuiLib_d.dll
 0001:0000e72c       ??BCStdString@DuiLib@@QBEPBDXZ 0040f72c f   DuiLib_d:DuiLib_d.dll
 0001:0000e732       ?GetInstancePath@CPaintManagerUI@DuiLib@@SA?AVCStdString@2@XZ 0040f732 f   DuiLib_d:DuiLib_d.dll
 0001:0000e738       ?FindControl@CPaintManagerUI@DuiLib@@QBEPAVCControlUI@2@PBD@Z 0040f738 f   DuiLib_d:DuiLib_d.dll
 0001:0000e73e       ?HandleMessage@CWindowWnd@DuiLib@@MAEJIIJ@Z 0040f73e f   DuiLib_d:DuiLib_d.dll
 0001:0000e744       ?Close@CWindowWnd@DuiLib@@QAEXI@Z 0040f744 f   DuiLib_d:DuiLib_d.dll
 0001:0000e74a       ??0CPoint@DuiLib@@QAE@ABUtagPOINT@@@Z 0040f74a f   DuiLib_d:DuiLib_d.dll
 0001:0000e750       ?SendMessageA@CWindowWnd@DuiLib@@QAEJIIJ@Z 0040f750 f   DuiLib_d:DuiLib_d.dll
 0001:0000e756       ??1CListUI@DuiLib@@UAE@XZ  0040f756 f   DuiLib_d:DuiLib_d.dll
 0001:0000e75c       ?GetHeader@CListUI@DuiLib@@UBEPAVCListHeaderUI@2@XZ 0040f75c f   DuiLib_d:DuiLib_d.dll
 0001:0000e762       ??0CListUI@DuiLib@@QAE@XZ  0040f762 f   DuiLib_d:DuiLib_d.dll
 0001:0000e768       ?GetName@CControlUI@DuiLib@@UBE?AVCStdString@2@XZ 0040f768 f   DuiLib_d:DuiLib_d.dll
 0001:0000e76e       ?SetName@CControlUI@DuiLib@@UAEXPBD@Z 0040f76e f   DuiLib_d:DuiLib_d.dll
 0001:0000e774       ?GetControlFlags@CListUI@DuiLib@@UBEIXZ 0040f774 f   DuiLib_d:DuiLib_d.dll
 0001:0000e77a       ?Activate@CControlUI@DuiLib@@UAE_NXZ 0040f77a f   DuiLib_d:DuiLib_d.dll
 0001:0000e780       ?GetManager@CControlUI@DuiLib@@UBEPAVCPaintManagerUI@2@XZ 0040f780 f   DuiLib_d:DuiLib_d.dll
 0001:0000e786       ?SetManager@CContainerUI@DuiLib@@UAEXPAVCPaintManagerUI@2@PAVCControlUI@2@_N@Z 0040f786 f   DuiLib_d:DuiLib_d.dll
 0001:0000e78c       ?GetParent@CControlUI@DuiLib@@UBEPAV12@XZ 0040f78c f   DuiLib_d:DuiLib_d.dll
 0001:0000e792       ?GetText@CControlUI@DuiLib@@UBE?AVCStdString@2@XZ 0040f792 f   DuiLib_d:DuiLib_d.dll
 0001:0000e798       ?SetText@CControlUI@DuiLib@@UAEXPBD@Z 0040f798 f   DuiLib_d:DuiLib_d.dll
 0001:0000e79e       ?GetPos@CControlUI@DuiLib@@UBEABUtagRECT@@XZ 0040f79e f   DuiLib_d:DuiLib_d.dll
 0001:0000e7a4       ?SetPos@CListUI@DuiLib@@UAEXUtagRECT@@@Z 0040f7a4 f   DuiLib_d:DuiLib_d.dll
 0001:0000e7aa       ?GetWidth@CControlUI@DuiLib@@UBEHXZ 0040f7aa f   DuiLib_d:DuiLib_d.dll
 0001:0000e7b0       ?GetHeight@CControlUI@DuiLib@@UBEHXZ 0040f7b0 f   DuiLib_d:DuiLib_d.dll
 0001:0000e7b6       ?GetX@CControlUI@DuiLib@@UBEHXZ 0040f7b6 f   DuiLib_d:DuiLib_d.dll
 0001:0000e7bc       ?GetY@CControlUI@DuiLib@@UBEHXZ 0040f7bc f   DuiLib_d:DuiLib_d.dll
 0001:0000e7c2       ?GetPadding@CControlUI@DuiLib@@UBE?AUtagRECT@@XZ 0040f7c2 f   DuiLib_d:DuiLib_d.dll
 0001:0000e7c8       ?SetPadding@CControlUI@DuiLib@@UAEXUtagRECT@@@Z 0040f7c8 f   DuiLib_d:DuiLib_d.dll
 0001:0000e7ce       ?GetFixedXY@CControlUI@DuiLib@@UBE?AUtagSIZE@@XZ 0040f7ce f   DuiLib_d:DuiLib_d.dll
 0001:0000e7d4       ?SetFixedXY@CControlUI@DuiLib@@UAEXUtagSIZE@@@Z 0040f7d4 f   DuiLib_d:DuiLib_d.dll
 0001:0000e7da       ?GetFixedWidth@CControlUI@DuiLib@@UBEHXZ 0040f7da f   DuiLib_d:DuiLib_d.dll
 0001:0000e7e0       ?SetFixedWidth@CControlUI@DuiLib@@UAEXH@Z 0040f7e0 f   DuiLib_d:DuiLib_d.dll
 0001:0000e7e6       ?GetFixedHeight@CControlUI@DuiLib@@UBEHXZ 0040f7e6 f   DuiLib_d:DuiLib_d.dll
 0001:0000e7ec       ?SetFixedHeight@CControlUI@DuiLib@@UAEXH@Z 0040f7ec f   DuiLib_d:DuiLib_d.dll
 0001:0000e7f2       ?GetMinWidth@CControlUI@DuiLib@@UBEHXZ 0040f7f2 f   DuiLib_d:DuiLib_d.dll
 0001:0000e7f8       ?SetMinWidth@CControlUI@DuiLib@@UAEXH@Z 0040f7f8 f   DuiLib_d:DuiLib_d.dll
 0001:0000e7fe       ?GetMaxWidth@CControlUI@DuiLib@@UBEHXZ 0040f7fe f   DuiLib_d:DuiLib_d.dll
 0001:0000e804       ?SetMaxWidth@CControlUI@DuiLib@@UAEXH@Z 0040f804 f   DuiLib_d:DuiLib_d.dll
 0001:0000e80a       ?GetMinHeight@CControlUI@DuiLib@@UBEHXZ 0040f80a f   DuiLib_d:DuiLib_d.dll
 0001:0000e810       ?SetMinHeight@CControlUI@DuiLib@@UAEXH@Z 0040f810 f   DuiLib_d:DuiLib_d.dll
 0001:0000e816       ?GetMaxHeight@CControlUI@DuiLib@@UBEHXZ 0040f816 f   DuiLib_d:DuiLib_d.dll
 0001:0000e81c       ?SetMaxHeight@CControlUI@DuiLib@@UAEXH@Z 0040f81c f   DuiLib_d:DuiLib_d.dll
 0001:0000e822       ?SetRelativePos@CControlUI@DuiLib@@UAEXUtagSIZE@@0@Z 0040f822 f   DuiLib_d:DuiLib_d.dll
 0001:0000e828       ?SetRelativeParentSize@CControlUI@DuiLib@@UAEXUtagSIZE@@@Z 0040f828 f   DuiLib_d:DuiLib_d.dll
 0001:0000e82e       ?GetRelativePos@CControlUI@DuiLib@@UBE?AUtagTRelativePosUI@2@XZ 0040f82e f   DuiLib_d:DuiLib_d.dll
 0001:0000e834       ?IsRelativePos@CControlUI@DuiLib@@UBE_NXZ 0040f834 f   DuiLib_d:DuiLib_d.dll
 0001:0000e83a       ?GetToolTip@CControlUI@DuiLib@@UBE?AVCStdString@2@XZ 0040f83a f   DuiLib_d:DuiLib_d.dll
 0001:0000e840       ?SetToolTip@CControlUI@DuiLib@@UAEXPBD@Z 0040f840 f   DuiLib_d:DuiLib_d.dll
 0001:0000e846       ?GetShortcut@CControlUI@DuiLib@@UBEDXZ 0040f846 f   DuiLib_d:DuiLib_d.dll
 0001:0000e84c       ?SetShortcut@CControlUI@DuiLib@@UAEXD@Z 0040f84c f   DuiLib_d:DuiLib_d.dll
 0001:0000e852       ?IsContextMenuUsed@CControlUI@DuiLib@@UBE_NXZ 0040f852 f   DuiLib_d:DuiLib_d.dll
 0001:0000e858       ?SetContextMenuUsed@CControlUI@DuiLib@@UAEX_N@Z 0040f858 f   DuiLib_d:DuiLib_d.dll
 0001:0000e85e       ?GetUserData@CControlUI@DuiLib@@UAEABVCStdString@2@XZ 0040f85e f   DuiLib_d:DuiLib_d.dll
 0001:0000e864       ?SetUserData@CControlUI@DuiLib@@UAEXPBD@Z 0040f864 f   DuiLib_d:DuiLib_d.dll
 0001:0000e86a       ?GetTag@CControlUI@DuiLib@@UBEIXZ 0040f86a f   DuiLib_d:DuiLib_d.dll
 0001:0000e870       ?SetTag@CControlUI@DuiLib@@UAEXI@Z 0040f870 f   DuiLib_d:DuiLib_d.dll
 0001:0000e876       ?IsVisible@CControlUI@DuiLib@@UBE_NXZ 0040f876 f   DuiLib_d:DuiLib_d.dll
 0001:0000e87c       ?SetVisible@CContainerUI@DuiLib@@UAEX_N@Z 0040f87c f   DuiLib_d:DuiLib_d.dll
 0001:0000e882       ?SetInternVisible@CContainerUI@DuiLib@@UAEX_N@Z 0040f882 f   DuiLib_d:DuiLib_d.dll
 0001:0000e888       ?IsEnabled@CControlUI@DuiLib@@UBE_NXZ 0040f888 f   DuiLib_d:DuiLib_d.dll
 0001:0000e88e       ?SetEnabled@CControlUI@DuiLib@@UAEX_N@Z 0040f88e f   DuiLib_d:DuiLib_d.dll
 0001:0000e894       ?IsMouseEnabled@CControlUI@DuiLib@@UBE_NXZ 0040f894 f   DuiLib_d:DuiLib_d.dll
 0001:0000e89a       ?SetMouseEnabled@CContainerUI@DuiLib@@UAEX_N@Z 0040f89a f   DuiLib_d:DuiLib_d.dll
 0001:0000e8a0       ?IsKeyboardEnabled@CControlUI@DuiLib@@UBE_NXZ 0040f8a0 f   DuiLib_d:DuiLib_d.dll
 0001:0000e8a6       ?SetKeyboardEnabled@CControlUI@DuiLib@@UAEX_N@Z 0040f8a6 f   DuiLib_d:DuiLib_d.dll
 0001:0000e8ac       ?IsFocused@CControlUI@DuiLib@@UBE_NXZ 0040f8ac f   DuiLib_d:DuiLib_d.dll
 0001:0000e8b2       ?SetFocus@CControlUI@DuiLib@@UAEXXZ 0040f8b2 f   DuiLib_d:DuiLib_d.dll
 0001:0000e8b8       ?IsFloat@CControlUI@DuiLib@@UBE_NXZ 0040f8b8 f   DuiLib_d:DuiLib_d.dll
 0001:0000e8be       ?SetFloat@CControlUI@DuiLib@@UAEX_N@Z 0040f8be f   DuiLib_d:DuiLib_d.dll
 0001:0000e8c4       ?FindControl@CContainerUI@DuiLib@@UAEPAVCControlUI@2@P6GPAV32@PAV32@PAX@Z1I@Z 0040f8c4 f   DuiLib_d:DuiLib_d.dll
 0001:0000e8ca       ?Init@CControlUI@DuiLib@@UAEXXZ 0040f8ca f   DuiLib_d:DuiLib_d.dll
 0001:0000e8d0       ?DoInit@CControlUI@DuiLib@@UAEXXZ 0040f8d0 f   DuiLib_d:DuiLib_d.dll
 0001:0000e8d6       ?Event@CControlUI@DuiLib@@UAEXAAUtagTEventUI@2@@Z 0040f8d6 f   DuiLib_d:DuiLib_d.dll
 0001:0000e8dc       ?DoPaint@CContainerUI@DuiLib@@UAEXPAUHDC__@@ABUtagRECT@@@Z 0040f8dc f   DuiLib_d:DuiLib_d.dll
 0001:0000e8e2       ?PaintBkColor@CControlUI@DuiLib@@UAEXPAUHDC__@@@Z 0040f8e2 f   DuiLib_d:DuiLib_d.dll
 0001:0000e8e8       ?PaintBkImage@CControlUI@DuiLib@@UAEXPAUHDC__@@@Z 0040f8e8 f   DuiLib_d:DuiLib_d.dll
 0001:0000e8ee       ?PaintStatusImage@CControlUI@DuiLib@@UAEXPAUHDC__@@@Z 0040f8ee f   DuiLib_d:DuiLib_d.dll
 0001:0000e8f4       ?PaintText@CControlUI@DuiLib@@UAEXPAUHDC__@@@Z 0040f8f4 f   DuiLib_d:DuiLib_d.dll
 0001:0000e8fa       ?PaintBorder@CControlUI@DuiLib@@UAEXPAUHDC__@@@Z 0040f8fa f   DuiLib_d:DuiLib_d.dll
 0001:0000e900       ?DoPostPaint@CVerticalLayoutUI@DuiLib@@UAEXPAUHDC__@@ABUtagRECT@@@Z 0040f900 f   DuiLib_d:DuiLib_d.dll
 0001:0000e906       ?GetInset@CContainerUI@DuiLib@@UBE?AUtagRECT@@XZ 0040f906 f   DuiLib_d:DuiLib_d.dll
 0001:0000e90c       ?SetInset@CContainerUI@DuiLib@@UAEXUtagRECT@@@Z 0040f90c f   DuiLib_d:DuiLib_d.dll
 0001:0000e912       ?GetChildPadding@CListUI@DuiLib@@UBEHXZ 0040f912 f   DuiLib_d:DuiLib_d.dll
 0001:0000e918       ?SetChildPadding@CListUI@DuiLib@@UAEXH@Z 0040f918 f   DuiLib_d:DuiLib_d.dll
 0001:0000e91e       ?IsAutoDestroy@CContainerUI@DuiLib@@UBE_NXZ 0040f91e f   DuiLib_d:DuiLib_d.dll
 0001:0000e924       ?SetAutoDestroy@CContainerUI@DuiLib@@UAEX_N@Z 0040f924 f   DuiLib_d:DuiLib_d.dll
 0001:0000e92a       ?IsDelayedDestroy@CContainerUI@DuiLib@@UBE_NXZ 0040f92a f   DuiLib_d:DuiLib_d.dll
 0001:0000e930       ?SetDelayedDestroy@CContainerUI@DuiLib@@UAEX_N@Z 0040f930 f   DuiLib_d:DuiLib_d.dll
 0001:0000e936       ?IsMouseChildEnabled@CContainerUI@DuiLib@@UBE_NXZ 0040f936 f   DuiLib_d:DuiLib_d.dll
 0001:0000e93c       ?SetMouseChildEnabled@CContainerUI@DuiLib@@UAEX_N@Z 0040f93c f   DuiLib_d:DuiLib_d.dll
 0001:0000e942       ?FindSelectable@CContainerUI@DuiLib@@UBEHH_N@Z 0040f942 f   DuiLib_d:DuiLib_d.dll
 0001:0000e948       ?GetScrollPos@CListUI@DuiLib@@UBE?AUtagSIZE@@XZ 0040f948 f   DuiLib_d:DuiLib_d.dll
 0001:0000e94e       ?GetScrollRange@CListUI@DuiLib@@UBE?AUtagSIZE@@XZ 0040f94e f   DuiLib_d:DuiLib_d.dll
 0001:0000e954       ?SetScrollPos@CListUI@DuiLib@@UAEXUtagSIZE@@@Z 0040f954 f   DuiLib_d:DuiLib_d.dll
 0001:0000e95a       ?LineUp@CListUI@DuiLib@@UAEXXZ 0040f95a f   DuiLib_d:DuiLib_d.dll
 0001:0000e960       ?LineDown@CListUI@DuiLib@@UAEXXZ 0040f960 f   DuiLib_d:DuiLib_d.dll
 0001:0000e966       ?PageUp@CListUI@DuiLib@@UAEXXZ 0040f966 f   DuiLib_d:DuiLib_d.dll
 0001:0000e96c       ?PageDown@CListUI@DuiLib@@UAEXXZ 0040f96c f   DuiLib_d:DuiLib_d.dll
 0001:0000e972       ?HomeUp@CListUI@DuiLib@@UAEXXZ 0040f972 f   DuiLib_d:DuiLib_d.dll
 0001:0000e978       ?EndDown@CListUI@DuiLib@@UAEXXZ 0040f978 f   DuiLib_d:DuiLib_d.dll
 0001:0000e97e       ?LineLeft@CListUI@DuiLib@@UAEXXZ 0040f97e f   DuiLib_d:DuiLib_d.dll
 0001:0000e984       ?LineRight@CListUI@DuiLib@@UAEXXZ 0040f984 f   DuiLib_d:DuiLib_d.dll
 0001:0000e98a       ?PageLeft@CListUI@DuiLib@@UAEXXZ 0040f98a f   DuiLib_d:DuiLib_d.dll
 0001:0000e990       ?PageRight@CListUI@DuiLib@@UAEXXZ 0040f990 f   DuiLib_d:DuiLib_d.dll
 0001:0000e996       ?HomeLeft@CListUI@DuiLib@@UAEXXZ 0040f996 f   DuiLib_d:DuiLib_d.dll
 0001:0000e99c       ?EndRight@CListUI@DuiLib@@UAEXXZ 0040f99c f   DuiLib_d:DuiLib_d.dll
 0001:0000e9a2       ?EnableScrollBar@CListUI@DuiLib@@UAEX_N0@Z 0040f9a2 f   DuiLib_d:DuiLib_d.dll
 0001:0000e9a8       ?GetVerticalScrollBar@CListUI@DuiLib@@UBEPAVCScrollBarUI@2@XZ 0040f9a8 f   DuiLib_d:DuiLib_d.dll
 0001:0000e9ae       ?GetHorizontalScrollBar@CListUI@DuiLib@@UBEPAVCScrollBarUI@2@XZ 0040f9ae f   DuiLib_d:DuiLib_d.dll
 0001:0000e9b4       ?SetFloatPos@CContainerUI@DuiLib@@MAEXH@Z 0040f9b4 f   DuiLib_d:DuiLib_d.dll
 0001:0000e9ba       ?ProcessScrollBar@CContainerUI@DuiLib@@MAEXUtagRECT@@HH@Z 0040f9ba f   DuiLib_d:DuiLib_d.dll
 0001:0000e9c0       ?GetItemAt@CListUI@DuiLib@@UBEPAVCControlUI@2@H@Z 0040f9c0 f   DuiLib_d:DuiLib_d.dll
 0001:0000e9c6       ?GetCount@CListUI@DuiLib@@UBEHXZ 0040f9c6 f   DuiLib_d:DuiLib_d.dll
 0001:0000e9cc       ?RemoveAt@CListUI@DuiLib@@UAE_NH@Z 0040f9cc f   DuiLib_d:DuiLib_d.dll
 0001:0000e9d2       ?RemoveAll@CListUI@DuiLib@@UAEXXZ 0040f9d2 f   DuiLib_d:DuiLib_d.dll
 0001:0000e9d8       ?GetListInfo@CListUI@DuiLib@@UAEPAUtagTListInfoUI@2@XZ 0040f9d8 f   DuiLib_d:DuiLib_d.dll
 0001:0000e9de       ?GetCurSel@CListUI@DuiLib@@UBEHXZ 0040f9de f   DuiLib_d:DuiLib_d.dll
 0001:0000e9e4       ?SelectItem@CListUI@DuiLib@@UAE_NH_N@Z 0040f9e4 f   DuiLib_d:DuiLib_d.dll
 0001:0000e9ea       ?GetList@CListUI@DuiLib@@UBEPAVCContainerUI@2@XZ 0040f9ea f   DuiLib_d:DuiLib_d.dll
 0001:0000e9f0       ?GetTextCallback@CListUI@DuiLib@@UBEPAVIListCallbackUI@2@XZ 0040f9f0 f   DuiLib_d:DuiLib_d.dll
 0001:0000e9f6       ?SetTextCallback@CListUI@DuiLib@@UAEXPAVIListCallbackUI@2@@Z 0040f9f6 f   DuiLib_d:DuiLib_d.dll
 0001:0000e9fc       ?ExpandItem@CListUI@DuiLib@@UAE_NH_N@Z 0040f9fc f   DuiLib_d:DuiLib_d.dll
 0001:0000ea02       ?GetExpandedItem@CListUI@DuiLib@@UBEHXZ 0040fa02 f   DuiLib_d:DuiLib_d.dll
 0001:0000ea08       ?GetInterface@CListUI@DuiLib@@UAEPAXPBD@Z 0040fa08 f   DuiLib_d:DuiLib_d.dll
 0001:0000ea0e       ?DoEvent@CListUI@DuiLib@@UAEXAAUtagTEventUI@2@@Z 0040fa0e f   DuiLib_d:DuiLib_d.dll
 0001:0000ea14       ?Add@CListUI@DuiLib@@UAE_NPAVCControlUI@2@@Z 0040fa14 f   DuiLib_d:DuiLib_d.dll
 0001:0000ea1a       ?AddAt@CListUI@DuiLib@@UAE_NPAVCControlUI@2@H@Z 0040fa1a f   DuiLib_d:DuiLib_d.dll
 0001:0000ea20       ?GetItemIndex@CListUI@DuiLib@@UBEHPAVCControlUI@2@@Z 0040fa20 f   DuiLib_d:DuiLib_d.dll
 0001:0000ea26       ?SetItemIndex@CListUI@DuiLib@@UAE_NPAVCControlUI@2@H@Z 0040fa26 f   DuiLib_d:DuiLib_d.dll
 0001:0000ea2c       ?Remove@CListUI@DuiLib@@UAE_NPAVCControlUI@2@@Z 0040fa2c f   DuiLib_d:DuiLib_d.dll
 0001:0000ea32       ??0CSize@DuiLib@@QAE@HH@Z  0040fa32 f   DuiLib_d:DuiLib_d.dll
 0001:0000ea38       ?SetAttribute@CListUI@DuiLib@@UAEXPBD0@Z 0040fa38 f   DuiLib_d:DuiLib_d.dll
 0001:0000ea3e       ??0CPaintManagerUI@DuiLib@@QAE@XZ 0040fa3e f   DuiLib_d:DuiLib_d.dll
 0001:0000ea44       ??0CStdString@DuiLib@@QAE@XZ 0040fa44 f   DuiLib_d:DuiLib_d.dll
 0001:0000ea4a       ??0CWindowWnd@DuiLib@@QAE@XZ 0040fa4a f   DuiLib_d:DuiLib_d.dll
 0001:0000ea50       ?GetClassStyle@CWindowWnd@DuiLib@@MBEIXZ 0040fa50 f   DuiLib_d:DuiLib_d.dll
 0001:0000ea56       ?Create@CWindowWnd@DuiLib@@QAEPAUHWND__@@PAU3@PBDKKUtagRECT@@PAUHMENU__@@@Z 0040fa56 f   DuiLib_d:DuiLib_d.dll
 0001:0000ea5c       ??0CRect@DuiLib@@QAE@XZ    0040fa5c f   DuiLib_d:DuiLib_d.dll
 0001:0000ea62       ?GetPaintWindow@CPaintManagerUI@DuiLib@@QBEPAUHWND__@@XZ 0040fa62 f   DuiLib_d:DuiLib_d.dll
 0001:0000ea68       ??4CStdString@DuiLib@@QAEABV01@PBD@Z 0040fa68 f   DuiLib_d:DuiLib_d.dll
 0001:0000ea6e       ?Invalidate@CListContainerElementUI@DuiLib@@QAEXXZ 0040fa6e f   DuiLib_d:DuiLib_d.dll
 0001:0000ea74       ?MessageHandler@CPaintManagerUI@DuiLib@@QAE_NIIJAAJ@Z 0040fa74 f   DuiLib_d:DuiLib_d.dll
 0001:0000ea7a       ??1CDialogBuilder@DuiLib@@QAE@XZ 0040fa7a f   DuiLib_d:DuiLib_d.dll
 0001:0000ea80       ?GetHeight@CRect@DuiLib@@QBEHXZ 0040fa80 f   DuiLib_d:DuiLib_d.dll
 0001:0000ea86       ?GetWidth@CRect@DuiLib@@QBEHXZ 0040fa86 f   DuiLib_d:DuiLib_d.dll
 0001:0000ea8c       ?GetInitSize@CPaintManagerUI@DuiLib@@QAE?AUtagSIZE@@XZ 0040fa8c f   DuiLib_d:DuiLib_d.dll
 0001:0000ea92       ?SetInitSize@CPaintManagerUI@DuiLib@@QAEXHH@Z 0040fa92 f   DuiLib_d:DuiLib_d.dll
 0001:0000ea98       ?Create@CDialogBuilder@DuiLib@@QAEPAVCControlUI@2@VSTRINGorID@2@PBDPAVIDialogBuilderCallback@2@PAVCPaintManagerUI@2@PAV32@@Z 0040fa98 f   DuiLib_d:DuiLib_d.dll
 0001:0000ea9e       ?GetData@CStdString@DuiLib@@QAEPBDXZ 0040fa9e f   DuiLib_d:DuiLib_d.dll
 0001:0000eaa4       ??0CDialogBuilder@DuiLib@@QAE@XZ 0040faa4 f   DuiLib_d:DuiLib_d.dll
 0001:0000eaaa       ?GetHWND@CWindowWnd@DuiLib@@QBEPAUHWND__@@XZ 0040faaa f   DuiLib_d:DuiLib_d.dll
 0001:0000eab0       ??0CRect@DuiLib@@QAE@ABUtagRECT@@@Z 0040fab0 f   DuiLib_d:DuiLib_d.dll
 0001:0000eab6       ?AttachDialog@CPaintManagerUI@DuiLib@@QAE_NPAVCControlUI@2@@Z 0040fab6 f   DuiLib_d:DuiLib_d.dll
 0001:0000eabc       ?SetBorderSize@CControlUI@DuiLib@@QAEXH@Z 0040fabc f   DuiLib_d:DuiLib_d.dll
 0001:0000eac2       ?SetBorderColor@CControlUI@DuiLib@@QAEXK@Z 0040fac2 f   DuiLib_d:DuiLib_d.dll
 0001:0000eac8       ?SetBkColor@CControlUI@DuiLib@@QAEXK@Z 0040fac8 f   DuiLib_d:DuiLib_d.dll
 0001:0000eace       ?ApplyAttributeList@CControlUI@DuiLib@@QAEPAV12@PBD@Z 0040face f   DuiLib_d:DuiLib_d.dll
 0001:0000ead4       ?GetDefaultAttributeList@CPaintManagerUI@DuiLib@@QBEPBDPBD@Z 0040fad4 f   DuiLib_d:DuiLib_d.dll
 0001:0000eada       ?UseParentResource@CPaintManagerUI@DuiLib@@QAE_NPAV12@@Z 0040fada f   DuiLib_d:DuiLib_d.dll
 0001:0000eae0       ?Init@CPaintManagerUI@DuiLib@@QAEXPAUHWND__@@@Z 0040fae0 f   DuiLib_d:DuiLib_d.dll
 0001:0000eae6       ??BCWindowWnd@DuiLib@@QBEPAUHWND__@@XZ 0040fae6 f   DuiLib_d:DuiLib_d.dll
 0001:0000eaec       ??1CListContainerElementUI@DuiLib@@UAE@XZ 0040faec f   DuiLib_d:DuiLib_d.dll
 0001:0000eaf2       ??0CListContainerElementUI@DuiLib@@QAE@XZ 0040faf2 f   DuiLib_d:DuiLib_d.dll
 0001:0000eaf8       ?GetControlFlags@CListContainerElementUI@DuiLib@@UBEIXZ 0040faf8 f   DuiLib_d:DuiLib_d.dll
 0001:0000eafe       ?SetPos@CContainerUI@DuiLib@@UAEXUtagRECT@@@Z 0040fafe f   DuiLib_d:DuiLib_d.dll
 0001:0000eb04       ?SetVisible@CListContainerElementUI@DuiLib@@UAEX_N@Z 0040fb04 f   DuiLib_d:DuiLib_d.dll
 0001:0000eb0a       ?SetEnabled@CListContainerElementUI@DuiLib@@UAEX_N@Z 0040fb0a f   DuiLib_d:DuiLib_d.dll
 0001:0000eb10       ?SetAttribute@CListContainerElementUI@DuiLib@@UAEXPBD0@Z 0040fb10 f   DuiLib_d:DuiLib_d.dll
 0001:0000eb16       ?DoPostPaint@CControlUI@DuiLib@@UAEXPAUHDC__@@ABUtagRECT@@@Z 0040fb16 f   DuiLib_d:DuiLib_d.dll
 0001:0000eb1c       ?GetChildPadding@CContainerUI@DuiLib@@UBEHXZ 0040fb1c f   DuiLib_d:DuiLib_d.dll
 0001:0000eb22       ?SetChildPadding@CContainerUI@DuiLib@@UAEXH@Z 0040fb22 f   DuiLib_d:DuiLib_d.dll
 0001:0000eb28       ?GetScrollPos@CContainerUI@DuiLib@@UBE?AUtagSIZE@@XZ 0040fb28 f   DuiLib_d:DuiLib_d.dll
 0001:0000eb2e       ?GetScrollRange@CContainerUI@DuiLib@@UBE?AUtagSIZE@@XZ 0040fb2e f   DuiLib_d:DuiLib_d.dll
 0001:0000eb34       ?SetScrollPos@CContainerUI@DuiLib@@UAEXUtagSIZE@@@Z 0040fb34 f   DuiLib_d:DuiLib_d.dll
 0001:0000eb3a       ?LineUp@CContainerUI@DuiLib@@UAEXXZ 0040fb3a f   DuiLib_d:DuiLib_d.dll
 0001:0000eb40       ?LineDown@CContainerUI@DuiLib@@UAEXXZ 0040fb40 f   DuiLib_d:DuiLib_d.dll
 0001:0000eb46       ?PageUp@CContainerUI@DuiLib@@UAEXXZ 0040fb46 f   DuiLib_d:DuiLib_d.dll
 0001:0000eb4c       ?PageDown@CContainerUI@DuiLib@@UAEXXZ 0040fb4c f   DuiLib_d:DuiLib_d.dll
 0001:0000eb52       ?HomeUp@CContainerUI@DuiLib@@UAEXXZ 0040fb52 f   DuiLib_d:DuiLib_d.dll
 0001:0000eb58       ?EndDown@CContainerUI@DuiLib@@UAEXXZ 0040fb58 f   DuiLib_d:DuiLib_d.dll
 0001:0000eb5e       ?LineLeft@CContainerUI@DuiLib@@UAEXXZ 0040fb5e f   DuiLib_d:DuiLib_d.dll
 0001:0000eb64       ?LineRight@CContainerUI@DuiLib@@UAEXXZ 0040fb64 f   DuiLib_d:DuiLib_d.dll
 0001:0000eb6a       ?PageLeft@CContainerUI@DuiLib@@UAEXXZ 0040fb6a f   DuiLib_d:DuiLib_d.dll
 0001:0000eb70       ?PageRight@CContainerUI@DuiLib@@UAEXXZ 0040fb70 f   DuiLib_d:DuiLib_d.dll
 0001:0000eb76       ?HomeLeft@CContainerUI@DuiLib@@UAEXXZ 0040fb76 f   DuiLib_d:DuiLib_d.dll
 0001:0000eb7c       ?EndRight@CContainerUI@DuiLib@@UAEXXZ 0040fb7c f   DuiLib_d:DuiLib_d.dll
 0001:0000eb82       ?EnableScrollBar@CContainerUI@DuiLib@@UAEX_N0@Z 0040fb82 f   DuiLib_d:DuiLib_d.dll
 0001:0000eb88       ?GetVerticalScrollBar@CContainerUI@DuiLib@@UBEPAVCScrollBarUI@2@XZ 0040fb88 f   DuiLib_d:DuiLib_d.dll
 0001:0000eb8e       ?GetHorizontalScrollBar@CContainerUI@DuiLib@@UBEPAVCScrollBarUI@2@XZ 0040fb8e f   DuiLib_d:DuiLib_d.dll
 0001:0000eb94       ?GetItemAt@CContainerUI@DuiLib@@UBEPAVCControlUI@2@H@Z 0040fb94 f   DuiLib_d:DuiLib_d.dll
 0001:0000eb9a       ?GetItemIndex@CContainerUI@DuiLib@@UBEHPAVCControlUI@2@@Z 0040fb9a f   DuiLib_d:DuiLib_d.dll
 0001:0000eba0       ?SetItemIndex@CContainerUI@DuiLib@@UAE_NPAVCControlUI@2@H@Z 0040fba0 f   DuiLib_d:DuiLib_d.dll
 0001:0000eba6       ?GetCount@CContainerUI@DuiLib@@UBEHXZ 0040fba6 f   DuiLib_d:DuiLib_d.dll
 0001:0000ebac       ?Add@CContainerUI@DuiLib@@UAE_NPAVCControlUI@2@@Z 0040fbac f   DuiLib_d:DuiLib_d.dll
 0001:0000ebb2       ?AddAt@CContainerUI@DuiLib@@UAE_NPAVCControlUI@2@H@Z 0040fbb2 f   DuiLib_d:DuiLib_d.dll
 0001:0000ebb8       ?Remove@CContainerUI@DuiLib@@UAE_NPAVCControlUI@2@@Z 0040fbb8 f   DuiLib_d:DuiLib_d.dll
 0001:0000ebbe       ?RemoveAt@CContainerUI@DuiLib@@UAE_NH@Z 0040fbbe f   DuiLib_d:DuiLib_d.dll
 0001:0000ebc4       ?RemoveAll@CContainerUI@DuiLib@@UAEXXZ 0040fbc4 f   DuiLib_d:DuiLib_d.dll
 0001:0000ebca       ?GetIndex@CListContainerElementUI@DuiLib@@UBEHXZ 0040fbca f   DuiLib_d:DuiLib_d.dll
 0001:0000ebd0       ?SetIndex@CListContainerElementUI@DuiLib@@UAEXH@Z 0040fbd0 f   DuiLib_d:DuiLib_d.dll
 0001:0000ebd6       ?GetOwner@CListContainerElementUI@DuiLib@@UAEPAVIListOwnerUI@2@XZ 0040fbd6 f   DuiLib_d:DuiLib_d.dll
 0001:0000ebdc       ?SetOwner@CListContainerElementUI@DuiLib@@UAEXPAVCControlUI@2@@Z 0040fbdc f   DuiLib_d:DuiLib_d.dll
 0001:0000ebe2       ?IsSelected@CListContainerElementUI@DuiLib@@UBE_NXZ 0040fbe2 f   DuiLib_d:DuiLib_d.dll
 0001:0000ebe8       ?Select@CListContainerElementUI@DuiLib@@UAE_N_N@Z 0040fbe8 f   DuiLib_d:DuiLib_d.dll
 0001:0000ebee       ?IsExpanded@CListContainerElementUI@DuiLib@@UBE_NXZ 0040fbee f   DuiLib_d:DuiLib_d.dll
 0001:0000ebf4       ?Expand@CListContainerElementUI@DuiLib@@UAE_N_N@Z 0040fbf4 f   DuiLib_d:DuiLib_d.dll
 0001:0000ebfa       ?GetInterface@CListContainerElementUI@DuiLib@@UAEPAXPBD@Z 0040fbfa f   DuiLib_d:DuiLib_d.dll
 0001:0000ec00       ?DrawItemBk@CListContainerElementUI@DuiLib@@QAEXPAUHDC__@@ABUtagRECT@@@Z 0040fc00 f   DuiLib_d:DuiLib_d.dll
 0001:0000ec06       ?DrawTextA@CRenderEngine@DuiLib@@SAXPAUHDC__@@PAVCPaintManagerUI@2@AAUtagRECT@@PBDKHI@Z 0040fc06 f   DuiLib_d:DuiLib_d.dll
 0001:0000ec0c       ?DrawHtmlText@CRenderEngine@DuiLib@@SAXPAUHDC__@@PAVCPaintManagerUI@2@AAUtagRECT@@PBDKPAU5@PAVCStdString@2@AAHI@Z 0040fc0c f   DuiLib_d:DuiLib_d.dll
 0001:0000ec12       ?IsEmpty@CStdString@DuiLib@@QBE_NXZ 0040fc12 f   DuiLib_d:DuiLib_d.dll
 0001:0000ec18       ?GetPaintDC@CPaintManagerUI@DuiLib@@QBEPAUHDC__@@XZ 0040fc18 f   DuiLib_d:DuiLib_d.dll
 0001:0000ec1e       ?DoEvent@CListContainerElementUI@DuiLib@@UAEXAAUtagTEventUI@2@@Z 0040fc1e f   DuiLib_d:DuiLib_d.dll
 0001:0000ec24       ?Activate@CListContainerElementUI@DuiLib@@UAE_NXZ 0040fc24 f   DuiLib_d:DuiLib_d.dll
 0001:0000ec2a       ??0CPoint@DuiLib@@QAE@XZ   0040fc2a f   DuiLib_d:DuiLib_d.dll
 0001:0000ec30       ??1CPaintManagerUI@DuiLib@@QAE@XZ 0040fc30 f   DuiLib_d:DuiLib_d.dll
 0001:0000ec36       ?ReapObjects@CPaintManagerUI@DuiLib@@QAEXPAVCControlUI@2@@Z 0040fc36 f   DuiLib_d:DuiLib_d.dll
 0001:0000ec3c       ?GetRoot@CPaintManagerUI@DuiLib@@QBEPAVCControlUI@2@XZ 0040fc3c f   DuiLib_d:DuiLib_d.dll
 0001:0000ec42       ?RemoveNotifier@CPaintManagerUI@DuiLib@@QAE_NPAVINotifyUI@2@@Z 0040fc42 f   DuiLib_d:DuiLib_d.dll
 0001:0000ec48       ?RemovePreMessageFilter@CPaintManagerUI@DuiLib@@QAE_NPAVIMessageFilterUI@2@@Z 0040fc48 f   DuiLib_d:DuiLib_d.dll
 0001:0000ec4e       ?FindControl@CPaintManagerUI@DuiLib@@QBEPAVCControlUI@2@UtagPOINT@@@Z 0040fc4e f   DuiLib_d:DuiLib_d.dll
 0001:0000ec54       ?GetCaptionRect@CPaintManagerUI@DuiLib@@QAEAAUtagRECT@@XZ 0040fc54 f   DuiLib_d:DuiLib_d.dll
 0001:0000ec5a       ?GetSizeBox@CPaintManagerUI@DuiLib@@QAEAAUtagRECT@@XZ 0040fc5a f   DuiLib_d:DuiLib_d.dll
 0001:0000ec60       ?Offset@CRect@DuiLib@@QAEXHH@Z 0040fc60 f   DuiLib_d:DuiLib_d.dll
 0001:0000ec66       ?GetRoundCorner@CPaintManagerUI@DuiLib@@QBE?AUtagSIZE@@XZ 0040fc66 f   DuiLib_d:DuiLib_d.dll
 0001:0000ec6c       ?AddNotifier@CPaintManagerUI@DuiLib@@QAE_NPAVINotifyUI@2@@Z 0040fc6c f   DuiLib_d:DuiLib_d.dll
 0001:0000ec72       ?SetResourcePath@CPaintManagerUI@DuiLib@@SAXPBD@Z 0040fc72 f   DuiLib_d:DuiLib_d.dll
 0001:0000ec78       ?AddPreMessageFilter@CPaintManagerUI@DuiLib@@QAE_NPAVIMessageFilterUI@2@@Z 0040fc78 f   DuiLib_d:DuiLib_d.dll
 0001:0000ec7e       ?MessageLoop@CPaintManagerUI@DuiLib@@SAXXZ 0040fc7e f   DuiLib_d:DuiLib_d.dll
 0001:0000ec84       ?CenterWindow@CWindowWnd@DuiLib@@QAEXXZ 0040fc84 f   DuiLib_d:DuiLib_d.dll
 0001:0000ec8a       ?Create@CWindowWnd@DuiLib@@QAEPAUHWND__@@PAU3@PBDKKHHHHPAUHMENU__@@@Z 0040fc8a f   DuiLib_d:DuiLib_d.dll
 0001:0000ec90       ?SetInstance@CPaintManagerUI@DuiLib@@SAXPAUHINSTANCE__@@@Z 0040fc90 f   DuiLib_d:DuiLib_d.dll
 0001:0000eca0       ??0_Init_locks@std@@QAE@XZ 0040fca0 f   libcpmtd:xlock.obj
 0001:0000ecf0       ??1_Init_locks@std@@QAE@XZ 0040fcf0 f   libcpmtd:xlock.obj
 0001:0000ed40       ?_Init_locks_ctor@_Init_locks@std@@CAXPAV12@@Z 0040fd40 f   libcpmtd:xlock.obj
 0001:0000ed90       ?_Init_locks_dtor@_Init_locks@std@@CAXPAV12@@Z 0040fd90 f   libcpmtd:xlock.obj
 0001:0000ede0       ??0_Lockit@std@@QAE@XZ     0040fde0 f   libcpmtd:xlock.obj
 0001:0000ee10       ??0_Lockit@std@@QAE@H@Z    0040fe10 f   libcpmtd:xlock.obj
 0001:0000ee50       ??1_Lockit@std@@QAE@XZ     0040fe50 f   libcpmtd:xlock.obj
 0001:0000ee80       ?_Lockit_ctor@_Lockit@std@@CAXPAV12@@Z 0040fe80 f   libcpmtd:xlock.obj
 0001:0000eea0       ?_Lockit_ctor@_Lockit@std@@CAXPAV12@H@Z 0040fea0 f   libcpmtd:xlock.obj
 0001:0000eed0       ?_Lockit_dtor@_Lockit@std@@CAXPAV12@@Z 0040fed0 f   libcpmtd:xlock.obj
 0001:0000eef0       ?_Lockit_ctor@_Lockit@std@@SAXH@Z 0040fef0 f   libcpmtd:xlock.obj
 0001:0000ef10       ?_Lockit_dtor@_Lockit@std@@SAXH@Z 0040ff10 f   libcpmtd:xlock.obj
 0001:0000ef30       ?_Xinvalid_argument@std@@YAXPBD@Z 0040ff30 f   libcpmtd:xthrow.obj
 0001:0000ef60       ??0invalid_argument@std@@QAE@PBD@Z 0040ff60 f i libcpmtd:xthrow.obj
 0001:0000ef90       ??0logic_error@std@@QAE@PBD@Z 0040ff90 f i libcpmtd:xthrow.obj
 0001:0000efc0       ??_Elogic_error@std@@UAEPAXI@Z 0040ffc0 f i libcpmtd:xthrow.obj
 0001:0000efc0       ??_Glogic_error@std@@UAEPAXI@Z 0040ffc0 f i libcpmtd:xthrow.obj
 0001:0000eff0       ??1logic_error@std@@UAE@XZ 0040fff0 f i libcpmtd:xthrow.obj
 0001:0000f010       ??_Einvalid_argument@std@@UAEPAXI@Z 00410010 f i libcpmtd:xthrow.obj
 0001:0000f010       ??_Ginvalid_argument@std@@UAEPAXI@Z 00410010 f i libcpmtd:xthrow.obj
 0001:0000f040       ??1invalid_argument@std@@UAE@XZ 00410040 f i libcpmtd:xthrow.obj
 0001:0000f060       ??0invalid_argument@std@@QAE@ABV01@@Z 00410060 f i libcpmtd:xthrow.obj
 0001:0000f090       ??0logic_error@std@@QAE@ABV01@@Z 00410090 f i libcpmtd:xthrow.obj
 0001:0000f0c0       ?_Xlength_error@std@@YAXPBD@Z 004100c0 f   libcpmtd:xthrow.obj
 0001:0000f0f0       ??0length_error@std@@QAE@PBD@Z 004100f0 f i libcpmtd:xthrow.obj
 0001:0000f120       ??_Glength_error@std@@UAEPAXI@Z 00410120 f i libcpmtd:xthrow.obj
 0001:0000f120       ??_Elength_error@std@@UAEPAXI@Z 00410120 f i libcpmtd:xthrow.obj
 0001:0000f150       ??1length_error@std@@UAE@XZ 00410150 f i libcpmtd:xthrow.obj
 0001:0000f170       ??0length_error@std@@QAE@ABV01@@Z 00410170 f i libcpmtd:xthrow.obj
 0001:0000f1a0       ?_Xout_of_range@std@@YAXPBD@Z 004101a0 f   libcpmtd:xthrow.obj
 0001:0000f1d0       ??0out_of_range@std@@QAE@PBD@Z 004101d0 f i libcpmtd:xthrow.obj
 0001:0000f200       ??_Gout_of_range@std@@UAEPAXI@Z 00410200 f i libcpmtd:xthrow.obj
 0001:0000f200       ??_Eout_of_range@std@@UAEPAXI@Z 00410200 f i libcpmtd:xthrow.obj
 0001:0000f230       ??1out_of_range@std@@UAE@XZ 00410230 f i libcpmtd:xthrow.obj
 0001:0000f250       ??0out_of_range@std@@QAE@ABV01@@Z 00410250 f i libcpmtd:xthrow.obj
 0001:0000f280       ?_Xoverflow_error@std@@YAXPBD@Z 00410280 f   libcpmtd:xthrow.obj
 0001:0000f2b0       ??0overflow_error@std@@QAE@PBD@Z 004102b0 f i libcpmtd:xthrow.obj
 0001:0000f2e0       ??0runtime_error@std@@QAE@PBD@Z 004102e0 f i libcpmtd:xthrow.obj
 0001:0000f310       ??_Eruntime_error@std@@UAEPAXI@Z 00410310 f i libcpmtd:xthrow.obj
 0001:0000f310       ??_Gruntime_error@std@@UAEPAXI@Z 00410310 f i libcpmtd:xthrow.obj
 0001:0000f340       ??1runtime_error@std@@UAE@XZ 00410340 f i libcpmtd:xthrow.obj
 0001:0000f360       ??_Goverflow_error@std@@UAEPAXI@Z 00410360 f i libcpmtd:xthrow.obj
 0001:0000f360       ??_Eoverflow_error@std@@UAEPAXI@Z 00410360 f i libcpmtd:xthrow.obj
 0001:0000f390       ??1overflow_error@std@@UAE@XZ 00410390 f i libcpmtd:xthrow.obj
 0001:0000f3b0       ??0overflow_error@std@@QAE@ABV01@@Z 004103b0 f i libcpmtd:xthrow.obj
 0001:0000f3e0       ??0runtime_error@std@@QAE@ABV01@@Z 004103e0 f i libcpmtd:xthrow.obj
 0001:0000f410       ?_Xruntime_error@std@@YAXPBD@Z 00410410 f   libcpmtd:xthrow.obj
 0001:0000f440       ?_Debug_message@std@@YAXPB_W0I@Z 00410440 f   libcpmtd:stdthrow.obj
 0001:0000f470       ?_Debug_message@std@@YAXPBG0I@Z 00410470 f   libcpmtd:stdthrow.obj
 0001:0000f490       __Once                     00410490 f   libcpmtd:xmtx.obj
 0001:0000f4f0       __Mtxinit                  004104f0 f   libcpmtd:xmtx.obj
 0001:0000f510       __Mtxdst                   00410510 f   libcpmtd:xmtx.obj
 0001:0000f530       __Mtxlock                  00410530 f   libcpmtd:xmtx.obj
 0001:0000f550       __Mtxunlock                00410550 f   libcpmtd:xmtx.obj
 0001:0000f570       @__security_check_cookie@4 00410570 f   LIBCMTD:secchk.obj
 0001:0000f580       __RTC_CheckEsp             00410580 f   LIBCMTD:_stack_.obj
 0001:0000f5b0       @_RTC_CheckStackVars@8     004105b0 f   LIBCMTD:_stack_.obj
 0001:0000f620       @_RTC_AllocaHelper@12      00410620 f   LIBCMTD:_stack_.obj
 0001:0000f660       @_RTC_CheckStackVars2@12   00410660 f   LIBCMTD:_stack_.obj
 0001:0000f740       _memset                    00410740 f   LIBCMTD:memset.obj
 0001:0000f7c0       __RTC_InitBase             004107c0 f   LIBCMTD:_init_.obj
 0001:0000f7f0       __RTC_Shutdown             004107f0 f   LIBCMTD:_init_.obj
 0001:0000f810       __vsnprintf_helper         00410810 f   LIBCMTD:vsnprnc.obj
 0001:0000fa00       __vsnprintf_c              00410a00 f   LIBCMTD:vsnprnc.obj
 0001:0000fa50       __vsnprintf_c_l            00410a50 f   LIBCMTD:vsnprnc.obj
 0001:0000faa0       __vsprintf_s_l             00410aa0 f   LIBCMTD:vsnprnc.obj
 0001:0000fd10       _vsprintf_s                00410d10 f   LIBCMTD:vsnprnc.obj
 0001:0000fd40       __vsnprintf_s_l            00410d40 f   LIBCMTD:vsnprnc.obj
 0001:000100e0       __vsnprintf_s              004110e0 f   LIBCMTD:vsnprnc.obj
 0001:00010110       __vsprintf_p               00411110 f   LIBCMTD:vsnprnc.obj
 0001:00010160       __vsprintf_p_l             00411160 f   LIBCMTD:vsnprnc.obj
 0001:000101b0       _fflush                    004111b0 f   LIBCMTD:fflush.obj
 0001:00010250       __fflush_nolock            00411250 f   LIBCMTD:fflush.obj
 0001:000102b0       __flush                    004112b0 f   LIBCMTD:fflush.obj
 0001:00010370       __flushall                 00411370 f   LIBCMTD:fflush.obj
 0001:00010540       _vfprintf_helper           00411540 f   LIBCMTD:vfprintf.obj
 0001:000107e0       __vfprintf_l               004117e0 f   LIBCMTD:vfprintf.obj
 0001:00010810       __vfprintf_s_l             00411810 f   LIBCMTD:vfprintf.obj
 0001:00010840       __vfprintf_p_l             00411840 f   LIBCMTD:vfprintf.obj
 0001:00010870       _vfprintf                  00411870 f   LIBCMTD:vfprintf.obj
 0001:000108a0       _vfprintf_s                004118a0 f   LIBCMTD:vfprintf.obj
 0001:000108d0       __vfprintf_p               004118d0 f   LIBCMTD:vfprintf.obj
 0001:00010900       _fclose                    00411900 f   LIBCMTD:fclose.obj
 0001:00010a10       __fclose_nolock            00411a10 f   LIBCMTD:fclose.obj
 0001:00010b10       _ftell                     00411b10 f   LIBCMTD:ftell.obj
 0001:00010c00       __ftell_nolock             00411c00 f   LIBCMTD:ftell.obj
 0001:00010ed0       _fseek                     00411ed0 f   LIBCMTD:fseek.obj
 0001:00011040       __fseek_nolock             00412040 f   LIBCMTD:fseek.obj
 0001:00011120       __fsopen                   00412120 f   LIBCMTD:fopen.obj
 0001:00011330       _fopen                     00412330 f   LIBCMTD:fopen.obj
 0001:00011350       _fopen_s                   00412350 f   LIBCMTD:fopen.obj
 0001:000113f0       _sprintf                   004123f0 f   LIBCMTD:sprintf.obj
 0001:00011590       __sprintf_l                00412590 f   LIBCMTD:sprintf.obj
 0001:000115c0       _sprintf_s                 004125c0 f   LIBCMTD:sprintf.obj
 0001:000115f0       __sprintf_s_l              004125f0 f   LIBCMTD:sprintf.obj
 0001:00011620       __snprintf_s               00412620 f   LIBCMTD:sprintf.obj
 0001:00011650       __snprintf_s_l             00412650 f   LIBCMTD:sprintf.obj
 0001:00011680       __sprintf_p                00412680 f   LIBCMTD:sprintf.obj
 0001:000116b0       __sprintf_p_l              004126b0 f   LIBCMTD:sprintf.obj
 0001:000116e0       __scprintf                 004126e0 f   LIBCMTD:sprintf.obj
 0001:00011700       __scprintf_p               00412700 f   LIBCMTD:sprintf.obj
 0001:00011720       __scprintf_l               00412720 f   LIBCMTD:sprintf.obj
 0001:00011750       __scprintf_p_l             00412750 f   LIBCMTD:sprintf.obj
 0001:00011780       ?_JumpToContinuation@@YGXPAXPAUEHRegistrationNode@@@Z 00412780 f   LIBCMTD:_trnsctrl_.obj
 0001:000117c0       ?_CallMemberFunction0@@YGXPAX0@Z 004127c0 f   LIBCMTD:_trnsctrl_.obj
 0001:000117d0       ?_CallMemberFunction1@@YGXPAX00@Z 004127d0 f   LIBCMTD:_trnsctrl_.obj
 0001:000117e0       ?_CallMemberFunction2@@YGXPAX00H@Z 004127e0 f   LIBCMTD:_trnsctrl_.obj
 0001:000117f0       ?_UnwindNestedFrames@@YGXPAUEHRegistrationNode@@PAUEHExceptionRecord@@@Z 004127f0 f   LIBCMTD:_trnsctrl_.obj
 0001:00011850       ___CxxFrameHandler         00412850 f   LIBCMTD:_trnsctrl_.obj
 0001:00011890       ___CxxFrameHandler3        00412890 f   LIBCMTD:_trnsctrl_.obj
 0001:000118d0       ___CxxFrameHandler2        004128d0 f   LIBCMTD:_trnsctrl_.obj
 0001:00011910       ___CxxLongjmpUnwind@4      00412910 f   LIBCMTD:_trnsctrl_.obj
 0001:00011940       ?_CallCatchBlock2@@YAPAXPAUEHRegistrationNode@@PBU_s_FuncInfo@@PAXHK@Z 00412940 f   LIBCMTD:_trnsctrl_.obj
 0001:00011a00       ?_CallSETranslator@@YAHPAUEHExceptionRecord@@PAUEHRegistrationNode@@PAX2PBU_s_FuncInfo@@H1@Z 00412a00 f   LIBCMTD:_trnsctrl_.obj
 0001:00011ba0       ?_GetRangeOfTrysToCheck@@YAPBU_s_TryBlockMapEntry@@PBU_s_FuncInfo@@HHPAI1@Z 00412ba0 f   LIBCMTD:_trnsctrl_.obj
 0001:00011c20       __CreateFrameInfo          00412c20 f   LIBCMTD:_trnsctrl_.obj
 0001:00011c50       __IsExceptionObjectToBeDestroyed 00412c50 f   LIBCMTD:_trnsctrl_.obj
 0001:00011c80       __FindAndUnlinkFrame       00412c80 f   LIBCMTD:_trnsctrl_.obj
 0001:00011ce0       __onexit                   00412ce0 f   LIBCMTD:onexit.obj
 0001:00011eb0       _atexit                    00412eb0 f   LIBCMTD:onexit.obj
 0001:00011ed0       ___onexitinit              00412ed0 f   LIBCMTD:onexit.obj
 0001:00011f30       ?name@type_info@@QBEPBDPAU__type_info_node@@@Z 00412f30 f   LIBCMTD:typinfo.obj
 0001:00011f50       ??1type_info@@UAE@XZ       00412f50 f   LIBCMTD:typinfo.obj
 0001:00011f80       ??_Etype_info@@UAEPAXI@Z   00412f80 f i LIBCMTD:typinfo.obj
 0001:00011f80       ??_Gtype_info@@UAEPAXI@Z   00412f80 f i LIBCMTD:typinfo.obj
 0001:00011fb0       ?_name_internal_method@type_info@@QBEPBDPAU__type_info_node@@@Z 00412fb0 f   LIBCMTD:typinfo.obj
 0001:00011fd0       ?_type_info_dtor_internal_method@type_info@@QAEXXZ 00412fd0 f   LIBCMTD:typinfo.obj
 0001:00011ff0       ??8type_info@@QBE_NABV0@@Z 00412ff0 f   LIBCMTD:typinfo.obj
 0001:00012020       ??9type_info@@QBE_NABV0@@Z 00413020 f   LIBCMTD:typinfo.obj
 0001:00012050       ?before@type_info@@QBEHABV1@@Z 00413050 f   LIBCMTD:typinfo.obj
 0001:00012080       ?raw_name@type_info@@QBEPBDXZ 00413080 f   LIBCMTD:typinfo.obj
 0001:000120a0       ??0type_info@@AAE@ABV0@@Z  004130a0 f   LIBCMTD:typinfo.obj
 0001:000120c0       ??4type_info@@AAEAAV0@ABV0@@Z 004130c0 f   LIBCMTD:typinfo.obj
 0001:000120e0       ??3@YAXPAX@Z               004130e0 f   LIBCMTD:dbgdel.obj
 0001:000121d0       ??2@YAPAXI@Z               004131d0 f   LIBCMTD:new.obj
 0001:00012250       ??0bad_alloc@std@@QAE@XZ   00413250 f i LIBCMTD:new.obj
 0001:00012280       __mbsicmp_l                00413280 f   LIBCMTD:mbsicmp.obj
 0001:00012670       ??0_LocaleUpdate@@QAE@PAUlocaleinfo_struct@@@Z 00413670 f i LIBCMTD:mbsicmp.obj
 0001:00012750       ??1_LocaleUpdate@@QAE@XZ   00413750 f i LIBCMTD:mbsicmp.obj
 0001:00012780       ?GetLocaleT@_LocaleUpdate@@QAEPAUlocaleinfo_struct@@XZ 00413780 f i LIBCMTD:mbsicmp.obj
 0001:00012790       __mbsicmp                  00413790 f   LIBCMTD:mbsicmp.obj
 0001:000127b0       _strlen                    004137b0 f   LIBCMTD:strlen.obj
 0001:00012840       _memcpy                    00413840 f   LIBCMTD:memcpy.obj
 0001:00012bb0       _memmove                   00413bb0 f   LIBCMTD:memmove.obj
 0001:00012f20       __CxxThrowException@8      00413f20 f   LIBCMTD:throw.obj
 0001:00012f80       ??0exception@std@@QAE@XZ   00413f80 f   LIBCMTD:stdexcpt.obj
 0001:00012fb0       ??_Eexception@std@@UAEPAXI@Z 00413fb0 f i LIBCMTD:stdexcpt.obj
 0001:00012fb0       ??_Gexception@std@@UAEPAXI@Z 00413fb0 f i LIBCMTD:stdexcpt.obj
 0001:00012fe0       ??0exception@std@@QAE@ABQBD@Z 00413fe0 f   LIBCMTD:stdexcpt.obj
 0001:00013020       ??0exception@std@@QAE@ABQBDH@Z 00414020 f   LIBCMTD:stdexcpt.obj
 0001:00013050       ??0exception@std@@QAE@ABV01@@Z 00414050 f   LIBCMTD:stdexcpt.obj
 0001:00013090       ??4exception@std@@QAEAAV01@ABV01@@Z 00414090 f   LIBCMTD:stdexcpt.obj
 0001:000130e0       ??1exception@std@@UAE@XZ   004140e0 f   LIBCMTD:stdexcpt.obj
 0001:00013100       ?what@exception@std@@UBEPBDXZ 00414100 f   LIBCMTD:stdexcpt.obj
 0001:00013130       ?_Copy_str@exception@std@@AAEXPBD@Z 00414130 f   LIBCMTD:stdexcpt.obj
 0001:000131a0       ?_Tidy@exception@std@@AAEXXZ 004141a0 f   LIBCMTD:stdexcpt.obj
 0001:000131e0       ??0bad_cast@std@@QAE@PBD@Z 004141e0 f   LIBCMTD:stdexcpt.obj
 0001:00013210       ??_Ebad_cast@std@@UAEPAXI@Z 00414210 f i LIBCMTD:stdexcpt.obj
 0001:00013210       ??_Gbad_cast@std@@UAEPAXI@Z 00414210 f i LIBCMTD:stdexcpt.obj
 0001:00013240       ??0bad_cast@std@@QAE@ABV01@@Z 00414240 f   LIBCMTD:stdexcpt.obj
 0001:00013270       ??1bad_cast@std@@UAE@XZ    00414270 f   LIBCMTD:stdexcpt.obj
 0001:00013290       ??0bad_typeid@std@@QAE@PBD@Z 00414290 f   LIBCMTD:stdexcpt.obj
 0001:000132c0       ??_Ebad_typeid@std@@UAEPAXI@Z 004142c0 f i LIBCMTD:stdexcpt.obj
 0001:000132c0       ??_Gbad_typeid@std@@UAEPAXI@Z 004142c0 f i LIBCMTD:stdexcpt.obj
 0001:000132f0       ??0bad_typeid@std@@QAE@ABV01@@Z 004142f0 f   LIBCMTD:stdexcpt.obj
 0001:00013320       ??1bad_typeid@std@@UAE@XZ  00414320 f   LIBCMTD:stdexcpt.obj
 0001:00013340       ??0__non_rtti_object@std@@QAE@PBD@Z 00414340 f   LIBCMTD:stdexcpt.obj
 0001:00013370       ??_E__non_rtti_object@std@@UAEPAXI@Z 00414370 f i LIBCMTD:stdexcpt.obj
 0001:00013370       ??_G__non_rtti_object@std@@UAEPAXI@Z 00414370 f i LIBCMTD:stdexcpt.obj
 0001:000133a0       ??0__non_rtti_object@std@@QAE@ABV01@@Z 004143a0 f   LIBCMTD:stdexcpt.obj
 0001:000133d0       ??1__non_rtti_object@std@@UAE@XZ 004143d0 f   LIBCMTD:stdexcpt.obj
 0001:000133f0       ___RTCastToVoid            004143f0 f   LIBCMTD:rtti.obj
 0001:000134c0       ___RTtypeid                004144c0 f   LIBCMTD:rtti.obj
 0001:000135f0       ___RTDynamicCast           004145f0 f   LIBCMTD:rtti.obj
 0001:00013cf0       __purecall                 00414cf0 f   LIBCMTD:purevirt.obj
 0001:00013d30       __set_purecall_handler     00414d30 f   LIBCMTD:purevirt.obj
 0001:00013d70       __get_purecall_handler     00414d70 f   LIBCMTD:purevirt.obj
 0001:00013d90       __CrtSetReportHookW2       00414d90 f   LIBCMTD:dbgrptw.obj
 0001:000140c0       __CrtDbgReportW            004150c0 f   LIBCMTD:dbgrptw.obj
 0001:00014100       __CrtDbgReportWV           00415100 f i LIBCMTD:dbgrptw.obj
 0001:00014130       ___crtMessageWindowW       00415130 f   LIBCMTD:dbgrptw.obj
 0001:00014530       __invoke_watson_if_error   00415530 f i LIBCMTD:dbgrptw.obj
 0001:00014560       __invoke_watson_if_oneof   00415560 f i LIBCMTD:dbgrptw.obj
 0001:000145a0       ?_CrtDbgReportW@@YAHHPBGH00ZZ 004155a0 f   LIBCMTD:dbgrptw.obj
 0001:000145e0       __initp_misc_invarg        004155e0 f   LIBCMTD:invarg.obj
 0001:000145f0       __invalid_parameter        004155f0 f   LIBCMTD:invarg.obj
 0001:00014650       __invoke_watson            00415650 f   LIBCMTD:invarg.obj
 0001:00014680       __call_reportfault         00415680 f   LIBCMTD:invarg.obj
 0001:000147d0       __set_invalid_parameter_handler 004157d0 f   LIBCMTD:invarg.obj
 0001:00014810       __get_invalid_parameter_handler 00415810 f   LIBCMTD:invarg.obj
 0001:00014840       ?_invalid_parameter@@YAXPBG00II@Z 00415840 f   LIBCMTD:invarg.obj
 0001:00014870       ?_invoke_watson@@YAXPBG00II@Z 00415870 f   LIBCMTD:invarg.obj
 0001:00014890       _atol                      00415890 f   LIBCMTD:atox.obj
 0001:000148b0       __atol_l                   004158b0 f   LIBCMTD:atox.obj
 0001:000148d0       _atoi                      004158d0 f   LIBCMTD:atox.obj
 0001:000148f0       __atoi_l                   004158f0 f   LIBCMTD:atox.obj
 0001:00014910       __atoi64                   00415910 f   LIBCMTD:atox.obj
 0001:00014930       __atoi64_l                 00415930 f   LIBCMTD:atox.obj
 0001:00014950       _WinMainCRTStartup         00415950 f   LIBCMTD:wincrt0.obj
 0001:00014bd0       ___report_gsfailure        00415bd0 f   LIBCMTD:gs_report.obj
 0001:00014ce0       ?_RTC_Failure@@YAXPAXH@Z   00415ce0 f   LIBCMTD:_error_.obj
 0001:00015090       ?_RTC_StackFailure@@YAXPAXPBD@Z 00416090 f   LIBCMTD:_error_.obj
 0001:00015190       ?_RTC_AllocaFailure@@YAXPAXPAU_RTC_ALLOCA_NODE@@H@Z 00416190 f   LIBCMTD:_error_.obj
 0001:00015340       __RTC_UninitUse            00416340 f   LIBCMTD:_error_.obj
 0001:00015430       __VEC_memzero              00416430 f   LIBCMTD:p4_memset.obj
 0001:000154f0       ___sse2_available_init     004164f0 f   LIBCMTD:cpu_disp.obj
 0001:00015510       __RTC_NumErrors            00416510 f   LIBCMTD:_userapi_.obj
 0001:00015520       __RTC_GetErrDesc           00416520 f   LIBCMTD:_userapi_.obj
 0001:00015540       __RTC_SetErrorType         00416540 f   LIBCMTD:_userapi_.obj
 0001:00015570       __RTC_SetErrorFunc         00416570 f   LIBCMTD:_userapi_.obj
 0001:00015590       __RTC_SetErrorFuncW        00416590 f   LIBCMTD:_userapi_.obj
 0001:000155b0       ?_RTC_GetErrorFunc@@YAP6AHHPBDH00ZZPBX@Z 004165b0 f   LIBCMTD:_userapi_.obj
 0001:000155c0       ?_RTC_GetErrorFuncW@@YAP6AHHPB_WH00ZZPBX@Z 004165c0 f   LIBCMTD:_userapi_.obj
 0001:000155d0       __chkesp                   004165d0 f   LIBCMTD:chkesp.obj
 0001:00015610       __CRT_RTC_INIT             00416610 f   LIBCMTD:chkesp.obj
 0001:00015620       __CRT_RTC_INITW            00416620 f   LIBCMTD:chkesp.obj
 0001:00015630       __flsbuf                   00416630 f   LIBCMTD:_flsbuf.obj
 0001:000158f0       __dosmaperr                004168f0 f   LIBCMTD:dosmap.obj
 0001:00015920       __get_errno_from_oserr     00416920 f   LIBCMTD:dosmap.obj
 0001:000159a0       __set_errno                004169a0 f   LIBCMTD:dosmap.obj
 0001:000159d0       __get_errno                004169d0 f   LIBCMTD:dosmap.obj
 0001:00015a50       __set_doserrno             00416a50 f   LIBCMTD:dosmap.obj
 0001:00015a80       __get_doserrno             00416a80 f   LIBCMTD:dosmap.obj
 0001:00015b00       __errno                    00416b00 f   LIBCMTD:dosmap.obj
 0001:00015b30       ___doserrno                00416b30 f   LIBCMTD:dosmap.obj
 0001:00015b60       __output_l                 00416b60 f   LIBCMTD:output.obj
 0001:00016fd0       _get_int_arg               00417fd0 f i LIBCMTD:output.obj
 0001:00016ff0       _get_int64_arg             00417ff0 f i LIBCMTD:output.obj
 0001:00017010       _get_short_arg             00418010 f i LIBCMTD:output.obj
 0001:00017030       __malloc_dbg               00418030 f   LIBCMTD:dbgheap.obj
 0001:00017060       __nh_malloc                00418060 f   LIBCMTD:dbgheap.obj
 0001:00017080       __nh_malloc_dbg            00418080 f   LIBCMTD:dbgheap.obj
 0001:00017160       __heap_alloc               00418160 f   LIBCMTD:dbgheap.obj
 0001:00017540       __heap_alloc_dbg           00418540 f   LIBCMTD:dbgheap.obj
 0001:000175a0       __calloc_dbg_impl          004185a0 f   LIBCMTD:dbgheap.obj
 0001:00017620       __calloc_dbg               00418620 f   LIBCMTD:dbgheap.obj
 0001:00017680       __recalloc                 00418680 f   LIBCMTD:dbgheap.obj
 0001:000176b0       __realloc_dbg              004186b0 f   LIBCMTD:dbgheap.obj
 0001:00017d50       __recalloc_dbg             00418d50 f   LIBCMTD:dbgheap.obj
 0001:00017e00       __expand                   00418e00 f   LIBCMTD:dbgheap.obj
 0001:00017e30       __expand_dbg               00418e30 f   LIBCMTD:dbgheap.obj
 0001:00017f40       __free_nolock              00418f40 f   LIBCMTD:dbgheap.obj
 0001:00017f60       __free_dbg                 00418f60 f   LIBCMTD:dbgheap.obj
 0001:00017fe0       __free_dbg_nolock          00418fe0 f   LIBCMTD:dbgheap.obj
 0001:000184c0       __msize                    004194c0 f   LIBCMTD:dbgheap.obj
 0001:000184e0       __msize_dbg                004194e0 f   LIBCMTD:dbgheap.obj
 0001:000186d0       __CrtSetBreakAlloc         004196d0 f   LIBCMTD:dbgheap.obj
 0001:000186f0       __CrtSetDbgBlockType       004196f0 f   LIBCMTD:dbgheap.obj
 0001:000187e0       __CrtSetAllocHook          004197e0 f   LIBCMTD:dbgheap.obj
 0001:00018800       __CrtGetAllocHook          00419800 f   LIBCMTD:dbgheap.obj
 0001:00018850       __CrtCheckMemory           00419850 f   LIBCMTD:dbgheap.obj
 0001:00018cb0       __CrtSetDbgFlag            00419cb0 f   LIBCMTD:dbgheap.obj
 0001:00018e00       __CrtDoForAllClientObjects 00419e00 f   LIBCMTD:dbgheap.obj
 0001:00018f20       __CrtIsValidPointer        00419f20 f   LIBCMTD:dbgheap.obj
 0001:00018f30       __CrtIsValidHeapPointer    00419f30 f   LIBCMTD:dbgheap.obj
 0001:00018f80       __CrtIsMemoryBlock         00419f80 f   LIBCMTD:dbgheap.obj
 0001:000190f0       __CrtReportBlockType       0041a0f0 f   LIBCMTD:dbgheap.obj
 0001:00019120       __CrtSetDumpClient         0041a120 f   LIBCMTD:dbgheap.obj
 0001:00019140       __CrtGetDumpClient         0041a140 f   LIBCMTD:dbgheap.obj
 0001:00019150       __CrtMemCheckpoint         0041a150 f   LIBCMTD:dbgheap.obj
 0001:00019370       __CrtMemDifference         0041a370 f   LIBCMTD:dbgheap.obj
 0001:00019590       __CrtMemDumpAllObjectsSince 0041a590 f   LIBCMTD:dbgheap.obj
 0001:00019a80       __CrtDumpMemoryLeaks       0041aa80 f   LIBCMTD:dbgheap.obj
 0001:00019b00       __CrtMemDumpStatistics     0041ab00 f   LIBCMTD:dbgheap.obj
 0001:00019c10       __aligned_malloc           0041ac10 f   LIBCMTD:dbgheap.obj
 0001:00019c30       __aligned_malloc_dbg       0041ac30 f   LIBCMTD:dbgheap.obj
 0001:00019c60       __aligned_realloc          0041ac60 f   LIBCMTD:dbgheap.obj
 0001:00019c90       __aligned_recalloc         0041ac90 f   LIBCMTD:dbgheap.obj
 0001:00019cc0       __aligned_realloc_dbg      0041acc0 f   LIBCMTD:dbgheap.obj
 0001:00019cf0       __aligned_recalloc_dbg     0041acf0 f   LIBCMTD:dbgheap.obj
 0001:00019d20       __aligned_offset_malloc    0041ad20 f   LIBCMTD:dbgheap.obj
 0001:00019d40       __aligned_offset_malloc_dbg 0041ad40 f   LIBCMTD:dbgheap.obj
 0001:00019f00       __aligned_offset_realloc   0041af00 f   LIBCMTD:dbgheap.obj
 0001:00019f30       __aligned_offset_recalloc  0041af30 f   LIBCMTD:dbgheap.obj
 0001:00019f60       __aligned_offset_realloc_dbg 0041af60 f   LIBCMTD:dbgheap.obj
 0001:0001a250       __aligned_offset_recalloc_dbg 0041b250 f   LIBCMTD:dbgheap.obj
 0001:0001a310       __aligned_free             0041b310 f   LIBCMTD:dbgheap.obj
 0001:0001a330       __aligned_free_dbg         0041b330 f   LIBCMTD:dbgheap.obj
 0001:0001a3e0       __CrtSetDebugFillThreshold 0041b3e0 f   LIBCMTD:dbgheap.obj
 0001:0001a400       __CrtSetCheckCount         0041b400 f   LIBCMTD:dbgheap.obj
 0001:0001a420       __CrtGetCheckCount         0041b420 f   LIBCMTD:dbgheap.obj
 0001:0001a430       __aligned_msize            0041b430 f   LIBCMTD:dbgheap.obj
 0001:0001a450       __aligned_msize_dbg        0041b450 f   LIBCMTD:dbgheap.obj
 0001:0001a560       __output_s_l               0041b560 f   LIBCMTD:outputs.obj
 0001:0001bb20       __validate_param_reuseA    0041cb20 f   LIBCMTD:outputp.obj
 0001:0001bd90       __output_p_l               0041cd90 f   LIBCMTD:outputp.obj
 0001:0001f990       _get_crtdouble_arg         00420990 f i LIBCMTD:outputp.obj
 0001:0001f9b0       ___iob_func                004209b0 f   LIBCMTD:_file.obj
 0001:0001f9c0       ___initstdio               004209c0 f   LIBCMTD:_file.obj
 0001:0001fb10       ___endstdio                00420b10 f   LIBCMTD:_file.obj
 0001:0001fb40       __lock_file                00420b40 f   LIBCMTD:_file.obj
 0001:0001fba0       __lock_file2               00420ba0 f   LIBCMTD:_file.obj
 0001:0001fbe0       __unlock_file              00420be0 f   LIBCMTD:_file.obj
 0001:0001fc40       __unlock_file2             00420c40 f   LIBCMTD:_file.obj
 0001:0001fc80       __except_handler4          00420c80 f   LIBCMTD:chandler4.obj
 0001:0001fea0       __commit                   00420ea0 f   LIBCMTD:commit.obj
 0001:000200c0       __fileno                   004210c0 f   LIBCMTD:fileno.obj
 0001:00020140       __write                    00421140 f   LIBCMTD:write.obj
 0001:00020370       __write_nolock             00421370 f   LIBCMTD:write.obj
 0001:00020eb0       __mtinitlocks              00421eb0 f   LIBCMTD:mlock.obj
 0001:00020f40       __mtdeletelocks            00421f40 f   LIBCMTD:mlock.obj
 0001:00021000       __mtinitlocknum            00422000 f   LIBCMTD:mlock.obj
 0001:00021150       __lock                     00422150 f   LIBCMTD:mlock.obj
 0001:00021190       __unlock                   00422190 f   LIBCMTD:mlock.obj
 0001:000211b0       __lockerr_exit             004221b0 f   LIBCMTD:mlock.obj
 0001:000211d0       __stbuf                    004221d0 f   LIBCMTD:_sftbuf.obj
 0001:00021330       __ftbuf                    00422330 f   LIBCMTD:_sftbuf.obj
 0001:000213c0       __ioinit                   004223c0 f   LIBCMTD:ioinit.obj
 0001:000217d0       __ioterm                   004227d0 f   LIBCMTD:ioinit.obj
 0001:00021870       __close                    00422870 f   LIBCMTD:close.obj
 0001:00021a80       __close_nolock             00422a80 f   LIBCMTD:close.obj
 0001:00021b50       __freebuf                  00422b50 f   LIBCMTD:_freebuf.obj
 0001:00021be0       __lseek                    00422be0 f   LIBCMTD:lseek.obj
 0001:00021e10       __lseek_nolock             00422e10 f   LIBCMTD:lseek.obj
 0001:00021ef0       __openfile                 00422ef0 f   LIBCMTD:_open.obj
 0001:000226b0       __getstream                004236b0 f   LIBCMTD:stream.obj
 0001:00022910       __local_unwind4            00423910 f   LIBCMTD:exsup4.obj
 0001:000229e6       __seh_longjmp_unwind4@4    004239e6 f   LIBCMTD:exsup4.obj
 0001:00022a02       @_EH4_CallFilterFunc@8     00423a02 f   LIBCMTD:exsup4.obj
 0001:00022a19       @_EH4_TransferToHandler@8  00423a19 f   LIBCMTD:exsup4.obj
 0001:00022a32       @_EH4_GlobalUnwind2@8      00423a32 f   LIBCMTD:exsup4.obj
 0001:00022a4b       @_EH4_LocalUnwind@16       00423a4b f   LIBCMTD:exsup4.obj
 0001:00022a70       __vsprintf_l               00423a70 f   LIBCMTD:vsprintf.obj
 0001:00022c10       _vsprintf                  00423c10 f   LIBCMTD:vsprintf.obj
 0001:00022c30       __vscprintf_helper         00423c30 f   LIBCMTD:vsprintf.obj
 0001:00022d10       __vscprintf                00423d10 f   LIBCMTD:vsprintf.obj
 0001:00022d30       __vscprintf_l              00423d30 f   LIBCMTD:vsprintf.obj
 0001:00022d50       __vscprintf_p              00423d50 f   LIBCMTD:vsprintf.obj
 0001:00022d70       __vscprintf_p_l            00423d70 f   LIBCMTD:vsprintf.obj
 0001:00022d90       ___InternalCxxFrameHandler 00423d90 f   LIBCMTD:frame.obj
 0001:00023390       ??0bad_exception@std@@QAE@PBD@Z 00424390 f i LIBCMTD:frame.obj
 0001:000233c0       ??1bad_exception@std@@UAE@XZ 004243c0 f i LIBCMTD:frame.obj
 0001:000233e0       ??_Gbad_exception@std@@UAEPAXI@Z 004243e0 f i LIBCMTD:frame.obj
 0001:000233e0       ??_Ebad_exception@std@@UAEPAXI@Z 004243e0 f i LIBCMTD:frame.obj
 0001:00023410       ??0bad_exception@std@@QAE@ABV01@@Z 00424410 f i LIBCMTD:frame.obj
 0001:000235d0       ___TypeMatch               004245d0 f   LIBCMTD:frame.obj
 0001:00023680       ___FrameUnwindFilter       00424680 f   LIBCMTD:frame.obj
 0001:00023700       ___FrameUnwindToState      00424700 f   LIBCMTD:frame.obj
 0001:00023c40       ___BuildCatchObjectHelper  00424c40 f   LIBCMTD:frame.obj
 0001:00023eb0       ___BuildCatchObject        00424eb0 f   LIBCMTD:frame.obj
 0001:00023fc0       ___DestructExceptionObject 00424fc0 f   LIBCMTD:frame.obj
 0001:00024070       ___AdjustPointer           00425070 f   LIBCMTD:frame.obj
 0001:000240c0       ?__uncaught_exception@@YA_NXZ 004250c0 f   LIBCMTD:frame.obj
 0001:000240e0       ___CxxExceptionFilter      004250e0 f   LIBCMTD:frame.obj
 0001:000242e0       ___CxxRegisterExceptionObject 004252e0 f   LIBCMTD:frame.obj
 0001:00024410       ___CxxDetectRethrow        00425410 f   LIBCMTD:frame.obj
 0001:000244a0       ___CxxUnregisterExceptionObject 004254a0 f   LIBCMTD:frame.obj
 0001:00024620       ___CxxQueryExceptionSize   00425620 f   LIBCMTD:frame.obj
 0001:00024630       ___CxxCallUnwindDtor       00425630 f   LIBCMTD:frame.obj
 0001:000246b0       ___CxxCallUnwindDelDtor    004256b0 f   LIBCMTD:frame.obj
 0001:00024730       ___CxxCallUnwindStdDelDtor 00425730 f   LIBCMTD:frame.obj
 0001:000247b0       ___CxxCallUnwindVecDtor    004257b0 f   LIBCMTD:frame.obj
 0001:000249e0       ?_is_exception_typeof@@YAHABVtype_info@@PAU_EXCEPTION_POINTERS@@@Z 004259e0 f   LIBCMTD:frame.obj
 0001:00024ac0       __CallSettingFrame@12      00425ac0 f   LIBCMTD:lowhelpr.obj
 0001:00024ae7       __NLG_Return               00425ae7     LIBCMTD:lowhelpr.obj
 0001:00024b10       __encoded_null             00425b10 f   LIBCMTD:tidtable.obj
 0001:00024b20       ___crtTlsAlloc@4           00425b20 f   LIBCMTD:tidtable.obj
 0001:00024b30       ___fls_getvalue@4          00425b30 f   LIBCMTD:tidtable.obj
 0001:00024b50       ___get_flsindex            00425b50 f   LIBCMTD:tidtable.obj
 0001:00024b60       ___set_flsgetvalue         00425b60 f   LIBCMTD:tidtable.obj
 0001:00024bb0       ___fls_setvalue@8          00425bb0 f   LIBCMTD:tidtable.obj
 0001:00024bd0       __mtinit                   00425bd0 f   LIBCMTD:tidtable.obj
 0001:00024dd0       __mtterm                   00425dd0 f   LIBCMTD:tidtable.obj
 0001:00024e30       __initptd                  00425e30 f   LIBCMTD:tidtable.obj
 0001:00024f60       __getptd_noexit            00425f60 f   LIBCMTD:tidtable.obj
 0001:00025020       __getptd                   00426020 f   LIBCMTD:tidtable.obj
 0001:00025050       __freefls@4                00426050 f   LIBCMTD:tidtable.obj
 0001:00025260       __freeptd                  00426260 f   LIBCMTD:tidtable.obj
 0001:000252e0       ___threadid                004262e0 f   LIBCMTD:tidtable.obj
 0001:000252f0       ___threadhandle            004262f0 f   LIBCMTD:tidtable.obj
 0001:00025300       __initp_eh_hooks           00426300 f   LIBCMTD:hooks.obj
 0001:00025320       ?terminate@@YAXXZ          00426320 f   LIBCMTD:hooks.obj
 0001:000253a0       ?unexpected@@YAXXZ         004263a0 f   LIBCMTD:hooks.obj
 0001:000253d0       ?_inconsistency@@YAXXZ     004263d0 f   LIBCMTD:hooks.obj
 0001:00025460       __cinit                    00426460 f   LIBCMTD:crt0dat.obj
 0001:00025500       _exit                      00426500 f   LIBCMTD:crt0dat.obj
 0001:00025520       __exit                     00426520 f   LIBCMTD:crt0dat.obj
 0001:00025540       __cexit                    00426540 f   LIBCMTD:crt0dat.obj
 0001:00025560       __c_exit                   00426560 f   LIBCMTD:crt0dat.obj
 0001:00025580       __amsg_exit                00426580 f   LIBCMTD:crt0dat.obj
 0001:000255b0       ___freeCrtMemory           004265b0 f   LIBCMTD:crt0dat.obj
 0001:000258f0       ___crtCorExitProcess       004268f0 f   LIBCMTD:crt0dat.obj
 0001:00025930       ___crtExitProcess          00426930 f   LIBCMTD:crt0dat.obj
 0001:00025950       __lockexit                 00426950 f   LIBCMTD:crt0dat.obj
 0001:00025970       __unlockexit               00426970 f   LIBCMTD:crt0dat.obj
 0001:00025990       __init_pointers            00426990 f   LIBCMTD:crt0dat.obj
 0001:00025a20       __initterm_e               00426a20 f   LIBCMTD:crt0dat.obj
 0001:00025a60       __get_wpgmptr              00426a60 f   LIBCMTD:crt0dat.obj
 0001:00025b50       __get_pgmptr               00426b50 f   LIBCMTD:crt0dat.obj
 0001:00025c40       ?_Type_info_dtor@type_info@@CAXPAV1@@Z 00426c40 f   LIBCMTD:typname.obj
 0001:00025d50       ?_Name_base@type_info@@CAPBDPBV1@PAU__type_info_node@@@Z 00426d50 f   LIBCMTD:typname.obj
 0001:00025f00       ?_Type_info_dtor_internal@type_info@@CAXPAV1@@Z 00426f00 f   LIBCMTD:typname.obj
 0001:00026010       ___unDNameHelper           00427010 f   LIBCMTD:typname.obj
 0001:00026050       ?_Name_base_internal@type_info@@CAPBDPBV1@PAU__type_info_node@@@Z 00427050 f   LIBCMTD:typname.obj
 0001:00026210       ___clean_type_info_names_internal 00427210 f   LIBCMTD:typname.obj
 0001:000262d0       _strcmp                    004272d0 f   LIBCMTD:strcmp.obj
 0001:00026360       __initp_heap_handler       00427360 f   LIBCMTD:handler.obj
 0001:00026370       ?_set_new_handler@@YAP6AHI@ZP6AHI@Z@Z 00427370 f   LIBCMTD:handler.obj
 0001:000263b0       ?_set_new_handler@@YAP6AHI@ZH@Z 004273b0 f   LIBCMTD:handler.obj
 0001:000263f0       ?_query_new_handler@@YAP6AHI@ZXZ 004273f0 f   LIBCMTD:handler.obj
 0001:00026410       __callnewh                 00427410 f   LIBCMTD:handler.obj
 0001:00026450       _malloc                    00427450 f   LIBCMTD:dbgmalloc.obj
 0001:00026480       ___crtLCMapStringA         00427480 f   LIBCMTD:a_map.obj
 0001:00026770       __MarkAllocaS              00427770 f i LIBCMTD:a_map.obj
 0001:000267a0       __freea                    004277a0 f i LIBCMTD:a_map.obj
 0001:00026860       __stricmp_l                00427860 f   LIBCMTD:stricmp.obj
 0001:00026a10       ___ascii_stricmp           00427a10 f   LIBCMTD:stricmp.obj
 0001:00026a90       __stricmp                  00427a90 f   LIBCMTD:stricmp.obj
 0001:00026ba0       ___updatetmbcinfo          00427ba0 f   LIBCMTD:mbctype.obj
 0001:00026cb0       __setmbcp                  00427cb0 f   LIBCMTD:mbctype.obj
 0001:00027060       __setmbcp_nolock           00428060 f   LIBCMTD:mbctype.obj
 0001:00027850       __getmbcp                  00428850 f   LIBCMTD:mbctype.obj
 0001:000278c0       ___initmbctable            004288c0 f   LIBCMTD:mbctype.obj
 0001:000278f0       ___addlocaleref            004288f0 f   LIBCMTD:localref.obj
 0001:00027a10       ___removelocaleref         00428a10 f   LIBCMTD:localref.obj
 0001:00027b40       ___freetlocinfo            00428b40 f   LIBCMTD:localref.obj
 0001:00027e20       __updatetlocinfoEx_nolock  00428e20 f   LIBCMTD:localref.obj
 0001:00027ea0       ___updatetlocinfo          00428ea0 f   LIBCMTD:localref.obj
 0001:00027f70       __VEC_memcpy               00428f70 f   LIBCMTD:p4_memcpy.obj
 0001:00028080       _strcpy_s                  00429080 f   LIBCMTD:strcpy_s.obj
 0001:00028360       _free                      00429360 f   LIBCMTD:dbgfree.obj
 0001:00028380       _abort                     00429380 f   LIBCMTD:abort.obj
 0001:000283e0       __set_abort_behavior       004293e0 f   LIBCMTD:abort.obj
 0001:00028410       __FF_MSGBANNER             00429410 f   LIBCMTD:crt0msg.obj
 0001:00028460       __GET_RTERRMSG             00429460 f   LIBCMTD:crt0msg.obj
 0001:000284b0       __NMSG_WRITE               004294b0 f   LIBCMTD:crt0msg.obj
 0001:000287f0       ___getlocaleinfo           004297f0 f   LIBCMTD:inithelp.obj
 0001:00028ad0       __initp_misc_purevirt      00429ad0 f   LIBCMTD:inithelp.obj
 0001:00028ae0       __CrtDbgBreak              00429ae0 f   LIBCMTD:dbgrptt.obj
 0001:00028af0       __CrtSetReportMode         00429af0 f   LIBCMTD:dbgrptt.obj
 0001:00028c30       __CrtSetReportFile         00429c30 f   LIBCMTD:dbgrptt.obj
 0001:00028d30       __CrtSetReportHook         00429d30 f   LIBCMTD:dbgrptt.obj
 0001:00028d50       __CrtGetReportHook         00429d50 f   LIBCMTD:dbgrptt.obj
 0001:00028d60       __VCrtDbgReportA           00429d60 f   LIBCMTD:dbgrptt.obj
 0001:00029590       __VCrtDbgReportW           0042a590 f   LIBCMTD:dbgrptt.obj
 0001:00029ec0       __initp_misc_winsig        0042aec0 f   LIBCMTD:winsig.obj
 0001:00029ef0       _signal                    0042aef0 f   LIBCMTD:winsig.obj
 0001:0002a390       _raise                     0042b390 f   LIBCMTD:winsig.obj
 0001:0002a700       ___get_sigabrt             0042b700 f   LIBCMTD:winsig.obj
 0001:0002a720       ___fpecode                 0042b720 f   LIBCMTD:winsig.obj
 0001:0002a730       ___pxcptinfoptrs           0042b730 f   LIBCMTD:winsig.obj
 0001:0002a740       ___crtMessageBoxW          0042b740 f   LIBCMTD:crtmboxw.obj
 0001:0002a960       __swprintf                 0042b960 f   LIBCMTD:swprintf.obj
 0001:0002ab60       ___swprintf_l              0042bb60 f   LIBCMTD:swprintf.obj
 0001:0002ab90       _swprintf_s                0042bb90 f   LIBCMTD:swprintf.obj
 0001:0002abc0       __snwprintf_s              0042bbc0 f   LIBCMTD:swprintf.obj
 0001:0002abf0       __swprintf_p               0042bbf0 f   LIBCMTD:swprintf.obj
 0001:0002ac20       __swprintf_s_l             0042bc20 f   LIBCMTD:swprintf.obj
 0001:0002ac50       __snwprintf_s_l            0042bc50 f   LIBCMTD:swprintf.obj
 0001:0002ac80       __swprintf_p_l             0042bc80 f   LIBCMTD:swprintf.obj
 0001:0002acb0       __scwprintf                0042bcb0 f   LIBCMTD:swprintf.obj
 0001:0002acd0       __scwprintf_p              0042bcd0 f   LIBCMTD:swprintf.obj
 0001:0002acf0       __scwprintf_l              0042bcf0 f   LIBCMTD:swprintf.obj
 0001:0002ad20       __scwprintf_p_l            0042bd20 f   LIBCMTD:swprintf.obj
 0001:0002ad50       _memcpy_s                  0042bd50 f   LIBCMTD:memcpy_s.obj
 0001:0002aee0       _wcslen                    0042bee0 f   LIBCMTD:wcslen.obj
 0001:0002af10       _wcscpy_s                  0042bf10 f   LIBCMTD:wcscpy_s.obj
 0001:0002b1f0       __alloca_probe             0042c1f0     LIBCMTD:chkstk.obj
 0001:0002b1f0       __chkstk                   0042c1f0 f   LIBCMTD:chkstk.obj
 0001:0002b220       __CrtDefaultAllocHook      0042c220 f   LIBCMTD:dbghook.obj
 0001:0002b230       __crt_debugger_hook        0042c230 f   LIBCMTD:dbghook.obj
 0001:0002b250       _strtol                    0042c250 f   LIBCMTD:strtol.obj
 0001:0002b780       __strtol_l                 0042c780 f   LIBCMTD:strtol.obj
 0001:0002b7b0       _strtoul                   0042c7b0 f   LIBCMTD:strtol.obj
 0001:0002b800       __strtoul_l                0042c800 f   LIBCMTD:strtol.obj
 0001:0002b830       __strtoi64                 0042c830 f   LIBCMTD:strtoq.obj
 0001:0002bda0       __strtoi64_l               0042cda0 f   LIBCMTD:strtoq.obj
 0001:0002bdd0       __strtoui64                0042cdd0 f   LIBCMTD:strtoq.obj
 0001:0002be20       __strtoui64_l              0042ce20 f   LIBCMTD:strtoq.obj
 0001:0002be50       ?__CxxUnhandledExceptionFilter@@YGJPAU_EXCEPTION_POINTERS@@@Z 0042ce50 f   LIBCMTD:unhandld.obj
 0001:0002bec0       ___CxxSetUnhandledExceptionFilter 0042cec0 f   LIBCMTD:unhandld.obj
 0001:0002bee0       ___security_init_cookie    0042cee0 f   LIBCMTD:gs_support.obj
 0001:0002bfc0       ___CppXcptFilter           0042cfc0 f   LIBCMTD:winxfltr.obj
 0001:0002bff0       __XcptFilter               0042cff0 f   LIBCMTD:winxfltr.obj
 0001:0002c250       __wincmdln                 0042d250 f   LIBCMTD:wincmdln.obj
 0001:0002c320       __setenvp                  0042d320 f   LIBCMTD:stdenvp.obj
 0001:0002c4c0       __setargv                  0042d4c0 f   LIBCMTD:stdargv.obj
 0001:0002c5e0       __set_pgmptr               0042d5e0 f i LIBCMTD:stdargv.obj
 0001:0002c950       ___crtGetEnvironmentStringsA 0042d950 f   LIBCMTD:a_env.obj
 0001:0002ca50       __RTC_Initialize           0042da50 f   LIBCMTD:_initsect_.obj
 0001:0002ca80       __RTC_Terminate            0042da80 f   LIBCMTD:_initsect_.obj
 0001:0002cab0       __heap_init                0042dab0 f   LIBCMTD:heapinit.obj
 0001:0002caf0       __heap_term                0042daf0 f   LIBCMTD:heapinit.obj
 0001:0002cb10       __get_heap_handle          0042db10 f   LIBCMTD:heapinit.obj
 0001:0002cb50       ?_RTC_GetSrcLine@@YAHPAEPA_WKPAH1K@Z 0042db50 f   LIBCMTD:_pdblkup_.obj
 0001:0002d000       __CrtSetReportHook2        0042e000 f   LIBCMTD:dbgrpt.obj
 0001:0002d330       __CrtDbgReport             0042e330 f   LIBCMTD:dbgrpt.obj
 0001:0002d370       __CrtDbgReportV            0042e370 f i LIBCMTD:dbgrpt.obj
 0001:0002d3a0       ___crtMessageWindowA       0042e3a0 f   LIBCMTD:dbgrpt.obj
 0001:0002d7a0       __lseeki64                 0042e7a0 f   LIBCMTD:lseeki64.obj
 0001:0002d9f0       __lseeki64_nolock          0042e9f0 f   LIBCMTD:lseeki64.obj
 0001:0002dae0       __getbuf                   0042eae0 f   LIBCMTD:_getbuf.obj
 0001:0002dbb0       __isatty                   0042ebb0 f   LIBCMTD:isatty.obj
 0001:0002dc70       __initp_misc_cfltcvt_tab   0042ec70 f   LIBCMTD:cmiscdat.obj
 0001:0002dcb0       _printf                    0042ecb0 f   LIBCMTD:printf.obj
 0001:0002ddf0       __printf_l                 0042edf0 f   LIBCMTD:printf.obj
 0001:0002de20       __printf_s_l               0042ee20 f   LIBCMTD:printf.obj
 0001:0002de50       _printf_s                  0042ee50 f   LIBCMTD:printf.obj
 0001:0002de80       __printf_p_l               0042ee80 f   LIBCMTD:printf.obj
 0001:0002deb0       __printf_p                 0042eeb0 f   LIBCMTD:printf.obj
 0001:0002dee0       __set_printf_count_output  0042eee0 f   LIBCMTD:printf.obj
 0001:0002df30       __get_printf_count_output  0042ef30 f   LIBCMTD:printf.obj
 0001:0002df50       __wctomb_s_l               0042ef50 f   LIBCMTD:wctomb.obj
 0001:0002e250       _wctomb_s                  0042f250 f   LIBCMTD:wctomb.obj
 0001:0002e280       __wctomb_l                 0042f280 f   LIBCMTD:wctomb.obj
 0001:0002e300       _wctomb                    0042f300 f   LIBCMTD:wctomb.obj
 0001:0002e350       __isleadbyte_l             0042f350 f i LIBCMTD:_wctype.obj
 0001:0002e3a0       _isleadbyte                0042f3a0 f i LIBCMTD:_wctype.obj
 0001:0002e3c0       __iswalpha_l               0042f3c0 f i LIBCMTD:_wctype.obj
 0001:0002e3e0       _iswalpha                  0042f3e0 f i LIBCMTD:_wctype.obj
 0001:0002e400       __iswupper_l               0042f400 f i LIBCMTD:_wctype.obj
 0001:0002e420       _iswupper                  0042f420 f i LIBCMTD:_wctype.obj
 0001:0002e440       __iswlower_l               0042f440 f i LIBCMTD:_wctype.obj
 0001:0002e460       _iswlower                  0042f460 f i LIBCMTD:_wctype.obj
 0001:0002e480       __iswdigit_l               0042f480 f i LIBCMTD:_wctype.obj
 0001:0002e4a0       _iswdigit                  0042f4a0 f i LIBCMTD:_wctype.obj
 0001:0002e4c0       __iswxdigit_l              0042f4c0 f i LIBCMTD:_wctype.obj
 0001:0002e4e0       _iswxdigit                 0042f4e0 f i LIBCMTD:_wctype.obj
 0001:0002e500       __iswspace_l               0042f500 f i LIBCMTD:_wctype.obj
 0001:0002e520       _iswspace                  0042f520 f i LIBCMTD:_wctype.obj
 0001:0002e540       __iswpunct_l               0042f540 f i LIBCMTD:_wctype.obj
 0001:0002e560       _iswpunct                  0042f560 f i LIBCMTD:_wctype.obj
 0001:0002e580       __iswalnum_l               0042f580 f i LIBCMTD:_wctype.obj
 0001:0002e5a0       _iswalnum                  0042f5a0 f i LIBCMTD:_wctype.obj
 0001:0002e5c0       __iswprint_l               0042f5c0 f i LIBCMTD:_wctype.obj
 0001:0002e5e0       _iswprint                  0042f5e0 f i LIBCMTD:_wctype.obj
 0001:0002e600       __iswgraph_l               0042f600 f i LIBCMTD:_wctype.obj
 0001:0002e620       _iswgraph                  0042f620 f i LIBCMTD:_wctype.obj
 0001:0002e640       __iswcntrl_l               0042f640 f i LIBCMTD:_wctype.obj
 0001:0002e660       _iswcntrl                  0042f660 f i LIBCMTD:_wctype.obj
 0001:0002e680       _iswascii                  0042f680 f i LIBCMTD:_wctype.obj
 0001:0002e6a0       __iswcsym_l                0042f6a0 f i LIBCMTD:_wctype.obj
 0001:0002e6e0       ___iswcsym                 0042f6e0 f i LIBCMTD:_wctype.obj
 0001:0002e720       __iswcsymf_l               0042f720 f i LIBCMTD:_wctype.obj
 0001:0002e760       ___iswcsymf                0042f760 f i LIBCMTD:_wctype.obj
 0001:0002e7a0       __aulldiv                  0042f7a0 f   LIBCMTD:ulldiv.obj
 0001:0002e810       __aullrem                  0042f810 f   LIBCMTD:ullrem.obj
 0001:0002e890       __malloc_base              0042f890 f   LIBCMTD:malloc.obj
 0001:0002e920       __heap_alloc_base          0042f920 f i LIBCMTD:malloc.obj
 0001:0002e980       __expand_base              0042f980 f   LIBCMTD:expand.obj
 0001:0002eae0       __realloc_base             0042fae0 f   LIBCMTD:realloc.obj
 0001:0002ebe0       __free_base                0042fbe0 f   LIBCMTD:free.obj
 0001:0002ec30       __heapchk                  0042fc30 f   LIBCMTD:heapchk.obj
 0001:0002ec60       __heapset                  0042fc60 f   LIBCMTD:heapchk.obj
 0001:0002ec70       __chvalidator              0042fc70 f   LIBCMTD:isctype.obj
 0001:0002ecc0       __chvalidator_l            0042fcc0 f   LIBCMTD:isctype.obj
 0001:0002ed70       __isctype_l                0042fd70 f   LIBCMTD:isctype.obj
 0001:0002ee90       __isctype                  0042fe90 f   LIBCMTD:isctype.obj
 0001:0002eed0       __fcloseall                0042fed0 f   LIBCMTD:closeall.obj
 0001:0002f000       __ValidateImageBase        00430000 f   LIBCMTD:pesect.obj
 0001:0002f060       __FindPESection            00430060 f   LIBCMTD:pesect.obj
 0001:0002f0e0       __IsNonwritableInCurrentImage 004300e0 f   LIBCMTD:pesect.obj
 0001:0002f200       __alloc_osfhnd             00430200 f   LIBCMTD:osfinfo.obj
 0001:0002f4b0       __set_osfhnd               004304b0 f   LIBCMTD:osfinfo.obj
 0001:0002f580       __free_osfhnd              00430580 f   LIBCMTD:osfinfo.obj
 0001:0002f670       __get_osfhandle            00430670 f   LIBCMTD:osfinfo.obj
 0001:0002f7e0       __open_osfhandle           004307e0 f   LIBCMTD:osfinfo.obj
 0001:0002fa10       ___lock_fhandle            00430a10 f   LIBCMTD:osfinfo.obj
 0001:0002fb10       __unlock_fhandle           00430b10 f   LIBCMTD:osfinfo.obj
 0001:0002fb40       __putwch                   00430b40 f   LIBCMTD:putwch.obj
 0001:0002fbd0       __putwch_nolock            00430bd0 f   LIBCMTD:putwch.obj
 0001:0002fc20       __mbtowc_l                 00430c20 f   LIBCMTD:mbtowc.obj
 0001:0002fe40       _mbtowc                    00430e40 f   LIBCMTD:mbtowc.obj
 0001:0002fe60       __open                     00430e60 f   LIBCMTD:open.obj
 0001:0002ffe0       __sopen_helper             00430fe0 f   LIBCMTD:open.obj
 0001:00031240       __sopen                    00432240 f   LIBCMTD:open.obj
 0001:000312c0       __sopen_s                  004322c0 f   LIBCMTD:open.obj
 0001:000312f0       __mbsnbicmp_l              004322f0 f   LIBCMTD:mbsnbicm.obj
 0001:00031790       __mbsnbicmp                00432790 f   LIBCMTD:mbsnbicm.obj
 0001:000317b0       __mbsnbcmp_l               004327b0 f   LIBCMTD:mbsnbcmp.obj
 0001:00031a90       __mbsnbcmp                 00432a90 f   LIBCMTD:mbsnbcmp.obj
 0001:00031ab0       __global_unwind2           00432ab0 f   LIBCMTD:exsup.obj
 0001:00031b15       __local_unwind2            00432b15 f   LIBCMTD:exsup.obj
 0001:00031b99       __abnormal_termination     00432b99 f   LIBCMTD:exsup.obj
 0001:00031bbc       __NLG_Notify1              00432bbc f   LIBCMTD:exsup.obj
 0001:00031bc5       __NLG_Notify               00432bc5 f   LIBCMTD:exsup.obj
 0001:00031bdc       __NLG_Dispatch             00432bdc     LIBCMTD:exsup.obj
 0001:00031bdc       __NLG_Dispatch2            00432bdc     LIBCMTD:exsup.obj
 0001:00031be4       __NLG_Call                 00432be4 f   LIBCMTD:exsup.obj
 0001:00031be6       __NLG_Return2              00432be6     LIBCMTD:exsup.obj
 0001:00031bf0       ?_ValidateRead@@YAHPBXI@Z  00432bf0 f   LIBCMTD:validate.obj
 0001:00031c20       ?_ValidateWrite@@YAHPAXI@Z 00432c20 f   LIBCMTD:validate.obj
 0001:00031c50       ?_ValidateExecute@@YAHP6GHXZ@Z 00432c50 f   LIBCMTD:validate.obj
 0001:00031c80       __initp_misc_rand_s        00432c80 f   LIBCMTD:rand_s.obj
 0001:00031c90       _rand_s                    00432c90 f   LIBCMTD:rand_s.obj
 0001:00031eb0       ___unDName                 00432eb0 f   LIBCMTD:undname.obj
 0001:00031f90       ?Constructor@_HeapManager@@QAEXP6APAXI@ZP6AXPAX@Z@Z 00432f90 f i LIBCMTD:undname.obj
 0001:00031fd0       ?Destructor@_HeapManager@@QAEXXZ 00432fd0 f i LIBCMTD:undname.obj
 0001:00032020       ___unDNameEx               00433020 f   LIBCMTD:undname.obj
 0001:00032100       ??0UnDecorator@@QAE@PADPBDHP6APADJ@ZK@Z 00433100 f i LIBCMTD:undname.obj
 0001:000321a0       ??BUnDecorator@@QAEPADXZ   004331a0 f i LIBCMTD:undname.obj
 0001:000323d0       ?dbGetString@DName@@QBEPADXZ 004333d0 f   LIBCMTD:undname.obj
 0001:00032400       ?getDecoratedName@UnDecorator@@CA?AVDName@@XZ 00433400 f   LIBCMTD:undname.obj
 0001:00032710       ?getSymbolName@UnDecorator@@CA?AVDName@@XZ 00433710 f i LIBCMTD:undname.obj
 0001:00032790       ?getZName@UnDecorator@@CA?AVDName@@_N0@Z 00433790 f   LIBCMTD:undname.obj
 0001:00032a30       ?getOperatorName@UnDecorator@@CA?AVDName@@_NPA_N@Z 00433a30 f i LIBCMTD:undname.obj
 0001:000333a0       ?getStringEncoding@UnDecorator@@CA?AVDName@@PADH@Z 004343a0 f   LIBCMTD:undname.obj
 0001:000334a0       ?getScope@UnDecorator@@CA?AVDName@@XZ 004344a0 f   LIBCMTD:undname.obj
 0001:00033880       ?getSignedDimension@UnDecorator@@CA?AVDName@@XZ 00434880 f   LIBCMTD:undname.obj
 0001:00033900       ?getDimension@UnDecorator@@CA?AVDName@@_N@Z 00434900 f   LIBCMTD:undname.obj
 0001:00033bb0       ?getNumberOfDimensions@UnDecorator@@CAHXZ 00434bb0 f   LIBCMTD:undname.obj
 0001:00033cb0       ?getTemplateName@UnDecorator@@CA?AVDName@@_N@Z 00434cb0 f   LIBCMTD:undname.obj
 0001:00033e70       ?getTemplateArgumentList@UnDecorator@@CA?AVDName@@XZ 00434e70 f   LIBCMTD:undname.obj
 0001:000340f0       ?getTemplateConstant@UnDecorator@@CA?AVDName@@XZ 004350f0 f   LIBCMTD:undname.obj
 0001:00034580       ?composeDeclaration@UnDecorator@@CA?AVDName@@ABV2@@Z 00435580 f i LIBCMTD:undname.obj
 0001:00035b80       ?getTypeEncoding@UnDecorator@@CAHXZ 00436b80 f i LIBCMTD:undname.obj
 0001:000365c0       ?getBasedType@UnDecorator@@CA?AVDName@@XZ 004375c0 f   LIBCMTD:undname.obj
 0001:00036680       ?getScopedName@UnDecorator@@CA?AVDName@@XZ 00437680 f   LIBCMTD:undname.obj
 0001:000367a0       ?getCallingConvention@UnDecorator@@CA?AVDName@@XZ 004377a0 f   LIBCMTD:undname.obj
 0001:00036920       ?getReturnType@UnDecorator@@CA?AVDName@@PAV2@@Z 00437920 f   LIBCMTD:undname.obj
 0001:00036970       ?getDataType@UnDecorator@@CA?AVDName@@PAV2@@Z 00437970 f   LIBCMTD:undname.obj
 0001:00036a90       ?getPrimaryDataType@UnDecorator@@CA?AVDName@@ABV2@@Z 00437a90 f   LIBCMTD:undname.obj
 0001:00036e30       ?getArgumentTypes@UnDecorator@@CA?AVDName@@XZ 00437e30 f   LIBCMTD:undname.obj
 0001:00036f90       ?getArgumentList@UnDecorator@@CA?AVDName@@XZ 00437f90 f   LIBCMTD:undname.obj
 0001:000370e0       ?getThrowTypes@UnDecorator@@CA?AVDName@@XZ 004380e0 f   LIBCMTD:undname.obj
 0001:00037190       ?getBasicDataType@UnDecorator@@CA?AVDName@@ABV2@@Z 00438190 f   LIBCMTD:undname.obj
 0001:00037750       ?getECSUDataType@UnDecorator@@CA?AVDName@@XZ 00438750 f   LIBCMTD:undname.obj
 0001:00037920       ?getECSUName@UnDecorator@@CA?AVDName@@XZ 00438920 f i LIBCMTD:undname.obj
 0001:00037940       ?getEnumType@UnDecorator@@CA?AVDName@@XZ 00438940 f i LIBCMTD:undname.obj
 0001:00037a90       ?getFunctionIndirectType@UnDecorator@@CA?AVDName@@ABV2@@Z 00438a90 f   LIBCMTD:undname.obj
 0001:00037ed0       ?getPtrRefType@UnDecorator@@CA?AVDName@@ABV2@0PBD@Z 00438ed0 f   LIBCMTD:undname.obj
 0001:00038030       ?getExtendedDataIndirectType@UnDecorator@@CA?AVDName@@AAPBDAA_NH@Z 00439030 f   LIBCMTD:undname.obj
 0001:00038250       ?getDataIndirectType@UnDecorator@@CA?AVDName@@ABV2@PBD0H@Z 00439250 f   LIBCMTD:undname.obj
 0001:00038950       ?getPtrRefDataType@UnDecorator@@CA?AVDName@@ABV2@H@Z 00439950 f i LIBCMTD:undname.obj
 0001:00038a90       ?getArrayType@UnDecorator@@CA?AVDName@@ABV2@@Z 00439a90 f i LIBCMTD:undname.obj
 0001:00038cc0       ?getLexicalFrame@UnDecorator@@CA?AVDName@@XZ 00439cc0 f i LIBCMTD:undname.obj
 0001:00038d00       ?getThisType@UnDecorator@@CA?AVDName@@XZ 00439d00 f i LIBCMTD:undname.obj
 0001:00038d40       ?getPointerType@UnDecorator@@CA?AVDName@@ABV2@0@Z 00439d40 f i LIBCMTD:undname.obj
 0001:00038d70       ?getPointerTypeArray@UnDecorator@@CA?AVDName@@ABV2@0@Z 00439d70 f i LIBCMTD:undname.obj
 0001:00038da0       ?getReferenceType@UnDecorator@@CA?AVDName@@ABV2@0PBD@Z 00439da0 f i LIBCMTD:undname.obj
 0001:00038dd0       ?getDisplacement@UnDecorator@@CA?AVDName@@XZ 00439dd0 f i LIBCMTD:undname.obj
 0001:00038df0       ?getCallIndex@UnDecorator@@CA?AVDName@@XZ 00439df0 f i LIBCMTD:undname.obj
 0001:00038e10       ?getGuardNumber@UnDecorator@@CA?AVDName@@XZ 00439e10 f i LIBCMTD:undname.obj
 0001:00038e30       ?getVbTableType@UnDecorator@@CA?AVDName@@ABV2@@Z 00439e30 f i LIBCMTD:undname.obj
 0001:00038e50       ?getVCallThunkType@UnDecorator@@CA?AVDName@@XZ 00439e50 f i LIBCMTD:undname.obj
 0001:00038eb0       ?getVfTableType@UnDecorator@@CA?AVDName@@ABV2@@Z 00439eb0 f i LIBCMTD:undname.obj
 0001:00039070       ?getStorageConvention@UnDecorator@@CA?AVDName@@XZ 0043a070 f i LIBCMTD:undname.obj
 0001:00039090       ?getDataIndirectType@UnDecorator@@CA?AVDName@@XZ 0043a090 f i LIBCMTD:undname.obj
 0001:000390d0       ?getVdispMapType@UnDecorator@@CA?AVDName@@ABV2@@Z 0043a0d0 f i LIBCMTD:undname.obj
 0001:00039140       ?getExternalDataType@UnDecorator@@CA?AVDName@@ABV2@@Z 0043a140 f i LIBCMTD:undname.obj
 0001:000391d0       ?doMSKeywords@UnDecorator@@SAHXZ 0043a1d0 f i LIBCMTD:undname.obj
 0001:000391f0       ?doPtr64@UnDecorator@@SAHXZ 0043a1f0 f i LIBCMTD:undname.obj
 0001:00039210       ?doFunctionReturns@UnDecorator@@SAHXZ 0043a210 f i LIBCMTD:undname.obj
 0001:00039230       ?doAllocationModel@UnDecorator@@SAHXZ 0043a230 f i LIBCMTD:undname.obj
 0001:00039250       ?doAllocationLanguage@UnDecorator@@SAHXZ 0043a250 f i LIBCMTD:undname.obj
 0001:00039270       ?doThisTypes@UnDecorator@@SAHXZ 0043a270 f i LIBCMTD:undname.obj
 0001:00039290       ?doAccessSpecifiers@UnDecorator@@SAHXZ 0043a290 f i LIBCMTD:undname.obj
 0001:000392b0       ?doThrowTypes@UnDecorator@@SAHXZ 0043a2b0 f i LIBCMTD:undname.obj
 0001:000392d0       ?doMemberTypes@UnDecorator@@SAHXZ 0043a2d0 f i LIBCMTD:undname.obj
 0001:000392f0       ?doNameOnly@UnDecorator@@SAHXZ 0043a2f0 f i LIBCMTD:undname.obj
 0001:00039310       ?doTypeOnly@UnDecorator@@SAHXZ 0043a310 f i LIBCMTD:undname.obj
 0001:00039330       ?haveTemplateParameters@UnDecorator@@SAHXZ 0043a330 f i LIBCMTD:undname.obj
 0001:00039350       ?doEcsu@UnDecorator@@SAHXZ 0043a350 f i LIBCMTD:undname.obj
 0001:00039370       ?doEllipsis@UnDecorator@@SAHXZ 0043a370 f i LIBCMTD:undname.obj
 0001:00039390       ?UScore@UnDecorator@@SAPBDW4Tokens@@@Z 0043a390 f   LIBCMTD:undname.obj
 0001:000393c0       ?doUnderScore@UnDecorator@@SAHXZ 0043a3c0 f i LIBCMTD:undname.obj
 0001:000393e0       ??2@YAPAXIAAV_HeapManager@@H@Z 0043a3e0 f i LIBCMTD:undname.obj
 0001:00039400       ?getMemory@_HeapManager@@QAEPAXIH@Z 0043a400 f   LIBCMTD:undname.obj
 0001:00039510       ??0Block@_HeapManager@@QAE@XZ 0043a510 f i LIBCMTD:undname.obj
 0001:00039530       ??H@YA?AVDName@@DABV0@@Z   0043a530 f i LIBCMTD:undname.obj
 0001:00039560       ??H@YA?AVDName@@W4DNameStatus@@ABV0@@Z 0043a560 f i LIBCMTD:undname.obj
 0001:00039590       ??H@YA?AVDName@@PBDABV0@@Z 0043a590 f i LIBCMTD:undname.obj
 0001:000395c0       ??0DName@@QAE@XZ           0043a5c0 f i LIBCMTD:undname.obj
 0001:00039680       ??0DName@@QAE@D@Z          0043a680 f   LIBCMTD:undname.obj
 0001:00039760       ??0DName@@QAE@ABV0@@Z      0043a760 f i LIBCMTD:undname.obj
 0001:00039790       ??0DName@@QAE@PAV0@@Z      0043a790 f   LIBCMTD:undname.obj
 0001:000398c0       ??0DName@@QAE@PBD@Z        0043a8c0 f   LIBCMTD:undname.obj
 0001:000399b0       ??0DName@@QAE@AAPBDD@Z     0043a9b0 f   LIBCMTD:undname.obj
 0001:00039c70       ?doNoIdentCharCheck@UnDecorator@@SAHXZ 0043ac70 f i LIBCMTD:undname.obj
 0001:00039c90       ??0DName@@QAE@_K@Z         0043ac90 f   LIBCMTD:undname.obj
 0001:00039dd0       ??0DName@@QAE@_J@Z         0043add0 f   LIBCMTD:undname.obj
 0001:00039f50       ??0DName@@QAE@W4DNameStatus@@@Z 0043af50 f   LIBCMTD:undname.obj
 0001:0003a070       ?isValid@DName@@QBEHXZ     0043b070 f i LIBCMTD:undname.obj
 0001:0003a0a0       ?isEmpty@DName@@QBEHXZ     0043b0a0 f i LIBCMTD:undname.obj
 0001:0003a0c0       ?status@DName@@QBE?AW4DNameStatus@@XZ 0043b0c0 f i LIBCMTD:undname.obj
 0001:0003a0e0       ?setPtrRef@DName@@QAEAAV1@XZ 0043b0e0 f i LIBCMTD:undname.obj
 0001:0003a110       ?isPtrRef@DName@@QBEHXZ    0043b110 f i LIBCMTD:undname.obj
 0001:0003a130       ?isUDC@DName@@QBEHXZ       0043b130 f i LIBCMTD:undname.obj
 0001:0003a170       ?setIsUDC@DName@@QAEXXZ    0043b170 f i LIBCMTD:undname.obj
 0001:0003a1a0       ?isUDTThunk@DName@@QBEHXZ  0043b1a0 f i LIBCMTD:undname.obj
 0001:0003a1e0       ?setIsArray@DName@@QAEXXZ  0043b1e0 f i LIBCMTD:undname.obj
 0001:0003a200       ?isArray@DName@@QBEHXZ     0043b200 f i LIBCMTD:undname.obj
 0001:0003a220       ?isNoTE@DName@@QBEHXZ      0043b220 f i LIBCMTD:undname.obj
 0001:0003a240       ?setIsNoTE@DName@@QAEXXZ   0043b240 f i LIBCMTD:undname.obj
 0001:0003a260       ?isPinPtr@DName@@QBEHXZ    0043b260 f i LIBCMTD:undname.obj
 0001:0003a280       ?setIsPinPtr@DName@@QAEXXZ 0043b280 f i LIBCMTD:undname.obj
 0001:0003a2a0       ?isComArray@DName@@QBEHXZ  0043b2a0 f i LIBCMTD:undname.obj
 0001:0003a2c0       ?setIsComArray@DName@@QAEXXZ 0043b2c0 f i LIBCMTD:undname.obj
 0001:0003a2e0       ?isVCallThunk@DName@@QBEHXZ 0043b2e0 f i LIBCMTD:undname.obj
 0001:0003a300       ?setIsVCallThunk@DName@@QAEXXZ 0043b300 f i LIBCMTD:undname.obj
 0001:0003a320       ?length@DName@@QBEHXZ      0043b320 f i LIBCMTD:undname.obj
 0001:0003a350       ?getLastChar@DName@@QBEDXZ 0043b350 f i LIBCMTD:undname.obj
 0001:0003a380       ?getString@DName@@QBEPADPADH@Z 0043b380 f i LIBCMTD:undname.obj
 0001:0003a410       ?getString@DName@@QBEPADPAD0@Z 0043b410 f i LIBCMTD:undname.obj
 0001:0003a450       ??HDName@@QBE?AV0@D@Z      0043b450 f   LIBCMTD:undname.obj
 0001:0003a490       ??HDName@@QBE?AV0@PBD@Z    0043b490 f   LIBCMTD:undname.obj
 0001:0003a4d0       ??HDName@@QBE?AV0@ABV0@@Z  0043b4d0 f   LIBCMTD:undname.obj
 0001:0003a510       ??HDName@@QBE?AV0@PAV0@@Z  0043b510 f   LIBCMTD:undname.obj
 0001:0003a550       ??HDName@@QBE?AV0@W4DNameStatus@@@Z 0043b550 f   LIBCMTD:undname.obj
 0001:0003a590       ?append@DName@@AAEXPAVDNameNode@@@Z 0043b590 f   LIBCMTD:undname.obj
 0001:0003a620       ??YDName@@QAEAAV0@D@Z      0043b620 f   LIBCMTD:undname.obj
 0001:0003a6b0       ??YDName@@QAEAAV0@PBD@Z    0043b6b0 f   LIBCMTD:undname.obj
 0001:0003a750       ??YDName@@QAEAAV0@ABV0@@Z  0043b750 f   LIBCMTD:undname.obj
 0001:0003a7c0       ??YDName@@QAEAAV0@PAV0@@Z  0043b7c0 f   LIBCMTD:undname.obj
 0001:0003a880       ??YDName@@QAEAAV0@W4DNameStatus@@@Z 0043b880 f   LIBCMTD:undname.obj
 0001:0003a8f0       ??_5DName@@QAEAAV0@ABV0@@Z 0043b8f0 f   LIBCMTD:undname.obj
 0001:0003a950       ??4DName@@QAEAAV0@D@Z      0043b950 f i LIBCMTD:undname.obj
 0001:0003aa30       ??4DName@@QAEAAV0@PBD@Z    0043ba30 f   LIBCMTD:undname.obj
 0001:0003ab10       ??4DName@@QAEAAV0@ABV0@@Z  0043bb10 f   LIBCMTD:undname.obj
 0001:0003ab40       ??4DName@@QAEAAV0@PAV0@@Z  0043bb40 f   LIBCMTD:undname.obj
 0001:0003ac80       ??4DName@@QAEAAV0@W4DNameStatus@@@Z 0043bc80 f   LIBCMTD:undname.obj
 0001:0003ad80       ?doPchar@DName@@AAEXPBDH@Z 0043bd80 f   LIBCMTD:undname.obj
 0001:0003aec0       ?isFull@Replicator@@QBEHXZ 0043bec0 f i LIBCMTD:undname.obj
 0001:0003aee0       ??0Replicator@@QAE@XZ      0043bee0 f i LIBCMTD:undname.obj
 0001:0003af00       ??YReplicator@@QAEAAV0@ABVDName@@@Z 0043bf00 f   LIBCMTD:undname.obj
 0001:0003af90       ??AReplicator@@QBE?AVDName@@H@Z 0043bf90 f   LIBCMTD:undname.obj
 0001:0003b000       ??0DNameNode@@IAE@XZ       0043c000 f   LIBCMTD:undname.obj
 0001:0003b020       ??0charNode@@QAE@D@Z       0043c020 f   LIBCMTD:undname.obj
 0001:0003b050       ?length@charNode@@UBEHXZ   0043c050 f i LIBCMTD:undname.obj
 0001:0003b070       ?getLastChar@charNode@@UBEDXZ 0043c070 f i LIBCMTD:undname.obj
 0001:0003b090       ?getString@charNode@@UBEPADPAD0@Z 0043c090 f i LIBCMTD:undname.obj
 0001:0003b0c0       ??0pcharNode@@QAE@PBDH@Z   0043c0c0 f   LIBCMTD:undname.obj
 0001:0003b150       ?length@pcharNode@@UBEHXZ  0043c150 f i LIBCMTD:undname.obj
 0001:0003b170       ?getLastChar@pcharNode@@UBEDXZ 0043c170 f i LIBCMTD:undname.obj
 0001:0003b1b0       ?getString@pcharNode@@UBEPADPAD0@Z 0043c1b0 f i LIBCMTD:undname.obj
 0001:0003b1e0       ?getStringHelper@@YAPADPAD00H@Z 0043c1e0 f i LIBCMTD:undname.obj
 0001:0003b220       ??0pDNameNode@@QAE@PAVDName@@@Z 0043c220 f   LIBCMTD:undname.obj
 0001:0003b280       ?length@pDNameNode@@UBEHXZ 0043c280 f i LIBCMTD:undname.obj
 0001:0003b2c0       ?getLastChar@pDNameNode@@UBEDXZ 0043c2c0 f i LIBCMTD:undname.obj
 0001:0003b2f0       ?getString@pDNameNode@@UBEPADPAD0@Z 0043c2f0 f i LIBCMTD:undname.obj
 0001:0003b330       ??0DNameStatusNode@@AAE@W4DNameStatus@@@Z 0043c330 f   LIBCMTD:undname.obj
 0001:0003b380       ?length@DNameStatusNode@@UBEHXZ 0043c380 f i LIBCMTD:undname.obj
 0001:0003b3a0       ?getLastChar@DNameStatusNode@@UBEDXZ 0043c3a0 f i LIBCMTD:undname.obj
 0001:0003b3c0       ?getString@DNameStatusNode@@UBEPADPAD0@Z 0043c3c0 f i LIBCMTD:undname.obj
 0001:0003b400       ?make@DNameStatusNode@@SAPAV1@W4DNameStatus@@@Z 0043c400 f i LIBCMTD:undname.obj
 0001:0003b4b0       ??0pairNode@@QAE@PAVDNameNode@@0@Z 0043c4b0 f   LIBCMTD:undname.obj
 0001:0003b4f0       ?length@pairNode@@UBEHXZ   0043c4f0 f i LIBCMTD:undname.obj
 0001:0003b540       ?getLastChar@pairNode@@UBEDXZ 0043c540 f i LIBCMTD:undname.obj
 0001:0003b590       ?getString@pairNode@@UBEPADPAD0@Z 0043c590 f i LIBCMTD:undname.obj
 0001:0003b6d0       __tolower                  0043c6d0 f   LIBCMTD:tolower.obj
 0001:0003b6e0       __tolower_l                0043c6e0 f   LIBCMTD:tolower.obj
 0001:0003b8c0       _tolower                   0043c8c0 f   LIBCMTD:tolower.obj
 0001:0003b910       ____setlc_active_func      0043c910 f   LIBCMTD:setlocal.obj
 0001:0003b920       ____unguarded_readlc_active_add_func 0043c920 f   LIBCMTD:setlocal.obj
 0001:0003b930       __configthreadlocale       0043c930 f   LIBCMTD:setlocal.obj
 0001:0003ba40       __locterm                  0043ca40 f   LIBCMTD:setlocal.obj
 0001:0003bae0       __free_locale              0043cae0 f   LIBCMTD:setlocal.obj
 0001:0003bc20       ___free_locale             0043cc20 f   LIBCMTD:setlocal.obj
 0001:0003bc40       __create_locale            0043cc40 f   LIBCMTD:setlocal.obj
 0001:0003be70       ___create_locale           0043ce70 f   LIBCMTD:setlocal.obj
 0001:0003be90       __get_current_locale       0043ce90 f   LIBCMTD:setlocal.obj
 0001:0003bfb0       ___get_current_locale      0043cfb0 f   LIBCMTD:setlocal.obj
 0001:0003bfc0       _setlocale                 0043cfc0 f   LIBCMTD:setlocal.obj
 0001:0003ce70       __expandlocale             0043de70 f   LIBCMTD:setlocal.obj
 0001:0003d120       ___init_dummy              0043e120 f   LIBCMTD:setlocal.obj
 0001:0003d130       __strcats                  0043e130 f   LIBCMTD:setlocal.obj
 0001:0003d1b0       ___lc_strtolc              0043e1b0 f   LIBCMTD:setlocal.obj
 0001:0003d3b0       ___lc_lctostr              0043e3b0 f   LIBCMTD:setlocal.obj
 0001:0003d450       ___crtGetStringTypeA       0043e450 f   LIBCMTD:a_str.obj
 0001:0003d5c0       ___init_time               0043e5c0 f   LIBCMTD:inittime.obj
 0001:0003e2f0       ___free_lc_time            0043f2f0 f   LIBCMTD:inittime.obj
 0001:0003e960       ___init_numeric            0043f960 f   LIBCMTD:initnum.obj
 0001:0003ed10       ___free_lconv_num          0043fd10 f   LIBCMTD:initnum.obj
 0001:0003edc0       ___init_monetary           0043fdc0 f   LIBCMTD:initmon.obj
 0001:0003f3b0       ___free_lconv_mon          004403b0 f   LIBCMTD:initmon.obj
 0001:0003f560       _localeconv                00440560 f   LIBCMTD:lconv.obj
 0001:0003f5b0       ___pwctype_func            004405b0 f   LIBCMTD:ctype.obj
 0001:0003f5c0       ___pctype_func             004405c0 f   LIBCMTD:ctype.obj
 0001:0003f610       __set_error_mode           00440610 f   LIBCMTD:errmode.obj
 0001:0003f6d0       ___set_app_type            004406d0 f   LIBCMTD:errmode.obj
 0001:0003f6e0       _wcscat_s                  004406e0 f   LIBCMTD:wcscat_s.obj
 0001:0003fad0       _wcsncpy_s                 00440ad0 f   LIBCMTD:wcsncpy_s.obj
 0001:0003fee0       _strncpy_s                 00440ee0 f   LIBCMTD:strncpy_s.obj
 0001:000402d0       ___crtGetLocaleInfoA       004412d0 f   LIBCMTD:a_loc.obj
 0001:00040430       __mbstowcs_l_helper        00441430 f   LIBCMTD:mbstowcs.obj
 0001:00040780       __mbstowcs_l               00441780 f   LIBCMTD:mbstowcs.obj
 0001:000407a0       _mbstowcs                  004417a0 f   LIBCMTD:mbstowcs.obj
 0001:000407f0       __mbstowcs_s_l             004417f0 f   LIBCMTD:mbstowcs.obj
 0001:00040b70       _mbstowcs_s                00441b70 f   LIBCMTD:mbstowcs.obj
 0001:00040ba0       _strcat_s                  00441ba0 f   LIBCMTD:strcat_s.obj
 0001:00040f80       __itoa_s                   00441f80 f   LIBCMTD:xtoas.obj
 0001:00041350       __ltoa_s                   00442350 f   LIBCMTD:xtoas.obj
 0001:00041390       __ultoa_s                  00442390 f   LIBCMTD:xtoas.obj
 0001:000413b0       __i64toa_s                 004423b0 f   LIBCMTD:xtoas.obj
 0001:000417b0       __ui64toa_s                004427b0 f   LIBCMTD:xtoas.obj
 0001:000417d0       __wcstombs_l_helper        004427d0 f   LIBCMTD:wcstombs.obj
 0001:00041d10       __wcstombs_l               00442d10 f   LIBCMTD:wcstombs.obj
 0001:00041d30       _wcstombs                  00442d30 f   LIBCMTD:wcstombs.obj
 0001:00041d50       __wcstombs_s_l             00442d50 f   LIBCMTD:wcstombs.obj
 0001:00042080       _wcstombs_s                00443080 f   LIBCMTD:wcstombs.obj
 0001:000420b0       __vswprintf_helper         004430b0 f   LIBCMTD:vswprnc.obj
 0001:00042310       __vswprintf_c              00443310 f   LIBCMTD:vswprnc.obj
 0001:00042360       __vswprintf_c_l            00443360 f   LIBCMTD:vswprnc.obj
 0001:000423b0       __vswprintf_s_l            004433b0 f   LIBCMTD:vswprnc.obj
 0001:00042620       _vswprintf_s               00443620 f   LIBCMTD:vswprnc.obj
 0001:00042650       __vsnwprintf_s_l           00443650 f   LIBCMTD:vswprnc.obj
 0001:00042a00       __vsnwprintf_s             00443a00 f   LIBCMTD:vswprnc.obj
 0001:00042a30       __vswprintf_p              00443a30 f   LIBCMTD:vswprnc.obj
 0001:00042a80       __vswprintf_p_l            00443a80 f   LIBCMTD:vswprnc.obj
 0001:00042ad0       __itow_s                   00443ad0 f   LIBCMTD:xtows.obj
 0001:00042eb0       __ltow_s                   00443eb0 f   LIBCMTD:xtows.obj
 0001:00042ef0       __ultow_s                  00443ef0 f   LIBCMTD:xtows.obj
 0001:00042f10       __i64tow_s                 00443f10 f   LIBCMTD:xtows.obj
 0001:00043330       __ui64tow_s                00444330 f   LIBCMTD:xtows.obj
 0001:00043350       __woutput_l                00444350 f   LIBCMTD:woutput.obj
 0001:00044550       __vswprintf_l              00445550 f   LIBCMTD:vswprint.obj
 0001:00044740       __vswprintf                00445740 f   LIBCMTD:vswprint.obj
 0001:00044760       ___vswprintf_l             00445760 f   LIBCMTD:vswprint.obj
 0001:00044780       __vscwprintf_helper        00445780 f   LIBCMTD:vswprint.obj
 0001:00044860       __vscwprintf               00445860 f   LIBCMTD:vswprint.obj
 0001:00044880       __vscwprintf_l             00445880 f   LIBCMTD:vswprint.obj
 0001:000448a0       __vscwprintf_p             004458a0 f   LIBCMTD:vswprint.obj
 0001:000448c0       __vscwprintf_p_l           004458c0 f   LIBCMTD:vswprint.obj
 0001:000448e0       __allmul                   004458e0 f   LIBCMTD:llmul.obj
 0001:00044920       __ismbbkalnum_l            00445920 f   LIBCMTD:ismbbyte.obj
 0001:00044940       __ismbbkalnum              00445940 f   LIBCMTD:ismbbyte.obj
 0001:00044960       __ismbbkprint_l            00445960 f   LIBCMTD:ismbbyte.obj
 0001:00044980       __ismbbkprint              00445980 f   LIBCMTD:ismbbyte.obj
 0001:000449a0       __ismbbkpunct_l            004459a0 f   LIBCMTD:ismbbyte.obj
 0001:000449c0       __ismbbkpunct              004459c0 f   LIBCMTD:ismbbyte.obj
 0001:000449e0       __ismbbalnum_l             004459e0 f   LIBCMTD:ismbbyte.obj
 0001:00044a00       __ismbbalnum               00445a00 f   LIBCMTD:ismbbyte.obj
 0001:00044a20       __ismbbalpha_l             00445a20 f   LIBCMTD:ismbbyte.obj
 0001:00044a40       __ismbbalpha               00445a40 f   LIBCMTD:ismbbyte.obj
 0001:00044a60       __ismbbgraph_l             00445a60 f   LIBCMTD:ismbbyte.obj
 0001:00044a80       __ismbbgraph               00445a80 f   LIBCMTD:ismbbyte.obj
 0001:00044aa0       __ismbbprint_l             00445aa0 f   LIBCMTD:ismbbyte.obj
 0001:00044ac0       __ismbbprint               00445ac0 f   LIBCMTD:ismbbyte.obj
 0001:00044ae0       __ismbbpunct_l             00445ae0 f   LIBCMTD:ismbbyte.obj
 0001:00044b00       __ismbbpunct               00445b00 f   LIBCMTD:ismbbyte.obj
 0001:00044b20       __ismbblead_l              00445b20 f   LIBCMTD:ismbbyte.obj
 0001:00044b40       __ismbblead                00445b40 f   LIBCMTD:ismbbyte.obj
 0001:00044b60       __ismbbtrail_l             00445b60 f   LIBCMTD:ismbbyte.obj
 0001:00044b80       __ismbbtrail               00445b80 f   LIBCMTD:ismbbyte.obj
 0001:00044ba0       __ismbbkana_l              00445ba0 f   LIBCMTD:ismbbyte.obj
 0001:00044c10       __ismbbkana                00445c10 f   LIBCMTD:ismbbyte.obj
 0001:00044d00       ___crtMessageBoxA          00445d00 f   LIBCMTD:crtmbox.obj
 0001:00044f20       __fptrap                   00445f20 f   LIBCMTD:crt0fp.obj
 0001:00044f40       _vprintf_helper            00445f40 f   LIBCMTD:vprintf.obj
 0001:00045060       __vprintf_l                00446060 f   LIBCMTD:vprintf.obj
 0001:00045080       __vprintf_s_l              00446080 f   LIBCMTD:vprintf.obj
 0001:000450a0       __vprintf_p_l              004460a0 f   LIBCMTD:vprintf.obj
 0001:000450c0       _vprintf                   004460c0 f   LIBCMTD:vprintf.obj
 0001:000450e0       _vprintf_s                 004460e0 f   LIBCMTD:vprintf.obj
 0001:00045100       __vprintf_p                00446100 f   LIBCMTD:vprintf.obj
 0001:00045120       ___init_ctype              00446120 f   LIBCMTD:initctyp.obj
 0001:000456d0       ____mb_cur_max_func        004466d0 f   LIBCMTD:initctyp.obj
 0001:00045720       ____mb_cur_max_l_func      00446720 f   LIBCMTD:initctyp.obj
 0001:00045750       ____lc_codepage_func       00446750 f   LIBCMTD:initctyp.obj
 0001:000457a0       ____lc_collate_cp_func     004467a0 f   LIBCMTD:initctyp.obj
 0001:000457f0       ____lc_handle_func         004467f0 f   LIBCMTD:initctyp.obj
 0001:00045840       __iswctype_l               00446840 f   LIBCMTD:iswctype.obj
 0001:00045860       _iswctype                  00446860 f   LIBCMTD:iswctype.obj
 0001:000458c0       _is_wctype                 004468c0 f   LIBCMTD:iswctype.obj
 0001:000458e0       ___initconout              004468e0 f   LIBCMTD:initcon.obj
 0001:00045910       ___termconout              00446910 f   LIBCMTD:initcon.obj
 0001:00045940       __chsize_s                 00446940 f   LIBCMTD:chsize.obj
 0001:00045be0       __chsize_nolock            00446be0 f   LIBCMTD:chsize.obj
 0001:00045e80       __chsize                   00446e80 f   LIBCMTD:chsize.obj
 0001:00045eb0       __read                     00446eb0 f   LIBCMTD:read.obj
 0001:00046140       __read_nolock              00447140 f   LIBCMTD:read.obj
 0001:00047090       __setmode                  00448090 f   LIBCMTD:setmode.obj
 0001:00047320       __setmode_nolock           00448320 f   LIBCMTD:setmode.obj
 0001:00047590       __set_fmode                00448590 f   LIBCMTD:setmode.obj
 0001:00047640       __get_fmode                00448640 f   LIBCMTD:setmode.obj
 0001:000476c0       __strnicmp_l               004486c0 f   LIBCMTD:strnicmp.obj
 0001:00047900       __strnicmp                 00448900 f   LIBCMTD:strnicmp.obj
 0001:00047a90       _strncmp                   00448a90 f   LIBCMTD:strncmp.obj
 0001:00047c10       __allshl                   00448c10 f   LIBCMTD:llshl.obj
 0001:00047c30       ___init_collate            00448c30 f   LIBCMTD:initcoll.obj
 0001:00047c40       _strcspn                   00448c40 f   LIBCMTD:strcspn.obj
 0001:00047c90       _strpbrk                   00448c90 f   LIBCMTD:strpbrk.obj
 0001:00047cd0       _memcmp                    00448cd0 f   LIBCMTD:memcmp.obj
 0001:00048740       ___get_qualified_locale    00449740 f   LIBCMTD:getqloc.obj
 0001:000495a0       __woutput_s_l              0044a5a0 f   LIBCMTD:woutputs.obj
 0001:0004a8f0       __validate_param_reuseW    0044b8f0 f   LIBCMTD:woutputp.obj
 0001:0004ab60       __woutput_p_l              0044bb60 f   LIBCMTD:woutputp.obj
 0001:0004e2e0       _fputwc                    0044f2e0 f   LIBCMTD:fputwc.obj
 0001:0004e3e0       __fputwc_nolock            0044f3e0 f   LIBCMTD:fputwc.obj
 0001:0004e6d0       _putwc                     0044f6d0 f   LIBCMTD:fputwc.obj
 0001:0004e6f0       ___ascii_strnicmp          0044f6f0 f   LIBCMTD:_strnicm.obj
 0001:0004e760       _wcstol                    0044f760 f   LIBCMTD:wcstol.obj
 0001:0004eb30       __wcstol_l                 0044fb30 f   LIBCMTD:wcstol.obj
 0001:0004eb50       _wcstoul                   0044fb50 f   LIBCMTD:wcstol.obj
 0001:0004eb70       __wcstoul_l                0044fb70 f   LIBCMTD:wcstol.obj
 0001:0004eb90       __flswbuf                  0044fb90 f   LIBCMTD:_flswbuf.obj
 0001:0004ee70       __wchartodigit             0044fe70 f   LIBCMTD:wchtodig.obj
 0001:0004f192       _InterlockedIncrement@4    00450192 f   kernel32:KERNEL32.dll
 0001:0004f198       _InterlockedDecrement@4    00450198 f   kernel32:KERNEL32.dll
 0001:0004f19e       _Sleep@4                   0045019e f   kernel32:KERNEL32.dll
 0001:0004f1a4       _InterlockedExchange@8     004501a4 f   kernel32:KERNEL32.dll
 0001:0004f1aa       _RtlUnwind@16              004501aa f   kernel32:KERNEL32.dll
 0001:0004f1b0       _EncodePointer@4           004501b0 f   kernel32:KERNEL32.dll
 0001:0004f1b6       _DecodePointer@4           004501b6 f   kernel32:KERNEL32.dll
 0001:0004f1bc       _RaiseException@16         004501bc f   kernel32:KERNEL32.dll
 0001:0004f1c2       _GetModuleFileNameW@12     004501c2 f   kernel32:KERNEL32.dll
 0001:0004f1c8       _TerminateProcess@8        004501c8 f   kernel32:KERNEL32.dll
 0001:0004f1ce       _GetCurrentProcess@0       004501ce f   kernel32:KERNEL32.dll
 0001:0004f1d4       _UnhandledExceptionFilter@4 004501d4 f   kernel32:KERNEL32.dll
 0001:0004f1da       _SetUnhandledExceptionFilter@4 004501da f   kernel32:KERNEL32.dll
 0001:0004f1e0       _IsDebuggerPresent@0       004501e0 f   kernel32:KERNEL32.dll
 0001:0004f1e6       _GetCommandLineA@0         004501e6 f   kernel32:KERNEL32.dll
 0001:0004f1ec       _HeapSetInformation@16     004501ec f   kernel32:KERNEL32.dll
 0001:0004f1f2       _GetStartupInfoW@4         004501f2 f   kernel32:KERNEL32.dll
 0001:0004f1f8       _WideCharToMultiByte@32    004501f8 f   kernel32:KERNEL32.dll
 0001:0004f1fe       _MultiByteToWideChar@24    004501fe f   kernel32:KERNEL32.dll
 0001:0004f204       _lstrlenA@4                00450204 f   kernel32:KERNEL32.dll
 0001:0004f20a       _GetProcAddress@8          0045020a f   kernel32:KERNEL32.dll
 0001:0004f210       _LoadLibraryW@4            00450210 f   kernel32:KERNEL32.dll
 0001:0004f216       _IsProcessorFeaturePresent@4 00450216 f   kernel32:KERNEL32.dll
 0001:0004f21c       _HeapValidate@12           0045021c f   kernel32:KERNEL32.dll
 0001:0004f222       _IsBadReadPtr@8            00450222 f   kernel32:KERNEL32.dll
 0001:0004f228       _GetLastError@0            00450228 f   kernel32:KERNEL32.dll
 0001:0004f22e       _FlushFileBuffers@4        0045022e f   kernel32:KERNEL32.dll
 0001:0004f234       _WriteFile@20              00450234 f   kernel32:KERNEL32.dll
 0001:0004f23a       _GetConsoleCP@0            0045023a f   kernel32:KERNEL32.dll
 0001:0004f240       _GetConsoleMode@8          00450240 f   kernel32:KERNEL32.dll
 0001:0004f246       _InitializeCriticalSectionAndSpinCount@8 00450246 f   kernel32:KERNEL32.dll
 0001:0004f24c       _FatalAppExitA@8           0045024c f   kernel32:KERNEL32.dll
 0001:0004f252       _SetHandleCount@4          00450252 f   kernel32:KERNEL32.dll
 0001:0004f258       _GetStdHandle@4            00450258 f   kernel32:KERNEL32.dll
 0001:0004f25e       _GetFileType@4             0045025e f   kernel32:KERNEL32.dll
 0001:0004f264       _CloseHandle@4             00450264 f   kernel32:KERNEL32.dll
 0001:0004f26a       _SetFilePointer@16         0045026a f   kernel32:KERNEL32.dll
 0001:0004f270       _TlsAlloc@0                00450270 f   kernel32:KERNEL32.dll
 0001:0004f276       _TlsGetValue@4             00450276 f   kernel32:KERNEL32.dll
 0001:0004f27c       _TlsSetValue@8             0045027c f   kernel32:KERNEL32.dll
 0001:0004f282       _GetCurrentThreadId@0      00450282 f   kernel32:KERNEL32.dll
 0001:0004f288       _TlsFree@4                 00450288 f   kernel32:KERNEL32.dll
 0001:0004f28e       _GetModuleHandleW@4        0045028e f   kernel32:KERNEL32.dll
 0001:0004f294       _SetLastError@4            00450294 f   kernel32:KERNEL32.dll
 0001:0004f29a       _GetCurrentThread@0        0045029a f   kernel32:KERNEL32.dll
 0001:0004f2a0       _ExitProcess@4             004502a0 f   kernel32:KERNEL32.dll
 0001:0004f2a6       _LCMapStringW@24           004502a6 f   kernel32:KERNEL32.dll
 0001:0004f2ac       _GetACP@0                  004502ac f   kernel32:KERNEL32.dll
 0001:0004f2b2       _GetOEMCP@0                004502b2 f   kernel32:KERNEL32.dll
 0001:0004f2b8       _GetCPInfo@8               004502b8 f   kernel32:KERNEL32.dll
 0001:0004f2be       _IsValidCodePage@4         004502be f   kernel32:KERNEL32.dll
 0001:0004f2c4       _GetLocaleInfoW@16         004502c4 f   kernel32:KERNEL32.dll
 0001:0004f2ca       _WriteConsoleW@20          004502ca f   kernel32:KERNEL32.dll
 0001:0004f2d0       _OutputDebugStringW@4      004502d0 f   kernel32:KERNEL32.dll
 0001:0004f2d6       _SetConsoleCtrlHandler@8   004502d6 f   kernel32:KERNEL32.dll
 0001:0004f2dc       _QueryPerformanceCounter@4 004502dc f   kernel32:KERNEL32.dll
 0001:0004f2e2       _GetCurrentProcessId@0     004502e2 f   kernel32:KERNEL32.dll
 0001:0004f2e8       _GetSystemTimeAsFileTime@4 004502e8 f   kernel32:KERNEL32.dll
 0001:0004f2ee       _GetModuleFileNameA@12     004502ee f   kernel32:KERNEL32.dll
 0001:0004f2f4       _FreeEnvironmentStringsW@4 004502f4 f   kernel32:KERNEL32.dll
 0001:0004f2fa       _GetEnvironmentStringsW@0  004502fa f   kernel32:KERNEL32.dll
 0001:0004f300       _HeapCreate@12             00450300 f   kernel32:KERNEL32.dll
 0001:0004f306       _HeapDestroy@4             00450306 f   kernel32:KERNEL32.dll
 0001:0004f30c       _HeapFree@12               0045030c f   kernel32:KERNEL32.dll
 0001:0004f312       _HeapAlloc@12              00450312 f   kernel32:KERNEL32.dll
 0001:0004f318       _GetProcessHeap@0          00450318 f   kernel32:KERNEL32.dll
 0001:0004f31e       _VirtualQuery@12           0045031e f   kernel32:KERNEL32.dll
 0001:0004f324       _FreeLibrary@4             00450324 f   kernel32:KERNEL32.dll
 0001:0004f32a       _HeapReAlloc@16            0045032a f   kernel32:KERNEL32.dll
 0001:0004f330       _HeapSize@12               00450330 f   kernel32:KERNEL32.dll
 0001:0004f336       _HeapQueryInformation@20   00450336 f   kernel32:KERNEL32.dll
 0001:0004f33c       _SetStdHandle@8            0045033c f   kernel32:KERNEL32.dll
 0001:0004f342       _CreateFileA@28            00450342 f   kernel32:KERNEL32.dll
 0001:0004f348       _GetStringTypeW@16         00450348 f   kernel32:KERNEL32.dll
 0001:0004f34e       _CreateFileW@28            0045034e f   kernel32:KERNEL32.dll
 0001:0004f354       _SetEndOfFile@4            00450354 f   kernel32:KERNEL32.dll
 0001:0004f35a       _ReadFile@20               0045035a f   kernel32:KERNEL32.dll
 0001:0004f360       _GetLocaleInfoA@16         00450360 f   kernel32:KERNEL32.dll
 0001:0004f366       _IsValidLocale@8           00450366 f   kernel32:KERNEL32.dll
 0001:0004f36c       _EnumSystemLocalesA@8      0045036c f   kernel32:KERNEL32.dll
 0001:0004f372       _GetUserDefaultLCID@0      00450372 f   kernel32:KERNEL32.dll
 0002:00000000       ___xc_a                    00466000     LIBCMTD:crt0init.obj
 0002:00000314       ___xc_z                    00466314     LIBCMTD:crt0init.obj
 0002:00000418       ___xi_a                    00466418     LIBCMTD:crt0init.obj
 0002:00000734       ___xi_z                    00466734     LIBCMTD:crt0init.obj
 0002:00000838       ___xp_a                    00466838     LIBCMTD:crt0init.obj
 0002:00000b4c       ___xp_z                    00466b4c     LIBCMTD:crt0init.obj
 0002:00000c50       ___xt_a                    00466c50     LIBCMTD:crt0init.obj
 0002:00000d54       ___xt_z                    00466d54     LIBCMTD:crt0init.obj
 0002:00000e7c       ?has_denorm@_Num_base@std@@2W4float_denorm_style@2@B 00466e7c     debug.obj
 0002:00000e80       ?has_denorm_loss@_Num_base@std@@2_NB 00466e80     debug.obj
 0002:00000e81       ?has_infinity@_Num_base@std@@2_NB 00466e81     debug.obj
 0002:00000e82       ?has_quiet_NaN@_Num_base@std@@2_NB 00466e82     debug.obj
 0002:00000e83       ?has_signaling_NaN@_Num_base@std@@2_NB 00466e83     debug.obj
 0002:00000e84       ?is_bounded@_Num_base@std@@2_NB 00466e84     debug.obj
 0002:00000e85       ?is_exact@_Num_base@std@@2_NB 00466e85     debug.obj
 0002:00000e86       ?is_iec559@_Num_base@std@@2_NB 00466e86     debug.obj
 0002:00000e87       ?is_integer@_Num_base@std@@2_NB 00466e87     debug.obj
 0002:00000e88       ?is_modulo@_Num_base@std@@2_NB 00466e88     debug.obj
 0002:00000e89       ?is_signed@_Num_base@std@@2_NB 00466e89     debug.obj
 0002:00000e8a       ?is_specialized@_Num_base@std@@2_NB 00466e8a     debug.obj
 0002:00000e8b       ?tinyness_before@_Num_base@std@@2_NB 00466e8b     debug.obj
 0002:00000e8c       ?traps@_Num_base@std@@2_NB 00466e8c     debug.obj
 0002:00000e90       ?round_style@_Num_base@std@@2W4float_round_style@2@B 00466e90     debug.obj
 0002:00000e94       ?digits@_Num_base@std@@2HB 00466e94     debug.obj
 0002:00000e98       ?digits10@_Num_base@std@@2HB 00466e98     debug.obj
 0002:00000e9c       ?max_digits10@_Num_base@std@@2HB 00466e9c     debug.obj
 0002:00000ea0       ?max_exponent@_Num_base@std@@2HB 00466ea0     debug.obj
 0002:00000ea4       ?max_exponent10@_Num_base@std@@2HB 00466ea4     debug.obj
 0002:00000ea8       ?min_exponent@_Num_base@std@@2HB 00466ea8     debug.obj
 0002:00000eac       ?min_exponent10@_Num_base@std@@2HB 00466eac     debug.obj
 0002:00000eb0       ?radix@_Num_base@std@@2HB  00466eb0     debug.obj
 0002:00000eb4       ?is_bounded@_Num_int_base@std@@2_NB 00466eb4     debug.obj
 0002:00000eb5       ?is_exact@_Num_int_base@std@@2_NB 00466eb5     debug.obj
 0002:00000eb6       ?is_integer@_Num_int_base@std@@2_NB 00466eb6     debug.obj
 0002:00000eb7       ?is_modulo@_Num_int_base@std@@2_NB 00466eb7     debug.obj
 0002:00000eb8       ?is_specialized@_Num_int_base@std@@2_NB 00466eb8     debug.obj
 0002:00000ebc       ?radix@_Num_int_base@std@@2HB 00466ebc     debug.obj
 0002:00000ec0       ?has_denorm@_Num_float_base@std@@2W4float_denorm_style@2@B 00466ec0     debug.obj
 0002:00000ec4       ?has_denorm_loss@_Num_float_base@std@@2_NB 00466ec4     debug.obj
 0002:00000ec5       ?has_infinity@_Num_float_base@std@@2_NB 00466ec5     debug.obj
 0002:00000ec6       ?has_quiet_NaN@_Num_float_base@std@@2_NB 00466ec6     debug.obj
 0002:00000ec7       ?has_signaling_NaN@_Num_float_base@std@@2_NB 00466ec7     debug.obj
 0002:00000ec8       ?is_bounded@_Num_float_base@std@@2_NB 00466ec8     debug.obj
 0002:00000ec9       ?is_exact@_Num_float_base@std@@2_NB 00466ec9     debug.obj
 0002:00000eca       ?is_iec559@_Num_float_base@std@@2_NB 00466eca     debug.obj
 0002:00000ecb       ?is_integer@_Num_float_base@std@@2_NB 00466ecb     debug.obj
 0002:00000ecc       ?is_modulo@_Num_float_base@std@@2_NB 00466ecc     debug.obj
 0002:00000ecd       ?is_signed@_Num_float_base@std@@2_NB 00466ecd     debug.obj
 0002:00000ece       ?is_specialized@_Num_float_base@std@@2_NB 00466ece     debug.obj
 0002:00000ecf       ?tinyness_before@_Num_float_base@std@@2_NB 00466ecf     debug.obj
 0002:00000ed0       ?traps@_Num_float_base@std@@2_NB 00466ed0     debug.obj
 0002:00000ed4       ?round_style@_Num_float_base@std@@2W4float_round_style@2@B 00466ed4     debug.obj
 0002:00000ed8       ?radix@_Num_float_base@std@@2HB 00466ed8     debug.obj
 0002:00000edc       ?is_signed@?$numeric_limits@D@std@@2_NB 00466edc     debug.obj
 0002:00000ee0       ?digits@?$numeric_limits@D@std@@2HB 00466ee0     debug.obj
 0002:00000ee4       ?digits10@?$numeric_limits@D@std@@2HB 00466ee4     debug.obj
 0002:00000ee8       ?max_digits10@?$numeric_limits@D@std@@2HB 00466ee8     debug.obj
 0002:00000eec       ?is_signed@?$numeric_limits@_W@std@@2_NB 00466eec     debug.obj
 0002:00000ef0       ?digits@?$numeric_limits@_W@std@@2HB 00466ef0     debug.obj
 0002:00000ef4       ?digits10@?$numeric_limits@_W@std@@2HB 00466ef4     debug.obj
 0002:00000ef8       ?max_digits10@?$numeric_limits@_W@std@@2HB 00466ef8     debug.obj
 0002:00000efc       ?is_modulo@?$numeric_limits@_N@std@@2_NB 00466efc     debug.obj
 0002:00000efd       ?is_signed@?$numeric_limits@_N@std@@2_NB 00466efd     debug.obj
 0002:00000f00       ?digits@?$numeric_limits@_N@std@@2HB 00466f00     debug.obj
 0002:00000f04       ?digits10@?$numeric_limits@_N@std@@2HB 00466f04     debug.obj
 0002:00000f08       ?max_digits10@?$numeric_limits@_N@std@@2HB 00466f08     debug.obj
 0002:00000f0c       ?is_signed@?$numeric_limits@C@std@@2_NB 00466f0c     debug.obj
 0002:00000f10       ?digits@?$numeric_limits@C@std@@2HB 00466f10     debug.obj
 0002:00000f14       ?digits10@?$numeric_limits@C@std@@2HB 00466f14     debug.obj
 0002:00000f18       ?max_digits10@?$numeric_limits@C@std@@2HB 00466f18     debug.obj
 0002:00000f1c       ?is_signed@?$numeric_limits@E@std@@2_NB 00466f1c     debug.obj
 0002:00000f20       ?digits@?$numeric_limits@E@std@@2HB 00466f20     debug.obj
 0002:00000f24       ?digits10@?$numeric_limits@E@std@@2HB 00466f24     debug.obj
 0002:00000f28       ?max_digits10@?$numeric_limits@E@std@@2HB 00466f28     debug.obj
 0002:00000f2c       ?is_signed@?$numeric_limits@F@std@@2_NB 00466f2c     debug.obj
 0002:00000f30       ?digits@?$numeric_limits@F@std@@2HB 00466f30     debug.obj
 0002:00000f34       ?digits10@?$numeric_limits@F@std@@2HB 00466f34     debug.obj
 0002:00000f38       ?max_digits10@?$numeric_limits@F@std@@2HB 00466f38     debug.obj
 0002:00000f3c       ?is_signed@?$numeric_limits@G@std@@2_NB 00466f3c     debug.obj
 0002:00000f40       ?digits@?$numeric_limits@G@std@@2HB 00466f40     debug.obj
 0002:00000f44       ?digits10@?$numeric_limits@G@std@@2HB 00466f44     debug.obj
 0002:00000f48       ?max_digits10@?$numeric_limits@G@std@@2HB 00466f48     debug.obj
 0002:00000f4c       ?is_signed@?$numeric_limits@H@std@@2_NB 00466f4c     debug.obj
 0002:00000f50       ?digits@?$numeric_limits@H@std@@2HB 00466f50     debug.obj
 0002:00000f54       ?digits10@?$numeric_limits@H@std@@2HB 00466f54     debug.obj
 0002:00000f58       ?max_digits10@?$numeric_limits@H@std@@2HB 00466f58     debug.obj
 0002:00000f5c       ?is_signed@?$numeric_limits@I@std@@2_NB 00466f5c     debug.obj
 0002:00000f60       ?digits@?$numeric_limits@I@std@@2HB 00466f60     debug.obj
 0002:00000f64       ?digits10@?$numeric_limits@I@std@@2HB 00466f64     debug.obj
 0002:00000f68       ?max_digits10@?$numeric_limits@I@std@@2HB 00466f68     debug.obj
 0002:00000f6c       ?is_signed@?$numeric_limits@J@std@@2_NB 00466f6c     debug.obj
 0002:00000f70       ?digits@?$numeric_limits@J@std@@2HB 00466f70     debug.obj
 0002:00000f74       ?digits10@?$numeric_limits@J@std@@2HB 00466f74     debug.obj
 0002:00000f78       ?max_digits10@?$numeric_limits@J@std@@2HB 00466f78     debug.obj
 0002:00000f7c       ?is_signed@?$numeric_limits@K@std@@2_NB 00466f7c     debug.obj
 0002:00000f80       ?digits@?$numeric_limits@K@std@@2HB 00466f80     debug.obj
 0002:00000f84       ?digits10@?$numeric_limits@K@std@@2HB 00466f84     debug.obj
 0002:00000f88       ?max_digits10@?$numeric_limits@K@std@@2HB 00466f88     debug.obj
 0002:00000f8c       ?is_signed@?$numeric_limits@_J@std@@2_NB 00466f8c     debug.obj
 0002:00000f90       ?digits@?$numeric_limits@_J@std@@2HB 00466f90     debug.obj
 0002:00000f94       ?digits10@?$numeric_limits@_J@std@@2HB 00466f94     debug.obj
 0002:00000f98       ?max_digits10@?$numeric_limits@_J@std@@2HB 00466f98     debug.obj
 0002:00000f9c       ?is_signed@?$numeric_limits@_K@std@@2_NB 00466f9c     debug.obj
 0002:00000fa0       ?digits@?$numeric_limits@_K@std@@2HB 00466fa0     debug.obj
 0002:00000fa4       ?digits10@?$numeric_limits@_K@std@@2HB 00466fa4     debug.obj
 0002:00000fa8       ?max_digits10@?$numeric_limits@_K@std@@2HB 00466fa8     debug.obj
 0002:00000fac       ?digits@?$numeric_limits@M@std@@2HB 00466fac     debug.obj
 0002:00000fb0       ?digits10@?$numeric_limits@M@std@@2HB 00466fb0     debug.obj
 0002:00000fb4       ?max_digits10@?$numeric_limits@M@std@@2HB 00466fb4     debug.obj
 0002:00000fb8       ?max_exponent@?$numeric_limits@M@std@@2HB 00466fb8     debug.obj
 0002:00000fbc       ?max_exponent10@?$numeric_limits@M@std@@2HB 00466fbc     debug.obj
 0002:00000fc0       ?min_exponent@?$numeric_limits@M@std@@2HB 00466fc0     debug.obj
 0002:00000fc4       ?min_exponent10@?$numeric_limits@M@std@@2HB 00466fc4     debug.obj
 0002:00000fc8       ?digits@?$numeric_limits@N@std@@2HB 00466fc8     debug.obj
 0002:00000fcc       ?digits10@?$numeric_limits@N@std@@2HB 00466fcc     debug.obj
 0002:00000fd0       ?max_digits10@?$numeric_limits@N@std@@2HB 00466fd0     debug.obj
 0002:00000fd4       ?max_exponent@?$numeric_limits@N@std@@2HB 00466fd4     debug.obj
 0002:00000fd8       ?max_exponent10@?$numeric_limits@N@std@@2HB 00466fd8     debug.obj
 0002:00000fdc       ?min_exponent@?$numeric_limits@N@std@@2HB 00466fdc     debug.obj
 0002:00000fe0       ?min_exponent10@?$numeric_limits@N@std@@2HB 00466fe0     debug.obj
 0002:00000fe4       ?digits@?$numeric_limits@O@std@@2HB 00466fe4     debug.obj
 0002:00000fe8       ?digits10@?$numeric_limits@O@std@@2HB 00466fe8     debug.obj
 0002:00000fec       ?max_digits10@?$numeric_limits@O@std@@2HB 00466fec     debug.obj
 0002:00000ff0       ?max_exponent@?$numeric_limits@O@std@@2HB 00466ff0     debug.obj
 0002:00000ff4       ?max_exponent10@?$numeric_limits@O@std@@2HB 00466ff4     debug.obj
 0002:00000ff8       ?min_exponent@?$numeric_limits@O@std@@2HB 00466ff8     debug.obj
 0002:00000ffc       ?min_exponent10@?$numeric_limits@O@std@@2HB 00466ffc     debug.obj
 0002:00001000       ?value@?$integral_constant@_N$0A@@tr1@std@@2_NB 00467000     debug.obj
 0002:00001001       ?value@?$integral_constant@_N$00@tr1@std@@2_NB 00467001     debug.obj
 0002:00001004       ?value@?$integral_constant@I$0A@@tr1@std@@2IB 00467004     debug.obj
 0002:00001008       ?_Rank@?$_Arithmetic_traits@_N@std@@2HB 00467008     debug.obj
 0002:0000100c       ?_Rank@?$_Arithmetic_traits@D@std@@2HB 0046700c     debug.obj
 0002:00001010       ?_Rank@?$_Arithmetic_traits@C@std@@2HB 00467010     debug.obj
 0002:00001014       ?_Rank@?$_Arithmetic_traits@E@std@@2HB 00467014     debug.obj
 0002:00001018       ?_Rank@?$_Arithmetic_traits@F@std@@2HB 00467018     debug.obj
 0002:0000101c       ?_Rank@?$_Arithmetic_traits@G@std@@2HB 0046701c     debug.obj
 0002:00001020       ?_Rank@?$_Arithmetic_traits@H@std@@2HB 00467020     debug.obj
 0002:00001024       ?_Rank@?$_Arithmetic_traits@I@std@@2HB 00467024     debug.obj
 0002:00001028       ?_Rank@?$_Arithmetic_traits@J@std@@2HB 00467028     debug.obj
 0002:0000102c       ?_Rank@?$_Arithmetic_traits@K@std@@2HB 0046702c     debug.obj
 0002:00001030       ?_Rank@?$_Arithmetic_traits@_J@std@@2HB 00467030     debug.obj
 0002:00001034       ?_Rank@?$_Arithmetic_traits@_K@std@@2HB 00467034     debug.obj
 0002:00001038       ?_Rank@?$_Arithmetic_traits@M@std@@2HB 00467038     debug.obj
 0002:0000103c       ?_Rank@?$_Arithmetic_traits@N@std@@2HB 0046703c     debug.obj
 0002:00001040       ?_Rank@?$_Arithmetic_traits@O@std@@2HB 00467040     debug.obj
 0002:00001044       ?collate@?$_Locbase@H@std@@2HB 00467044     debug.obj
 0002:00001048       ?ctype@?$_Locbase@H@std@@2HB 00467048     debug.obj
 0002:0000104c       ?monetary@?$_Locbase@H@std@@2HB 0046704c     debug.obj
 0002:00001050       ?numeric@?$_Locbase@H@std@@2HB 00467050     debug.obj
 0002:00001054       ?time@?$_Locbase@H@std@@2HB 00467054     debug.obj
 0002:00001058       ?messages@?$_Locbase@H@std@@2HB 00467058     debug.obj
 0002:0000105c       ?all@?$_Locbase@H@std@@2HB 0046705c     debug.obj
 0002:00001060       ?none@?$_Locbase@H@std@@2HB 00467060     debug.obj
 0002:00001064       ?table_size@?$ctype@D@std@@2IB 00467064     debug.obj
 0002:00001068       ?skipws@?$_Iosb@H@std@@2W4_Fmtflags@12@B 00467068     debug.obj
 0002:0000106c       ?unitbuf@?$_Iosb@H@std@@2W4_Fmtflags@12@B 0046706c     debug.obj
 0002:00001070       ?uppercase@?$_Iosb@H@std@@2W4_Fmtflags@12@B 00467070     debug.obj
 0002:00001074       ?showbase@?$_Iosb@H@std@@2W4_Fmtflags@12@B 00467074     debug.obj
 0002:00001078       ?showpoint@?$_Iosb@H@std@@2W4_Fmtflags@12@B 00467078     debug.obj
 0002:0000107c       ?showpos@?$_Iosb@H@std@@2W4_Fmtflags@12@B 0046707c     debug.obj
 0002:00001080       ?left@?$_Iosb@H@std@@2W4_Fmtflags@12@B 00467080     debug.obj
 0002:00001084       ?right@?$_Iosb@H@std@@2W4_Fmtflags@12@B 00467084     debug.obj
 0002:00001088       ?internal@?$_Iosb@H@std@@2W4_Fmtflags@12@B 00467088     debug.obj
 0002:0000108c       ?dec@?$_Iosb@H@std@@2W4_Fmtflags@12@B 0046708c     debug.obj
 0002:00001090       ?oct@?$_Iosb@H@std@@2W4_Fmtflags@12@B 00467090     debug.obj
 0002:00001094       ?hex@?$_Iosb@H@std@@2W4_Fmtflags@12@B 00467094     debug.obj
 0002:00001098       ?scientific@?$_Iosb@H@std@@2W4_Fmtflags@12@B 00467098     debug.obj
 0002:0000109c       ?fixed@?$_Iosb@H@std@@2W4_Fmtflags@12@B 0046709c     debug.obj
 0002:000010a0       ?hexfloat@?$_Iosb@H@std@@2W4_Fmtflags@12@B 004670a0     debug.obj
 0002:000010a4       ?boolalpha@?$_Iosb@H@std@@2W4_Fmtflags@12@B 004670a4     debug.obj
 0002:000010a8       ?_Stdio@?$_Iosb@H@std@@2W4_Fmtflags@12@B 004670a8     debug.obj
 0002:000010ac       ?adjustfield@?$_Iosb@H@std@@2W4_Fmtflags@12@B 004670ac     debug.obj
 0002:000010b0       ?basefield@?$_Iosb@H@std@@2W4_Fmtflags@12@B 004670b0     debug.obj
 0002:000010b4       ?floatfield@?$_Iosb@H@std@@2W4_Fmtflags@12@B 004670b4     debug.obj
 0002:000010b8       ?goodbit@?$_Iosb@H@std@@2W4_Iostate@12@B 004670b8     debug.obj
 0002:000010bc       ?eofbit@?$_Iosb@H@std@@2W4_Iostate@12@B 004670bc     debug.obj
 0002:000010c0       ?failbit@?$_Iosb@H@std@@2W4_Iostate@12@B 004670c0     debug.obj
 0002:000010c4       ?badbit@?$_Iosb@H@std@@2W4_Iostate@12@B 004670c4     debug.obj
 0002:000010c8       ?_Hardfail@?$_Iosb@H@std@@2W4_Iostate@12@B 004670c8     debug.obj
 0002:000010cc       ?in@?$_Iosb@H@std@@2W4_Openmode@12@B 004670cc     debug.obj
 0002:000010d0       ?out@?$_Iosb@H@std@@2W4_Openmode@12@B 004670d0     debug.obj
 0002:000010d4       ?ate@?$_Iosb@H@std@@2W4_Openmode@12@B 004670d4     debug.obj
 0002:000010d8       ?app@?$_Iosb@H@std@@2W4_Openmode@12@B 004670d8     debug.obj
 0002:000010dc       ?trunc@?$_Iosb@H@std@@2W4_Openmode@12@B 004670dc     debug.obj
 0002:000010e0       ?_Nocreate@?$_Iosb@H@std@@2W4_Openmode@12@B 004670e0     debug.obj
 0002:000010e4       ?_Noreplace@?$_Iosb@H@std@@2W4_Openmode@12@B 004670e4     debug.obj
 0002:000010e8       ?binary@?$_Iosb@H@std@@2W4_Openmode@12@B 004670e8     debug.obj
 0002:000010ec       ?beg@?$_Iosb@H@std@@2W4_Seekdir@12@B 004670ec     debug.obj
 0002:000010f0       ?cur@?$_Iosb@H@std@@2W4_Seekdir@12@B 004670f0     debug.obj
 0002:000010f4       ?end@?$_Iosb@H@std@@2W4_Seekdir@12@B 004670f4     debug.obj
 0002:000011c4       ??_7MainFrame@@6BIDialogBuilderCallback@DuiLib@@@ 004671c4     main_frame.obj
 0002:000011d0       ??_7MainFrame@@6BIMessageFilterUI@DuiLib@@@ 004671d0     main_frame.obj
 0002:000011dc       ??_7MainFrame@@6BINotifyUI@DuiLib@@@ 004671dc     main_frame.obj
 0002:000011ec       ??_7MainFrame@@6BCWindowWnd@DuiLib@@@ 004671ec     main_frame.obj
 0002:00001278       ??_C@_1IC@EGFKLHI@?$AAC?$AA?3?$AA?2?$AAP?$AAr?$AAo?$AAg?$AAr?$AAa?$AAm?$AA?5?$AAF?$AAi?$AAl?$AAe?$AAs?$AA?2?$AAM?$AAi?$AAc?$AAr?$AAo?$AAs?$AAo?$AAf?$AAt?$AA?5?$AAV?$AAi?$AAs?$AAu?$AAa@ 00467278     main_frame.obj
 0002:00001314       ?npos@?$basic_string@DU?$char_traits@D@std@@V?$allocator@D@2@@std@@2IB 00467314     main_frame.obj
 0002:00001318       ??_C@_0BI@CFPLBAOH@invalid?5string?5position?$AA@ 00467318     main_frame.obj
 0002:00001334       ??_C@_0BA@JFNIOLAK@string?5too?5long?$AA@ 00467334     main_frame.obj
 0002:00001348       ??_C@_1CK@EOPGIILJ@?$AAi?$AAn?$AAv?$AAa?$AAl?$AAi?$AAd?$AA?5?$AAn?$AAu?$AAl?$AAl?$AA?5?$AAp?$AAo?$AAi?$AAn?$AAt?$AAe?$AAr?$AA?$AA@ 00467348     main_frame.obj
 0002:00001380       ??_7bad_alloc@std@@6B@     00467380     main_frame.obj
 0002:00001398       ?kUIActiveXClassName@DuiLib@@3QBDB 00467398     UICrack.obj
 0002:000013a4       ?kUIActiveXInterfaceName@DuiLib@@3QBDB 004673a4     UICrack.obj
 0002:000013b0       ?kComboUIClassName@DuiLib@@3QBDB 004673b0     UICrack.obj
 0002:000013bc       ?kComboUIInterfaceName@DuiLib@@3QBDB 004673bc     UICrack.obj
 0002:000013c8       ?kLabelUIClassName@DuiLib@@3QBDB 004673c8     UICrack.obj
 0002:000013d4       ?kLabelUIInterfaceName@DuiLib@@3QBDB 004673d4     UICrack.obj
 0002:000013e4       ?kButtonUIClassName@DuiLib@@3QBDB 004673e4     UICrack.obj
 0002:000013f0       ?kButtonUIInterfaceName@DuiLib@@3QBDB 004673f0     UICrack.obj
 0002:00001400       ?kOptionUIClassName@DuiLib@@3QBDB 00467400     UICrack.obj
 0002:0000140c       ?kOptionUIInterfaceName@DuiLib@@3QBDB 0046740c     UICrack.obj
 0002:00001418       ?kTextUIClassName@DuiLib@@3QBDB 00467418     UICrack.obj
 0002:00001424       ?kTextUIInterfaceName@DuiLib@@3QBDB 00467424     UICrack.obj
 0002:00001434       ?kProgressUIClassName@DuiLib@@3QBDB 00467434     UICrack.obj
 0002:00001444       ?kProgressUIInterfaceName@DuiLib@@3QBDB 00467444     UICrack.obj
 0002:00001454       ?kSliderUIClassName@DuiLib@@3QBDB 00467454     UICrack.obj
 0002:00001460       ?kSliderUIInterfaceName@DuiLib@@3QBDB 00467460     UICrack.obj
 0002:0000146c       ?kEditUIClassName@DuiLib@@3QBDB 0046746c     UICrack.obj
 0002:00001478       ?kEditUIInterfaceName@DuiLib@@3QBDB 00467478     UICrack.obj
 0002:00001484       ?kIEditUIInterfaceName@DuiLib@@3QBDB 00467484     UICrack.obj
 0002:00001494       ?kScrollBarUIClassName@DuiLib@@3QBDB 00467494     UICrack.obj
 0002:000014a4       ?kScrollBarUIInterfaceName@DuiLib@@3QBDB 004674a4     UICrack.obj
 0002:000014b4       ?kContainerUIClassName@DuiLib@@3QBDB 004674b4     UICrack.obj
 0002:000014c4       ?kContainerUIInterfaceName@DuiLib@@3QBDB 004674c4     UICrack.obj
 0002:000014d4       ?kIContainerUIInterfaceName@DuiLib@@3QBDB 004674d4     UICrack.obj
 0002:000014ec       ?kVerticalLayoutUIClassName@DuiLib@@3QBDB 004674ec     UICrack.obj
 0002:00001500       ?kVerticalLayoutUIInterfaceName@DuiLib@@3QBDB 00467500     UICrack.obj
 0002:00001518       ?kHorizontalLayoutUIClassName@DuiLib@@3QBDB 00467518     UICrack.obj
 0002:00001530       ?kHorizontalLayoutUIInterfaceName@DuiLib@@3QBDB 00467530     UICrack.obj
 0002:00001544       ?kTileLayoutUIClassName@DuiLib@@3QBDB 00467544     UICrack.obj
 0002:00001554       ?kTileLayoutUIInterfaceName@DuiLib@@3QBDB 00467554     UICrack.obj
 0002:00001568       ?kDialogLayoutUIClassName@DuiLib@@3QBDB 00467568     UICrack.obj
 0002:0000157c       ?kDialogLayoutUIInterfaceName@DuiLib@@3QBDB 0046757c     UICrack.obj
 0002:0000158c       ?kTabLayoutUIClassName@DuiLib@@3QBDB 0046758c     UICrack.obj
 0002:0000159c       ?kTabLayoutUIInterfaceName@DuiLib@@3QBDB 0046759c     UICrack.obj
 0002:000015ac       ?kControlUIClassName@DuiLib@@3QBDB 004675ac     UICrack.obj
 0002:000015b8       ?kControlUIInterfaceName@DuiLib@@3QBDB 004675b8     UICrack.obj
 0002:000015c4       ?kListUIClassName@DuiLib@@3QBDB 004675c4     UICrack.obj
 0002:000015d0       ?kListUIInterfaceName@DuiLib@@3QBDB 004675d0     UICrack.obj
 0002:000015dc       ?kIListUIInterfaceName@DuiLib@@3QBDB 004675dc     UICrack.obj
 0002:000015ec       ?kIListOwnerUIInterfaceName@DuiLib@@3QBDB 004675ec     UICrack.obj
 0002:00001600       ?kListHeaderUIClassName@DuiLib@@3QBDB 00467600     UICrack.obj
 0002:00001610       ?kListHeaderUIInterfaceName@DuiLib@@3QBDB 00467610     UICrack.obj
 0002:00001628       ?kListHeaderItemUIClassName@DuiLib@@3QBDB 00467628     UICrack.obj
 0002:0000163c       ?kListHeaderItemUIInterfaceName@DuiLib@@3QBDB 0046763c     UICrack.obj
 0002:00001650       ?kListElementUIClassName@DuiLib@@3QBDB 00467650     UICrack.obj
 0002:00001660       ?kListElementUIInterfaceName@DuiLib@@3QBDB 00467660     UICrack.obj
 0002:00001670       ?kIListItemUIInterfaceName@DuiLib@@3QBDB 00467670     UICrack.obj
 0002:00001688       ?kListLabelElementUIClassName@DuiLib@@3QBDB 00467688     UICrack.obj
 0002:000016a0       ?kListLabelElementUIInterfaceName@DuiLib@@3QBDB 004676a0     UICrack.obj
 0002:000016b8       ?kListTextElementUIClassName@DuiLib@@3QBDB 004676b8     UICrack.obj
 0002:000016cc       ?kListTextElementUIInterfaceName@DuiLib@@3QBDB 004676cc     UICrack.obj
 0002:000016e8       ?kListContainerElementUIClassName@DuiLib@@3QBDB 004676e8     UICrack.obj
 0002:00001704       ?kListContainerElementUIInterfaceName@DuiLib@@3QBDB 00467704     UICrack.obj
 0002:00001714       ?kRichEditUIClassName@DuiLib@@3QBDB 00467714     UICrack.obj
 0002:00001724       ?kRichEditUIInterfaceName@DuiLib@@3QBDB 00467724     UICrack.obj
 0002:00001734       ?kWindowInit@DuiLib@@3QBDB 00467734     UICrack.obj
 0002:00001740       ?kClick@DuiLib@@3QBDB      00467740     UICrack.obj
 0002:00001754       ?kSelectChanged@DuiLib@@3QBDB 00467754     UICrack.obj
 0002:00001764       ?kItemSelect@DuiLib@@3QBDB 00467764     UICrack.obj
 0002:00001778       ?kItemActivate@DuiLib@@3QBDB 00467778     UICrack.obj
 0002:00001788       ?kItemClick@DuiLib@@3QBDB  00467788     UICrack.obj
 0002:00001798       ?kDropDown@DuiLib@@3QBDB   00467798     UICrack.obj
 0002:000017a4       ?kTimer@DuiLib@@3QBDB      004677a4     UICrack.obj
 0002:000017b0       ?kMenu@DuiLib@@3QBDB       004677b0     UICrack.obj
 0002:000017bc       ?kReturn@DuiLib@@3QBDB     004677bc     UICrack.obj
 0002:000017cc       ?kTextChanged@DuiLib@@3QBDB 004677cc     UICrack.obj
 0002:000017dc       ?kKillFocus@DuiLib@@3QBDB  004677dc     UICrack.obj
 0002:000017ec       ?kSetFocus@DuiLib@@3QBDB   004677ec     UICrack.obj
 0002:00001800       ?kValueChanged@DuiLib@@3QBDB 00467800     UICrack.obj
 0002:000018f0       ?kMenuUIClassName@DuiLib@@3QBDB 004678f0     UIMenu.obj
 0002:000018fc       ?kMenuUIInterfaceName@DuiLib@@3QBDB 004678fc     UIMenu.obj
 0002:00001918       ?kMenuElementUIClassName@DuiLib@@3QBDB 00467918     UIMenu.obj
 0002:00001928       ?kMenuElementUIInterfaceName@DuiLib@@3QBDB 00467928     UIMenu.obj
 0002:00001970       ??_7CMenuUI@DuiLib@@6B@    00467970     UIMenu.obj
 0002:000019a4       ??_7CMenuUI@DuiLib@@6BIContainerUI@1@@ 004679a4     UIMenu.obj
 0002:000019d4       ??_7CMenuUI@DuiLib@@6BCControlUI@1@@ 004679d4     UIMenu.obj
 0002:00001bd8       ??_7CMenuWnd@DuiLib@@6B?$ReceiverImpl@HUContextMenuParam@DuiLib@@@@@ 00467bd8     UIMenu.obj
 0002:00001bf4       ??_7CMenuWnd@DuiLib@@6BCWindowWnd@1@@ 00467bf4     UIMenu.obj
 0002:00001c10       ??_7CMenuBuilderCallback@DuiLib@@6B@ 00467c10     UIMenu.obj
 0002:00001c1c       ??_7IDialogBuilderCallback@DuiLib@@6B@ 00467c1c     UIMenu.obj
 0002:00001c28       ??_7CMenuElementUI@DuiLib@@6B@ 00467c28     UIMenu.obj
 0002:00001c58       ??_7CMenuElementUI@DuiLib@@6BIContainerUI@1@@ 00467c58     UIMenu.obj
 0002:00001c8c       ??_7CMenuElementUI@DuiLib@@6BCControlUI@1@@ 00467c8c     UIMenu.obj
 0002:00001e90       ??_7?$ReceiverImpl@HUContextMenuParam@DuiLib@@@@6B@ 00467e90     UIMenu.obj
 0002:00001eac       ??_7?$ReceiverImplBase@HUContextMenuParam@DuiLib@@@@6B@ 00467eac     UIMenu.obj
 0002:00001ec0       ??_C@_1DC@POOIKBAO@?$AAI?$AAT?$AAE?$AAR?$AAA?$AAT?$AAO?$AAR?$AA?5?$AAL?$AAI?$AAS?$AAT?$AA?5?$AAC?$AAO?$AAR?$AAR?$AAU?$AAP?$AAT?$AAE?$AAD?$AA?$CB?$AA?$AA@ 00467ec0     UIMenu.obj
 0002:00001f00       ??_C@_1IE@PHGAPAJD@?$AAC?$AA?3?$AA?2?$AAP?$AAr?$AAo?$AAg?$AAr?$AAa?$AAm?$AA?5?$AAF?$AAi?$AAl?$AAe?$AAs?$AA?2?$AAM?$AAi?$AAc?$AAr?$AAo?$AAs?$AAo?$AAf?$AAt?$AA?5?$AAV?$AAi?$AAs?$AAu?$AAa@ 00467f00     UIMenu.obj
 0002:00001fa0       ??_C@_1BO@MEPPHOO@?$AA?$CC?$AAo?$AAu?$AAt?$AA?5?$AAo?$AAf?$AA?5?$AAr?$AAa?$AAn?$AAg?$AAe?$AA?$CC?$AA?$AA@ 00467fa0     UIMenu.obj
 0002:00001fc8       ??_C@_1BFK@DOOBKMGL@?$AAs?$AAt?$AAd?$AA?3?$AA?3?$AAv?$AAe?$AAc?$AAt?$AAo?$AAr?$AA?$DM?$AAc?$AAl?$AAa?$AAs?$AAs?$AA?5?$AAR?$AAe?$AAc?$AAe?$AAi?$AAv?$AAe?$AAr?$AAI?$AAm?$AAp?$AAl?$AAB?$AAa@ 00467fc8     UIMenu.obj
 0002:00002168       ??_C@_1FG@IBPIFFN@?$AA?$CC?$AAS?$AAt?$AAa?$AAn?$AAd?$AAa?$AAr?$AAd?$AA?5?$AAC?$AA?$CL?$AA?$CL?$AA?5?$AAL?$AAi?$AAb?$AAr?$AAa?$AAr?$AAi?$AAe?$AAs?$AA?5?$AAO?$AAu?$AAt?$AA?5?$AAo?$AAf?$AA?5?$AAR@ 00468168     UIMenu.obj
 0002:000021d0       ??_C@_0CE@OFMIGAMM@Standard?5C?$CL?$CL?5Libraries?5Out?5of?5Ra@ 004681d0     UIMenu.obj
 0002:000021fc       ??_C@_1DM@LHGCHCBA@?$AAv?$AAe?$AAc?$AAt?$AAo?$AAr?$AA?5?$AAs?$AAu?$AAb?$AAs?$AAc?$AAr?$AAi?$AAp?$AAt?$AA?5?$AAo?$AAu?$AAt?$AA?5?$AAo?$AAf?$AA?5?$AAr?$AAa?$AAn?$AAg?$AAe?$AA?$AA@ 004681fc     UIMenu.obj
 0002:00002248       ??_C@_1IA@ELPEOOKC@?$AAC?$AA?3?$AA?2?$AAP?$AAr?$AAo?$AAg?$AAr?$AAa?$AAm?$AA?5?$AAF?$AAi?$AAl?$AAe?$AAs?$AA?2?$AAM?$AAi?$AAc?$AAr?$AAo?$AAs?$AAo?$AAf?$AAt?$AA?5?$AAV?$AAi?$AAs?$AAu?$AAa@ 00468248     UIMenu.obj
 0002:000022e8       ??_C@_1BKK@HHPCJMNH@?$AAs?$AAt?$AAd?$AA?3?$AA?3?$AA_?$AAV?$AAe?$AAc?$AAt?$AAo?$AAr?$AA_?$AAc?$AAo?$AAn?$AAs?$AAt?$AA_?$AAi?$AAt?$AAe?$AAr?$AAa?$AAt?$AAo?$AAr?$AA?$DM?$AAc?$AAl?$AAa?$AAs@ 004682e8     UIMenu.obj
 0002:000024e8       ??_C@_1EG@FOHJJHAC@?$AAv?$AAe?$AAc?$AAt?$AAo?$AAr?$AA?5?$AAi?$AAt?$AAe?$AAr?$AAa?$AAt?$AAo?$AAr?$AA?5?$AAn?$AAo?$AAt?$AA?5?$AAd?$AAe?$AAr?$AAe?$AAf?$AAe?$AAr?$AAe?$AAn?$AAc?$AAa?$AAb@ 004684e8     UIMenu.obj
 0002:00002540       ??_C@_1BKK@OKDEEEGA@?$AAs?$AAt?$AAd?$AA?3?$AA?3?$AA_?$AAV?$AAe?$AAc?$AAt?$AAo?$AAr?$AA_?$AAc?$AAo?$AAn?$AAs?$AAt?$AA_?$AAi?$AAt?$AAe?$AAr?$AAa?$AAt?$AAo?$AAr?$AA?$DM?$AAc?$AAl?$AAa?$AAs@ 00468540     UIMenu.obj
 0002:00002740       ??_C@_1BKM@KICDPPIA@?$AAs?$AAt?$AAd?$AA?3?$AA?3?$AA_?$AAV?$AAe?$AAc?$AAt?$AAo?$AAr?$AA_?$AAc?$AAo?$AAn?$AAs?$AAt?$AA_?$AAi?$AAt?$AAe?$AAr?$AAa?$AAt?$AAo?$AAr?$AA?$DM?$AAc?$AAl?$AAa?$AAs@ 00468740     UIMenu.obj
 0002:00002948       ??_C@_1EE@EJDKCLKB@?$AAv?$AAe?$AAc?$AAt?$AAo?$AAr?$AA?5?$AAi?$AAt?$AAe?$AAr?$AAa?$AAt?$AAo?$AAr?$AA?5?$AAn?$AAo?$AAt?$AA?5?$AAi?$AAn?$AAc?$AAr?$AAe?$AAm?$AAe?$AAn?$AAt?$AAa?$AAb?$AAl@ 00468948     UIMenu.obj
 0002:0000299c       ??_C@_0BD@OLBABOEK@vector?$DMT?$DO?5too?5long?$AA@ 0046899c     UIMenu.obj
 0002:000029b8       ??_C@_1BKM@HIJNLMBO@?$AAs?$AAt?$AAd?$AA?3?$AA?3?$AA_?$AAV?$AAe?$AAc?$AAt?$AAo?$AAr?$AA_?$AAc?$AAo?$AAn?$AAs?$AAt?$AA_?$AAi?$AAt?$AAe?$AAr?$AAa?$AAt?$AAo?$AAr?$AA?$DM?$AAc?$AAl?$AAa?$AAs@ 004689b8     UIMenu.obj
 0002:00002bc0       ??_C@_1EE@OEIJAKGE@?$AAv?$AAe?$AAc?$AAt?$AAo?$AAr?$AA?5?$AAi?$AAt?$AAe?$AAr?$AAa?$AAt?$AAo?$AAr?$AA?5?$AAn?$AAo?$AAt?$AA?5?$AAd?$AAe?$AAc?$AAr?$AAe?$AAm?$AAe?$AAn?$AAt?$AAa?$AAb?$AAl@ 00468bc0     UIMenu.obj
 0002:00002c14       ??_C@_1CG@JNLFBNGN@?$AA?$CC?$AAi?$AAn?$AAv?$AAa?$AAl?$AAi?$AAd?$AA?5?$AAa?$AAr?$AAg?$AAu?$AAm?$AAe?$AAn?$AAt?$AA?$CC?$AA?$AA@ 00468c14     UIMenu.obj
 0002:00002c48       ??_C@_1BKE@LPPFCLCN@?$AAs?$AAt?$AAd?$AA?3?$AA?3?$AA_?$AAV?$AAe?$AAc?$AAt?$AAo?$AAr?$AA_?$AAc?$AAo?$AAn?$AAs?$AAt?$AA_?$AAi?$AAt?$AAe?$AAr?$AAa?$AAt?$AAo?$AAr?$AA?$DM?$AAc?$AAl?$AAa?$AAs@ 00468c48     UIMenu.obj
 0002:00002e40       ??_C@_1FO@GJIHNDLM@?$AA?$CC?$AAS?$AAt?$AAa?$AAn?$AAd?$AAa?$AAr?$AAd?$AA?5?$AAC?$AA?$CL?$AA?$CL?$AA?5?$AAL?$AAi?$AAb?$AAr?$AAa?$AAr?$AAi?$AAe?$AAs?$AA?5?$AAI?$AAn?$AAv?$AAa?$AAl?$AAi?$AAd?$AA?5@ 00468e40     UIMenu.obj
 0002:00002eb0       ??_C@_0CI@FNPHFCCM@Standard?5C?$CL?$CL?5Libraries?5Invalid?5A@ 00468eb0     UIMenu.obj
 0002:00002ee0       ??_C@_1DM@HINDPMBP@?$AAv?$AAe?$AAc?$AAt?$AAo?$AAr?$AA?5?$AAi?$AAt?$AAe?$AAr?$AAa?$AAt?$AAo?$AAr?$AAs?$AA?5?$AAi?$AAn?$AAc?$AAo?$AAm?$AAp?$AAa?$AAt?$AAi?$AAb?$AAl?$AAe?$AA?$AA@ 00468ee0     UIMenu.obj
 0002:00002f28       ??_C@_1BKE@FKIKEKBH@?$AAs?$AAt?$AAd?$AA?3?$AA?3?$AA_?$AAV?$AAe?$AAc?$AAt?$AAo?$AAr?$AA_?$AAc?$AAo?$AAn?$AAs?$AAt?$AA_?$AAi?$AAt?$AAe?$AAr?$AAa?$AAt?$AAo?$AAr?$AA?$DM?$AAc?$AAl?$AAa?$AAs@ 00468f28     UIMenu.obj
 0002:00003120       ??_C@_1IA@DFCPGCKJ@?$AAC?$AA?3?$AA?2?$AAP?$AAr?$AAo?$AAg?$AAr?$AAa?$AAm?$AA?5?$AAF?$AAi?$AAl?$AAe?$AAs?$AA?2?$AAM?$AAi?$AAc?$AAr?$AAo?$AAs?$AAo?$AAf?$AAt?$AA?5?$AAV?$AAi?$AAs?$AAu?$AAa@ 00469120     UIMenu.obj
 0002:000031bc       ??_C@_1CO@DGLIKNHI@?$AAi?$AAn?$AAv?$AAa?$AAl?$AAi?$AAd?$AA?5?$AAi?$AAt?$AAe?$AAr?$AAa?$AAt?$AAo?$AAr?$AA?5?$AAr?$AAa?$AAn?$AAg?$AAe?$AA?$AA@ 004691bc     UIMenu.obj
 0002:000031f8       ??_7?$ObserverImpl@HUContextMenuParam@DuiLib@@@@6B@ 004691f8     UIMenu.obj
 0002:0000321c       ??_7?$ObserverImplBase@HUContextMenuParam@DuiLib@@@@6B@ 0046921c     UIMenu.obj
 0002:00003238       ??_C@_1EI@HGIDLLCM@?$AAv?$AAe?$AAc?$AAt?$AAo?$AAr?$AA?5?$AAe?$AAr?$AAa?$AAs?$AAe?$AA?5?$AAi?$AAt?$AAe?$AAr?$AAa?$AAt?$AAo?$AAr?$AA?5?$AAo?$AAu?$AAt?$AAs?$AAi?$AAd?$AAe?$AA?5?$AAr?$AAa@ 00469238     UIMenu.obj
 0002:00003290       ??_C@_1BKM@ILKPAANP@?$AAs?$AAt?$AAd?$AA?3?$AA?3?$AA_?$AAV?$AAe?$AAc?$AAt?$AAo?$AAr?$AA_?$AAc?$AAo?$AAn?$AAs?$AAt?$AA_?$AAi?$AAt?$AAe?$AAr?$AAa?$AAt?$AAo?$AAr?$AA?$DM?$AAc?$AAl?$AAa?$AAs@ 00469290     UIMenu.obj
 0002:000034bc       ??_7WindowImplBase@@6BIDialogBuilderCallback@DuiLib@@@ 004694bc     win_impl_base.obj
 0002:000034c8       ??_7WindowImplBase@@6BIMessageFilterUI@DuiLib@@@ 004694c8     win_impl_base.obj
 0002:000034d4       ??_7WindowImplBase@@6BINotifyUI@DuiLib@@@ 004694d4     win_impl_base.obj
 0002:000034e4       ??_7WindowImplBase@@6BCWindowWnd@DuiLib@@@ 004694e4     win_impl_base.obj
 0002:00003574       ??_7INotifyUI@DuiLib@@6B@  00469574     win_impl_base.obj
 0002:00003580       ??_7IMessageFilterUI@DuiLib@@6B@ 00469580     win_impl_base.obj
 0002:00003598       ??_7invalid_argument@std@@6B@ 00469598     libcpmtd:xthrow.obj
 0002:000035a4       ??_7logic_error@std@@6B@   004695a4     libcpmtd:xthrow.obj
 0002:000035b0       ??_7length_error@std@@6B@  004695b0     libcpmtd:xthrow.obj
 0002:000035bc       ??_7out_of_range@std@@6B@  004695bc     libcpmtd:xthrow.obj
 0002:000035c8       ??_7overflow_error@std@@6B@ 004695c8     libcpmtd:xthrow.obj
 0002:000035d4       ??_7runtime_error@std@@6B@ 004695d4     libcpmtd:xthrow.obj
 0002:000035e0       ??_C@_1EC@FABAOFFO@?$AA?$CI?$AAc?$AAo?$AAu?$AAn?$AAt?$AA?5?$AA?$DN?$AA?$DN?$AA?5?$AA0?$AA?$CJ?$AA?5?$AA?$HM?$AA?$HM?$AA?5?$AA?$CI?$AAs?$AAt?$AAr?$AAi?$AAn?$AAg?$AA?5?$AA?$CB?$AA?$DN?$AA?5?$AAN?$AAU?$AAL?$AAL?$AA?$CJ@ 004695e0     LIBCMTD:vsnprnc.obj
 0002:00003624       ??_C@_1CE@PCFPEIFI@?$AA_?$AAv?$AAs?$AAn?$AAp?$AAr?$AAi?$AAn?$AAt?$AAf?$AA_?$AAh?$AAe?$AAl?$AAp?$AAe?$AAr?$AA?$AA@ 00469624     LIBCMTD:vsnprnc.obj
 0002:00003648       ??_C@_1GE@DPADKNCG@?$AAf?$AA?3?$AA?2?$AAd?$AAd?$AA?2?$AAv?$AAc?$AAt?$AAo?$AAo?$AAl?$AAs?$AA?2?$AAc?$AAr?$AAt?$AA_?$AAb?$AAl?$AAd?$AA?2?$AAs?$AAe?$AAl?$AAf?$AA_?$AAx?$AA8?$AA6?$AA?2?$AAc@ 00469648     LIBCMTD:vsnprnc.obj
 0002:000036ac       ??_C@_1CC@MGIEJOME@?$AA?$CI?$AAf?$AAo?$AAr?$AAm?$AAa?$AAt?$AA?5?$AA?$CB?$AA?$DN?$AA?5?$AAN?$AAU?$AAL?$AAL?$AA?$CJ?$AA?$AA@ 004696ac     LIBCMTD:vsnprnc.obj
 0002:000036d0       ??_C@_1DA@HPBFKMEB@?$AA?$CI?$AA?$CC?$AAB?$AAu?$AAf?$AAf?$AAe?$AAr?$AA?5?$AAt?$AAo?$AAo?$AA?5?$AAs?$AAm?$AAa?$AAl?$AAl?$AA?$CC?$AA?0?$AA?5?$AA0?$AA?$CJ?$AA?$AA@ 004696d0     LIBCMTD:vsnprnc.obj
 0002:00003700       ??_C@_1EE@OKCKIGFK@?$AAs?$AAt?$AAr?$AAi?$AAn?$AAg?$AA?5?$AA?$CB?$AA?$DN?$AA?5?$AAN?$AAU?$AAL?$AAL?$AA?5?$AA?$CG?$AA?$CG?$AA?5?$AAs?$AAi?$AAz?$AAe?$AAI?$AAn?$AAB?$AAy?$AAt?$AAe?$AAs?$AA?5?$AA?$DO?$AA?5@ 00469700     LIBCMTD:vsnprnc.obj
 0002:00003744       ??_C@_1BM@BLJALHEF@?$AA_?$AAv?$AAs?$AAp?$AAr?$AAi?$AAn?$AAt?$AAf?$AA_?$AAs?$AA_?$AAl?$AA?$AA@ 00469744     LIBCMTD:vsnprnc.obj
 0002:00003760       ??_C@_1BO@MLMCMBKN@?$AAf?$AAo?$AAr?$AAm?$AAa?$AAt?$AA?5?$AA?$CB?$AA?$DN?$AA?5?$AAN?$AAU?$AAL?$AAL?$AA?$AA@ 00469760     LIBCMTD:vsnprnc.obj
 0002:00003780       ??_C@_1BO@MMPELNIM@?$AA_?$AAv?$AAs?$AAn?$AAp?$AAr?$AAi?$AAn?$AAt?$AAf?$AA_?$AAs?$AA_?$AAl?$AA?$AA@ 00469780     LIBCMTD:vsnprnc.obj
 0002:000037a0       ??_C@_1BAA@ODEGEDCK@?$AA?$CI?$AA?5?$AA?$CI?$AA_?$AAS?$AAt?$AAr?$AAe?$AAa?$AAm?$AA?9?$AA?$DO?$AA_?$AAf?$AAl?$AAa?$AAg?$AA?5?$AA?$CG?$AA?5?$AA_?$AAI?$AAO?$AAS?$AAT?$AAR?$AAG?$AA?$CJ?$AA?5?$AA?$HM?$AA?$HM?$AA?5@ 004697a0     LIBCMTD:vfprintf.obj
 0002:000038a0       ??_C@_1CA@OEHMHBJF@?$AAv?$AAf?$AAp?$AAr?$AAi?$AAn?$AAt?$AAf?$AA_?$AAh?$AAe?$AAl?$AAp?$AAe?$AAr?$AA?$AA@ 004698a0     LIBCMTD:vfprintf.obj
 0002:000038c0       ??_C@_1GE@PEEPNGBM@?$AAf?$AA?3?$AA?2?$AAd?$AAd?$AA?2?$AAv?$AAc?$AAt?$AAo?$AAo?$AAl?$AAs?$AA?2?$AAc?$AAr?$AAt?$AA_?$AAb?$AAl?$AAd?$AA?2?$AAs?$AAe?$AAl?$AAf?$AA_?$AAx?$AA8?$AA6?$AA?2?$AAc@ 004698c0     LIBCMTD:vfprintf.obj
 0002:00003924       ??_C@_1BM@JMKHIAHP@?$AA?$CI?$AAs?$AAt?$AAr?$AA?5?$AA?$CB?$AA?$DN?$AA?5?$AAN?$AAU?$AAL?$AAL?$AA?$CJ?$AA?$AA@ 00469924     LIBCMTD:vfprintf.obj
 0002:00003940       ??_C@_1O@EGMJNCOI@?$AAf?$AAc?$AAl?$AAo?$AAs?$AAe?$AA?$AA@ 00469940     LIBCMTD:fclose.obj
 0002:00003950       ??_C@_1GA@KMIDAPAP@?$AAf?$AA?3?$AA?2?$AAd?$AAd?$AA?2?$AAv?$AAc?$AAt?$AAo?$AAo?$AAl?$AAs?$AA?2?$AAc?$AAr?$AAt?$AA_?$AAb?$AAl?$AAd?$AA?2?$AAs?$AAe?$AAl?$AAf?$AA_?$AAx?$AA8?$AA6?$AA?2?$AAc@ 00469950     LIBCMTD:fclose.obj
 0002:000039b0       ??_C@_1CC@FADMNIL@?$AA?$CI?$AAs?$AAt?$AAr?$AAe?$AAa?$AAm?$AA?5?$AA?$CB?$AA?$DN?$AA?5?$AAN?$AAU?$AAL?$AAL?$AA?$CJ?$AA?$AA@ 004699b0     LIBCMTD:fclose.obj
 0002:000039d4       ??_C@_1BO@JINCABEC@?$AA_?$AAf?$AAc?$AAl?$AAo?$AAs?$AAe?$AA_?$AAn?$AAo?$AAl?$AAo?$AAc?$AAk?$AA?$AA@ 004699d4     LIBCMTD:fclose.obj
 0002:000039f4       ??_C@_1M@CKCKPMNP@?$AAf?$AAt?$AAe?$AAl?$AAl?$AA?$AA@ 004699f4     LIBCMTD:ftell.obj
 0002:00003a00       ??_C@_1FO@NBACIADE@?$AAf?$AA?3?$AA?2?$AAd?$AAd?$AA?2?$AAv?$AAc?$AAt?$AAo?$AAo?$AAl?$AAs?$AA?2?$AAc?$AAr?$AAt?$AA_?$AAb?$AAl?$AAd?$AA?2?$AAs?$AAe?$AAl?$AAf?$AA_?$AAx?$AA8?$AA6?$AA?2?$AAc@ 00469a00     LIBCMTD:ftell.obj
 0002:00003a60       ??_C@_1BM@EPIDANEK@?$AA_?$AAf?$AAt?$AAe?$AAl?$AAl?$AA_?$AAn?$AAo?$AAl?$AAo?$AAc?$AAk?$AA?$AA@ 00469a60     LIBCMTD:ftell.obj
 0002:00003a80       ??_C@_1IO@PMHBOLJK@?$AA?$CI?$AA?$CI?$AAw?$AAh?$AAe?$AAn?$AAc?$AAe?$AA?5?$AA?$DN?$AA?$DN?$AA?5?$AAS?$AAE?$AAE?$AAK?$AA_?$AAS?$AAE?$AAT?$AA?$CJ?$AA?5?$AA?$HM?$AA?$HM?$AA?5?$AA?$CI?$AAw?$AAh?$AAe?$AAn?$AAc?$AAe@ 00469a80     LIBCMTD:fseek.obj
 0002:00003b10       ??_C@_1M@HCCOIONH@?$AAf?$AAs?$AAe?$AAe?$AAk?$AA?$AA@ 00469b10     LIBCMTD:fseek.obj
 0002:00003b20       ??_C@_1FO@ECBPAICH@?$AAf?$AA?3?$AA?2?$AAd?$AAd?$AA?2?$AAv?$AAc?$AAt?$AAo?$AAo?$AAl?$AAs?$AA?2?$AAc?$AAr?$AAt?$AA_?$AAb?$AAl?$AAd?$AA?2?$AAs?$AAe?$AAl?$AAf?$AA_?$AAx?$AA8?$AA6?$AA?2?$AAc@ 00469b20     LIBCMTD:fseek.obj
 0002:00003b80       ??_C@_1CI@HBNALCBB@?$AA?$CI?$AA?$CK?$AAm?$AAo?$AAd?$AAe?$AA?5?$AA?$CB?$AA?$DN?$AA?5?$AA_?$AAT?$AA?$CI?$AA?8?$AA?2?$AA0?$AA?8?$AA?$CJ?$AA?$CJ?$AA?$AA@ 00469b80     LIBCMTD:fopen.obj
 0002:00003ba8       ??_C@_1BO@MJMKAKCJ@?$AA?$CI?$AAm?$AAo?$AAd?$AAe?$AA?5?$AA?$CB?$AA?$DN?$AA?5?$AAN?$AAU?$AAL?$AAL?$AA?$CJ?$AA?$AA@ 00469ba8     LIBCMTD:fopen.obj
 0002:00003bc8       ??_C@_1BA@HNEAFMNL@?$AA_?$AAf?$AAs?$AAo?$AAp?$AAe?$AAn?$AA?$AA@ 00469bc8     LIBCMTD:fopen.obj
 0002:00003bd8       ??_C@_1FO@NCADDBOO@?$AAf?$AA?3?$AA?2?$AAd?$AAd?$AA?2?$AAv?$AAc?$AAt?$AAo?$AAo?$AAl?$AAs?$AA?2?$AAc?$AAr?$AAt?$AA_?$AAb?$AAl?$AAd?$AA?2?$AAs?$AAe?$AAl?$AAf?$AA_?$AAx?$AA8?$AA6?$AA?2?$AAc@ 00469bd8     LIBCMTD:fopen.obj
 0002:00003c38       ??_C@_1BO@CLGIAEOJ@?$AA?$CI?$AAf?$AAi?$AAl?$AAe?$AA?5?$AA?$CB?$AA?$DN?$AA?5?$AAN?$AAU?$AAL?$AAL?$AA?$CJ?$AA?$AA@ 00469c38     LIBCMTD:fopen.obj
 0002:00003c58       ??_C@_1BA@PBGKCCAP@?$AAf?$AAo?$AAp?$AAe?$AAn?$AA_?$AAs?$AA?$AA@ 00469c58     LIBCMTD:fopen.obj
 0002:00003c68       ??_C@_1CA@LLJLFCDN@?$AA?$CI?$AAp?$AAf?$AAi?$AAl?$AAe?$AA?5?$AA?$CB?$AA?$DN?$AA?5?$AAN?$AAU?$AAL?$AAL?$AA?$CJ?$AA?$AA@ 00469c68     LIBCMTD:fopen.obj
 0002:00003c88       ??_C@_1CC@OLIJCKA@?$AA?$CI?$AAs?$AAt?$AAr?$AAi?$AAn?$AAg?$AA?5?$AA?$CB?$AA?$DN?$AA?5?$AAN?$AAU?$AAL?$AAL?$AA?$CJ?$AA?$AA@ 00469c88     LIBCMTD:sprintf.obj
 0002:00003cac       ??_C@_1BA@KBJJGFFE@?$AAs?$AAp?$AAr?$AAi?$AAn?$AAt?$AAf?$AA?$AA@ 00469cac     LIBCMTD:sprintf.obj
 0002:00003cc0       ??_C@_1GC@BMNPEKNN@?$AAf?$AA?3?$AA?2?$AAd?$AAd?$AA?2?$AAv?$AAc?$AAt?$AAo?$AAo?$AAl?$AAs?$AA?2?$AAc?$AAr?$AAt?$AA_?$AAb?$AAl?$AAd?$AA?2?$AAs?$AAe?$AAl?$AAf?$AA_?$AAx?$AA8?$AA6?$AA?2?$AAc@ 00469cc0     LIBCMTD:sprintf.obj
 0002:00003d24       ?ProcessDetach@NativeDll@<CrtImplementationDetails>@@0IB 00469d24     LIBCMTD:_trnsctrl_.obj
 0002:00003d28       ?ProcessAttach@NativeDll@<CrtImplementationDetails>@@0IB 00469d28     LIBCMTD:_trnsctrl_.obj
 0002:00003d2c       ?ThreadAttach@NativeDll@<CrtImplementationDetails>@@0IB 00469d2c     LIBCMTD:_trnsctrl_.obj
 0002:00003d30       ?ThreadDetach@NativeDll@<CrtImplementationDetails>@@0IB 00469d30     LIBCMTD:_trnsctrl_.obj
 0002:00003d34       ?ProcessVerifier@NativeDll@<CrtImplementationDetails>@@0IB 00469d34     LIBCMTD:_trnsctrl_.obj
 0002:00003d38       ??_C@_0DA@HMCPFNKN@f?3?2dd?2vctools?2crt_bld?2self_x86?2c@ 00469d38     LIBCMTD:onexit.obj
 0002:00003d6c       ??_7type_info@@6B@         00469d6c     LIBCMTD:typinfo.obj
 0002:00003d70       ??_C@_1GE@BDAODJCD@?$AAf?$AA?3?$AA?2?$AAd?$AAd?$AA?2?$AAv?$AAc?$AAt?$AAo?$AAo?$AAl?$AAs?$AA?2?$AAc?$AAr?$AAt?$AA_?$AAb?$AAl?$AAd?$AA?2?$AAs?$AAe?$AAl?$AAf?$AA_?$AAx?$AA8?$AA6?$AA?2?$AAc@ 00469d70     LIBCMTD:dbgdel.obj
 0002:00003dd8       ??_C@_1EO@LHDAJOCM@?$AA_?$AAB?$AAL?$AAO?$AAC?$AAK?$AA_?$AAT?$AAY?$AAP?$AAE?$AA_?$AAI?$AAS?$AA_?$AAV?$AAA?$AAL?$AAI?$AAD?$AA?$CI?$AAp?$AAH?$AAe?$AAa?$AAd?$AA?9?$AA?$DO?$AAn?$AAB?$AAl?$AAo@ 00469dd8     LIBCMTD:dbgdel.obj
 0002:00003e28       ??_C@_0P@GHFPNOJB@bad?5allocation?$AA@ 00469e28     LIBCMTD:new.obj
 0002:00003e38       ??_C@_1BG@GBJNMPFA@?$AAs?$AA2?$AA?5?$AA?$CB?$AA?$DN?$AA?5?$AAN?$AAU?$AAL?$AAL?$AA?$AA@ 00469e38     LIBCMTD:mbsicmp.obj
 0002:00003e50       ??_C@_1BG@BMDHEPAJ@?$AA_?$AAm?$AAb?$AAs?$AAi?$AAc?$AAm?$AAp?$AA_?$AAl?$AA?$AA@ 00469e50     LIBCMTD:mbsicmp.obj
 0002:00003e68       ??_C@_1GC@JPDOJPPF@?$AAf?$AA?3?$AA?2?$AAd?$AAd?$AA?2?$AAv?$AAc?$AAt?$AAo?$AAo?$AAl?$AAs?$AA?2?$AAc?$AAr?$AAt?$AA_?$AAb?$AAl?$AAd?$AA?2?$AAs?$AAe?$AAl?$AAf?$AA_?$AAx?$AA8?$AA6?$AA?2?$AAc@ 00469e68     LIBCMTD:mbsicmp.obj
 0002:00003ecc       ??_C@_1BG@MODEICJK@?$AAs?$AA1?$AA?5?$AA?$CB?$AA?$DN?$AA?5?$AAN?$AAU?$AAL?$AAL?$AA?$AA@ 00469ecc     LIBCMTD:mbsicmp.obj
 0002:00003f08       ??_7exception@std@@6B@     00469f08     LIBCMTD:stdexcpt.obj
 0002:00003f10       ??_C@_0BC@EOODALEL@Unknown?5exception?$AA@ 00469f10     LIBCMTD:stdexcpt.obj
 0002:00003f28       ??_7bad_cast@std@@6B@      00469f28     LIBCMTD:stdexcpt.obj
 0002:00003f34       ??_7bad_typeid@std@@6B@    00469f34     LIBCMTD:stdexcpt.obj
 0002:00003f40       ??_7__non_rtti_object@std@@6B@ 00469f40     LIBCMTD:stdexcpt.obj
 0002:00003f48       ??_C@_0CB@CGKGGDFI@Access?5violation?5?9?5no?5RTTI?5data?$CB@ 00469f48     LIBCMTD:rtti.obj
 0002:00003f6c       ??_C@_0CB@EEENAAHH@Bad?5read?5pointer?5?9?5no?5RTTI?5data?$CB@ 00469f6c     LIBCMTD:rtti.obj
 0002:00003f90       ??_C@_0CE@FFJAJLDK@Attempted?5a?5typeid?5of?5NULL?5point@ 00469f90     LIBCMTD:rtti.obj
 0002:00003fb4       ??_C@_0BC@JNJNLHBP@Bad?5dynamic_cast?$CB?$AA@ 00469fb4     LIBCMTD:rtti.obj
 0002:00003fc8       ??_C@_17LGKOMLJ@?$AA?4?$AA?4?$AA?4?$AA?$AA@ 00469fc8     LIBCMTD:dbgrptw.obj
 0002:00003fd0       ??_C@_1CC@CGHMNGDG@?$AAA?$AAs?$AAs?$AAe?$AAr?$AAt?$AAi?$AAo?$AAn?$AA?5?$AAF?$AAa?$AAi?$AAl?$AAe?$AAd?$AA?$AA@ 00469fd0     LIBCMTD:dbgrptw.obj
 0002:00003ff4       ??_C@_1M@ILHOPKA@?$AAE?$AAr?$AAr?$AAo?$AAr?$AA?$AA@ 00469ff4     LIBCMTD:dbgrptw.obj
 0002:00004000       ??_C@_1BA@GLMCNLEM@?$AAW?$AAa?$AAr?$AAn?$AAi?$AAn?$AAg?$AA?$AA@ 0046a000     LIBCMTD:dbgrptw.obj
 0002:0000401c       ??_C@_0DA@PCCBBBID@f?3?2dd?2vctools?2crt_bld?2self_x86?2c@ 0046a01c     LIBCMTD:dbgrptw.obj
 0002:00004050       ??_C@_1FI@PHIAFFHM@?$AA?$CI?$AA?$CC?$AAT?$AAh?$AAe?$AA?5?$AAh?$AAo?$AAo?$AAk?$AA?5?$AAf?$AAu?$AAn?$AAc?$AAt?$AAi?$AAo?$AAn?$AA?5?$AAi?$AAs?$AA?5?$AAn?$AAo?$AAt?$AA?5?$AAi?$AAn?$AA?5?$AAt?$AAh@ 0046a050     LIBCMTD:dbgrptw.obj
 0002:000040a8       ??_C@_1CG@JBJEFOCM@?$AAp?$AAf?$AAn?$AAN?$AAe?$AAw?$AAH?$AAo?$AAo?$AAk?$AA?5?$AA?$CB?$AA?$DN?$AA?5?$AAN?$AAU?$AAL?$AAL?$AA?$AA@ 0046a0a8     LIBCMTD:dbgrptw.obj
 0002:000040d0       ??_C@_1CI@IIHEAKEI@?$AA_?$AAC?$AAr?$AAt?$AAS?$AAe?$AAt?$AAR?$AAe?$AAp?$AAo?$AAr?$AAt?$AAH?$AAo?$AAo?$AAk?$AAW?$AA2?$AA?$AA@ 0046a0d0     LIBCMTD:dbgrptw.obj
 0002:000040f8       ??_C@_1GA@IBJGKIFE@?$AAf?$AA?3?$AA?2?$AAd?$AAd?$AA?2?$AAv?$AAc?$AAt?$AAo?$AAo?$AAl?$AAs?$AA?2?$AAc?$AAr?$AAt?$AA_?$AAb?$AAl?$AAd?$AA?2?$AAs?$AAe?$AAl?$AAf?$AA_?$AAx?$AA8?$AA6?$AA?2?$AAc@ 0046a0f8     LIBCMTD:dbgrptw.obj
 0002:00004158       ??_C@_1HI@OFEHGPPC@?$AAm?$AAo?$AAd?$AAe?$AA?5?$AA?$DN?$AA?$DN?$AA?5?$AA_?$AAC?$AAR?$AAT?$AA_?$AAR?$AAP?$AAT?$AAH?$AAO?$AAO?$AAK?$AA_?$AAI?$AAN?$AAS?$AAT?$AAA?$AAL?$AAL?$AA?5?$AA?$HM?$AA?$HM?$AA?5@ 0046a158     LIBCMTD:dbgrptw.obj
 0002:000041d0       ??_C@_1EG@PEOEAKBB@?$AAM?$AAi?$AAc?$AAr?$AAo?$AAs?$AAo?$AAf?$AAt?$AA?5?$AAV?$AAi?$AAs?$AAu?$AAa?$AAl?$AA?5?$AAC?$AA?$CL?$AA?$CL?$AA?5?$AAD?$AAe?$AAb?$AAu?$AAg?$AA?5?$AAL?$AAi?$AAb?$AAr?$AAa@ 0046a1d0     LIBCMTD:dbgrptw.obj
 0002:00004218       ??_C@_1FG@BBOLDHGF@?$AA_?$AAC?$AAr?$AAt?$AAD?$AAb?$AAg?$AAR?$AAe?$AAp?$AAo?$AAr?$AAt?$AA?3?$AA?5?$AAS?$AAt?$AAr?$AAi?$AAn?$AAg?$AA?5?$AAt?$AAo?$AAo?$AA?5?$AAl?$AAo?$AAn?$AAg?$AA?5?$AAo@ 0046a218     LIBCMTD:dbgrptw.obj
 0002:00004270       ??_C@_1JI@EACPGHID@?$AAw?$AAc?$AAs?$AAc?$AAp?$AAy?$AA_?$AAs?$AA?$CI?$AAs?$AAz?$AAO?$AAu?$AAt?$AAM?$AAe?$AAs?$AAs?$AAa?$AAg?$AAe?$AA?0?$AA?5?$AA4?$AA0?$AA9?$AA6?$AA?0?$AA?5?$AAL?$AA?$CC?$AA_@ 0046a270     LIBCMTD:dbgrptw.obj
 0002:00004308       ??_C@_1BI@KALLJECN@?$AA?$CI?$AA?$CK?$AA_?$AAe?$AAr?$AAr?$AAn?$AAo?$AA?$CI?$AA?$CJ?$AA?$CJ?$AA?$AA@ 0046a308     LIBCMTD:dbgrptw.obj
 0002:00004320       ??_C@_1KK@MEFMPOLM@?$AAD?$AAe?$AAb?$AAu?$AAg?$AA?5?$AA?$CF?$AAs?$AA?$CB?$AA?6?$AA?6?$AAP?$AAr?$AAo?$AAg?$AAr?$AAa?$AAm?$AA?3?$AA?5?$AA?$CF?$AAs?$AA?$CF?$AAs?$AA?$CF?$AAs?$AA?$CF?$AAs?$AA?$CF?$AAs?$AA?$CF?$AAs@ 0046a320     LIBCMTD:dbgrptw.obj
 0002:000043cc       ??_C@_1BE@CGCJKGHI@?$AA?6?$AAM?$AAo?$AAd?$AAu?$AAl?$AAe?$AA?3?$AA?5?$AA?$AA@ 0046a3cc     LIBCMTD:dbgrptw.obj
 0002:000043e0       ??_C@_1BA@LNHECFIM@?$AA?6?$AAF?$AAi?$AAl?$AAe?$AA?3?$AA?5?$AA?$AA@ 0046a3e0     LIBCMTD:dbgrptw.obj
 0002:000043f0       ??_C@_1BA@GLLGCPCK@?$AA?6?$AAL?$AAi?$AAn?$AAe?$AA?3?$AA?5?$AA?$AA@ 0046a3f0     LIBCMTD:dbgrptw.obj
 0002:00004400       ??_C@_15IABLJNFO@?$AA?6?$AA?6?$AA?$AA@ 0046a400     LIBCMTD:dbgrptw.obj
 0002:00004408       ??_C@_1BK@PEDCIPMA@?$AAE?$AAx?$AAp?$AAr?$AAe?$AAs?$AAs?$AAi?$AAo?$AAn?$AA?3?$AA?5?$AA?$AA@ 0046a408     LIBCMTD:dbgrptw.obj
 0002:00004424       ??_C@_11LOCGONAA@?$AA?$AA@ 0046a424     LIBCMTD:dbgrptw.obj
 0002:00004428       ??_C@_1OG@PMPPFHAF@?$AA?6?$AA?6?$AAF?$AAo?$AAr?$AA?5?$AAi?$AAn?$AAf?$AAo?$AAr?$AAm?$AAa?$AAt?$AAi?$AAo?$AAn?$AA?5?$AAo?$AAn?$AA?5?$AAh?$AAo?$AAw?$AA?5?$AAy?$AAo?$AAu?$AAr?$AA?5?$AAp?$AAr@ 0046a428     LIBCMTD:dbgrptw.obj
 0002:00004510       ??_C@_1NO@LECLLHOL@?$AAm?$AAe?$AAm?$AAc?$AAp?$AAy?$AA_?$AAs?$AA?$CI?$AAs?$AAz?$AAS?$AAh?$AAo?$AAr?$AAt?$AAP?$AAr?$AAo?$AAg?$AAN?$AAa?$AAm?$AAe?$AA?0?$AA?5?$AAs?$AAi?$AAz?$AAe?$AAo?$AAf@ 0046a510     LIBCMTD:dbgrptw.obj
 0002:000045f0       ??_C@_1CO@EAEJAADC@?$AA?$DM?$AAp?$AAr?$AAo?$AAg?$AAr?$AAa?$AAm?$AA?5?$AAn?$AAa?$AAm?$AAe?$AA?5?$AAu?$AAn?$AAk?$AAn?$AAo?$AAw?$AAn?$AA?$DO?$AA?$AA@ 0046a5f0     LIBCMTD:dbgrptw.obj
 0002:00004620       ??_C@_1GI@DEDNNLCI@?$AAw?$AAc?$AAs?$AAc?$AAp?$AAy?$AA_?$AAs?$AA?$CI?$AAs?$AAz?$AAE?$AAx?$AAe?$AAN?$AAa?$AAm?$AAe?$AA?0?$AA?5?$AA2?$AA6?$AA0?$AA?0?$AA?5?$AAL?$AA?$CC?$AA?$DM?$AAp?$AAr?$AAo?$AAg@ 0046a620     LIBCMTD:dbgrptw.obj
 0002:00004688       ??_C@_1CI@PGJIFDEK@?$AA_?$AA_?$AAc?$AAr?$AAt?$AAM?$AAe?$AAs?$AAs?$AAa?$AAg?$AAe?$AAW?$AAi?$AAn?$AAd?$AAo?$AAw?$AAW?$AA?$AA@ 0046a688     LIBCMTD:dbgrptw.obj
 0002:000046b8       ??_C@_0BO@GNIAFIKK@Unknown?5Runtime?5Check?5Error?6?$AN?$AA@ 0046a6b8     LIBCMTD:_error_.obj
 0002:000046d8       ??_C@_0CM@NGINOKPC@Stack?5memory?5around?5_alloca?5was?5@ 0046a6d8     LIBCMTD:_error_.obj
 0002:00004704       ??_C@_0DG@HKJMLLLP@A?5local?5variable?5was?5used?5before@ 0046a704     LIBCMTD:_error_.obj
 0002:0000473c       ??_C@_0BN@FFOINMNJ@Stack?5memory?5was?5corrupted?6?$AN?$AA@ 0046a73c     LIBCMTD:_error_.obj
 0002:00004760       ??_C@_0BBN@GPMLNJCF@A?5cast?5to?5a?5smaller?5data?5type?5ha@ 0046a760     LIBCMTD:_error_.obj
 0002:00004880       ??_C@_0NN@NGPKDKPD@The?5value?5of?5ESP?5was?5not?5properl@ 0046a880     LIBCMTD:_error_.obj
 0002:000049fc       ??_C@_0CA@IODNCDPG@Run?9Time?5Check?5Failure?5?$CD?$CFd?5?9?5?$CFs?$AA@ 0046a9fc     LIBCMTD:_error_.obj
 0002:00004a1c       ??_C@_0BE@GNBOBNCK@Unknown?5Module?5Name?$AA@ 0046aa1c     LIBCMTD:_error_.obj
 0002:00004a30       ??_C@_0BB@PFFGGCJP@Unknown?5Filename?$AA@ 0046aa30     LIBCMTD:_error_.obj
 0002:00004a48       ??_C@_1EA@NFKNIFJP@?$AAR?$AAu?$AAn?$AA?9?$AAT?$AAi?$AAm?$AAe?$AA?5?$AAC?$AAh?$AAe?$AAc?$AAk?$AA?5?$AAF?$AAa?$AAi?$AAl?$AAu?$AAr?$AAe?$AA?5?$AA?$CD?$AA?$CF?$AAd?$AA?5?$AA?9?$AA?5?$AA?$CF?$AAs?$AA?$AA@ 0046aa48     LIBCMTD:_error_.obj
 0002:00004a88       ??_C@_1GM@OLMCBDMB@?$AAR?$AAu?$AAn?$AAt?$AAi?$AAm?$AAe?$AA?5?$AAC?$AAh?$AAe?$AAc?$AAk?$AA?5?$AAE?$AAr?$AAr?$AAo?$AAr?$AA?4?$AA?6?$AA?$AN?$AA?5?$AAU?$AAn?$AAa?$AAb?$AAl?$AAe?$AA?5?$AAt?$AAo@ 0046aa88     LIBCMTD:_error_.obj
 0002:00004af4       ??_C@_0CG@IAFNJNEE@Stack?5corrupted?5near?5unknown?5var@ 0046aaf4     LIBCMTD:_error_.obj
 0002:00004b20       ??_C@_0EJ@LJKNEOLN@Stack?5area?5around?5_alloca?5memory@ 0046ab20     LIBCMTD:_error_.obj
 0002:00004b6c       ??_C@_08KJEDNCKC@?$CFs?$CFs?$CFs?$CFs?$AA@ 0046ab6c     LIBCMTD:_error_.obj
 0002:00004b78       ??_C@_02LLMPMKNF@?$DO?5?$AA@ 0046ab78     LIBCMTD:_error_.obj
 0002:00004b7c       ??_C@_01EEMJAFIK@?6?$AA@   0046ab7c     LIBCMTD:_error_.obj
 0002:00004b80       ??_C@_0BC@KIBAILCI@?$CFs?$CFs?$CFp?$CFs?$CFld?$CFs?$CFd?$CFs?$AA@ 0046ab80     LIBCMTD:_error_.obj
 0002:00004b98       ??_C@_0EI@CLEPFNGI@Stack?5area?5around?5_alloca?5memory@ 0046ab98     LIBCMTD:_error_.obj
 0002:00004be0       ??_C@_0N@MHFFIMFG@?6Address?3?50x?$AA@ 0046abe0     LIBCMTD:_error_.obj
 0002:00004bf0       ??_C@_07DFDJCKFN@?6Size?3?5?$AA@ 0046abf0     LIBCMTD:_error_.obj
 0002:00004bf8       ??_C@_0CK@DKGBICFE@?6Allocation?5number?5within?5this?5f@ 0046abf8     LIBCMTD:_error_.obj
 0002:00004c24       ??_C@_08OMAHNMHJ@?6Data?3?5?$DM?$AA@ 0046ac24     LIBCMTD:_error_.obj
 0002:00004c30       ??_C@_09FOPFMPEJ@wsprintfA?$AA@ 0046ac30     LIBCMTD:_error_.obj
 0002:00004c3c       ??_C@_1BG@OILDLIOJ@?$AAu?$AAs?$AAe?$AAr?$AA3?$AA2?$AA?4?$AAd?$AAl?$AAl?$AA?$AA@ 0046ac3c     LIBCMTD:_error_.obj
 0002:00004c54       ??_C@_05MKKEDADM@?$CF?42X?5?$AA@ 0046ac54     LIBCMTD:_error_.obj
 0002:00004c5c       ??_C@_0DE@OHJBPMBP@A?5variable?5is?5being?5used?5without@ 0046ac5c     LIBCMTD:_error_.obj
 0002:00004c90       ??_C@_0BP@OGBCLIBO@Stack?5around?5_alloca?5corrupted?$AA@ 0046ac90     LIBCMTD:_userapi_.obj
 0002:00004cb0       ??_C@_0CK@CNLNOEPB@Local?5variable?5used?5before?5initi@ 0046acb0     LIBCMTD:_userapi_.obj
 0002:00004cdc       ??_C@_0BI@CIGMDCBH@Stack?5memory?5corruption?$AA@ 0046acdc     LIBCMTD:_userapi_.obj
 0002:00004cf4       ??_C@_0CK@FEGOIOPB@Cast?5to?5smaller?5type?5causing?5los@ 0046acf4     LIBCMTD:_userapi_.obj
 0002:00004d20       ??_C@_0BJ@HEGAHDFO@Stack?5pointer?5corruption?$AA@ 0046ad20     LIBCMTD:_userapi_.obj
 0002:00004d50       ??_C@_0DP@CBBAPGOP@f?3?2dd?2vctools?2crt_bld?2self_x86?2c@ 0046ad50     LIBCMTD:chkesp.obj
 0002:00004d8f       ??_C@_00CNPNBAHC@?$AA@     0046ad8f     LIBCMTD:chkesp.obj
 0002:00004d90       ??_C@_0NM@DNEDKLDF@The?5value?5of?5ESP?5was?5not?5properl@ 0046ad90     LIBCMTD:chkesp.obj
 0002:00004e70       ??_C@_1HO@MLMGPAFH@?$AA?$CI?$AA?$CC?$AAi?$AAn?$AAc?$AAo?$AAn?$AAs?$AAi?$AAs?$AAt?$AAe?$AAn?$AAt?$AA?5?$AAI?$AAO?$AAB?$AA?5?$AAf?$AAi?$AAe?$AAl?$AAd?$AAs?$AA?$CC?$AA?0?$AA?5?$AAs?$AAt?$AAr?$AAe@ 0046ae70     LIBCMTD:_flsbuf.obj
 0002:00004ef0       ??_C@_1GC@GNCCMPNN@?$AAf?$AA?3?$AA?2?$AAd?$AAd?$AA?2?$AAv?$AAc?$AAt?$AAo?$AAo?$AAl?$AAs?$AA?2?$AAc?$AAr?$AAt?$AA_?$AAb?$AAl?$AAd?$AA?2?$AAs?$AAe?$AAl?$AAf?$AA_?$AAx?$AA8?$AA6?$AA?2?$AAc@ 0046aef0     LIBCMTD:_flsbuf.obj
 0002:00004f54       ??_C@_1BI@MFCLPIBM@?$AAs?$AAt?$AAr?$AA?5?$AA?$CB?$AA?$DN?$AA?5?$AAN?$AAU?$AAL?$AAL?$AA?$AA@ 0046af54     LIBCMTD:_flsbuf.obj
 0002:00004f6c       ??_C@_1BG@KCMPBBDK@?$AA_?$AAg?$AAe?$AAt?$AA_?$AAe?$AAr?$AAr?$AAn?$AAo?$AA?$AA@ 0046af6c     LIBCMTD:dosmap.obj
 0002:00004f88       ??_C@_1GA@MFGIMPNL@?$AAf?$AA?3?$AA?2?$AAd?$AAd?$AA?2?$AAv?$AAc?$AAt?$AAo?$AAo?$AAl?$AAs?$AA?2?$AAc?$AAr?$AAt?$AA_?$AAb?$AAl?$AAd?$AA?2?$AAs?$AAe?$AAl?$AAf?$AA_?$AAx?$AA8?$AA6?$AA?2?$AAc@ 0046af88     LIBCMTD:dosmap.obj
 0002:00004fe8       ??_C@_1BO@LKEBEKJP@?$AAp?$AAV?$AAa?$AAl?$AAu?$AAe?$AA?5?$AA?$CB?$AA?$DN?$AA?5?$AAN?$AAU?$AAL?$AAL?$AA?$AA@ 0046afe8     LIBCMTD:dosmap.obj
 0002:00005008       ??_C@_1BM@INIPHHDD@?$AA_?$AAg?$AAe?$AAt?$AA_?$AAd?$AAo?$AAs?$AAe?$AAr?$AAr?$AAn?$AAo?$AA?$AA@ 0046b008     LIBCMTD:dosmap.obj
 0002:00005024       ??_C@_1O@CEDCILHN@?$AA?$CI?$AAn?$AAu?$AAl?$AAl?$AA?$CJ?$AA?$AA@ 0046b024     LIBCMTD:output.obj
 0002:00005034       ??_C@_06OJHGLDPL@?$CInull?$CJ?$AA@ 0046b034     LIBCMTD:output.obj
 0002:00005040       ___lookuptable             0046b040     LIBCMTD:output.obj
 0002:0000509c       ??_C@_0DA@NFBEBPEE@f?3?2dd?2vctools?2crt_bld?2self_x86?2c@ 0046b09c     LIBCMTD:output.obj
 0002:000050d0       ??_C@_1EK@PNGFDECN@?$AA?$CI?$AA?$CC?$AA?8?$AAn?$AA?8?$AA?5?$AAf?$AAo?$AAr?$AAm?$AAa?$AAt?$AA?5?$AAs?$AAp?$AAe?$AAc?$AAi?$AAf?$AAi?$AAe?$AAr?$AA?5?$AAd?$AAi?$AAs?$AAa?$AAb?$AAl?$AAe?$AAd?$AA?$CC@ 0046b0d0     LIBCMTD:output.obj
 0002:0000511c       ??_C@_1CC@IFFHEMNF@?$AA?$CI?$AAc?$AAh?$AA?5?$AA?$CB?$AA?$DN?$AA?5?$AA_?$AAT?$AA?$CI?$AA?8?$AA?2?$AA0?$AA?8?$AA?$CJ?$AA?$CJ?$AA?$AA@ 0046b11c     LIBCMTD:output.obj
 0002:00005140       ??_C@_1BE@IONLIDNC@?$AA_?$AAo?$AAu?$AAt?$AAp?$AAu?$AAt?$AA_?$AAl?$AA?$AA@ 0046b140     LIBCMTD:output.obj
 0002:00005158       ??_C@_1GA@HHFOFBLN@?$AAf?$AA?3?$AA?2?$AAd?$AAd?$AA?2?$AAv?$AAc?$AAt?$AAo?$AAo?$AAl?$AAs?$AA?2?$AAc?$AAr?$AAt?$AA_?$AAb?$AAl?$AAd?$AA?2?$AAs?$AAe?$AAl?$AAf?$AA_?$AAx?$AA8?$AA6?$AA?2?$AAc@ 0046b158     LIBCMTD:output.obj
 0002:000051b8       ??_C@_06PJIGMIJB@Client?$AA@ 0046b1b8     LIBCMTD:dbgheap.obj
 0002:000051c0       ??_C@_06KMEJCCGM@Ignore?$AA@ 0046b1c0     LIBCMTD:dbgheap.obj
 0002:000051c8       ??_C@_03OGPFLFLO@CRT?$AA@  0046b1c8     LIBCMTD:dbgheap.obj
 0002:000051cc       ??_C@_06EFAGIKOH@Normal?$AA@ 0046b1cc     LIBCMTD:dbgheap.obj
 0002:000051d4       ??_C@_04HJMOFLDF@Free?$AA@ 0046b1d4     LIBCMTD:dbgheap.obj
 0002:000051f0       ??_C@_0DC@JEMAGEKG@Error?3?5memory?5allocation?3?5bad?5me@ 0046b1f0     LIBCMTD:dbgheap.obj
 0002:00005224       ??_C@_0CF@BICKFLAF@Invalid?5allocation?5size?3?5?$CFIu?5byt@ 0046b224     LIBCMTD:dbgheap.obj
 0002:0000524c       ??_C@_02DKCKIIND@?$CFs?$AA@ 0046b24c     LIBCMTD:dbgheap.obj
 0002:00005250       ??_C@_0CB@CCLOLAHO@Client?5hook?5allocation?5failure?4?6@ 0046b250     LIBCMTD:dbgheap.obj
 0002:00005274       ??_C@_0DF@BBEGIFEK@Client?5hook?5allocation?5failure?5a@ 0046b274     LIBCMTD:dbgheap.obj
 0002:000052b0       ??_C@_1GC@DNJKKEAA@?$AAf?$AA?3?$AA?2?$AAd?$AAd?$AA?2?$AAv?$AAc?$AAt?$AAo?$AAo?$AAl?$AAs?$AA?2?$AAc?$AAr?$AAt?$AA_?$AAb?$AAl?$AAd?$AA?2?$AAs?$AAe?$AAl?$AAf?$AA_?$AAx?$AA8?$AA6?$AA?2?$AAc@ 0046b2b0     LIBCMTD:dbgheap.obj
 0002:00005314       ??_C@_1CE@LJFEPPMP@?$AA_?$AAC?$AAr?$AAt?$AAC?$AAh?$AAe?$AAc?$AAk?$AAM?$AAe?$AAm?$AAo?$AAr?$AAy?$AA?$CI?$AA?$CJ?$AA?$AA@ 0046b314     LIBCMTD:dbgheap.obj
 0002:00005338       ??_C@_1DE@KOOKLFBB@?$AA_?$AAp?$AAF?$AAi?$AAr?$AAs?$AAt?$AAB?$AAl?$AAo?$AAc?$AAk?$AA?5?$AA?$DN?$AA?$DN?$AA?5?$AAp?$AAO?$AAl?$AAd?$AAB?$AAl?$AAo?$AAc?$AAk?$AA?$AA@ 0046b338     LIBCMTD:dbgheap.obj
 0002:0000536c       ??_C@_1DC@GEFKNOOL@?$AA_?$AAp?$AAL?$AAa?$AAs?$AAt?$AAB?$AAl?$AAo?$AAc?$AAk?$AA?5?$AA?$DN?$AA?$DN?$AA?5?$AAp?$AAO?$AAl?$AAd?$AAB?$AAl?$AAo?$AAc?$AAk?$AA?$AA@ 0046b36c     LIBCMTD:dbgheap.obj
 0002:000053a0       ??_C@_1GE@PCKLOLAO@?$AAf?$AAR?$AAe?$AAa?$AAl?$AAl?$AAo?$AAc?$AA?5?$AA?$HM?$AA?$HM?$AA?5?$AA?$CI?$AA?$CB?$AAf?$AAR?$AAe?$AAa?$AAl?$AAl?$AAo?$AAc?$AA?5?$AA?$CG?$AA?$CG?$AA?5?$AAp?$AAN?$AAe?$AAw?$AAB?$AAl@ 0046b3a0     LIBCMTD:dbgheap.obj
 0002:00005404       ??_C@_0DA@HFBKENN@Error?3?5possible?5heap?5corruption?5@ 0046b404     LIBCMTD:dbgheap.obj
 0002:00005438       ??_C@_1IK@DCPKDGNH@?$AAp?$AAO?$AAl?$AAd?$AAB?$AAl?$AAo?$AAc?$AAk?$AA?9?$AA?$DO?$AAn?$AAL?$AAi?$AAn?$AAe?$AA?5?$AA?$DN?$AA?$DN?$AA?5?$AAI?$AAG?$AAN?$AAO?$AAR?$AAE?$AA_?$AAL?$AAI?$AAN?$AAE?$AA?5@ 0046b438     LIBCMTD:dbgheap.obj
 0002:000054c8       ??_C@_1EE@GFOPCECE@?$AA_?$AAC?$AAr?$AAt?$AAI?$AAs?$AAV?$AAa?$AAl?$AAi?$AAd?$AAH?$AAe?$AAa?$AAp?$AAP?$AAo?$AAi?$AAn?$AAt?$AAe?$AAr?$AA?$CI?$AAp?$AAU?$AAs?$AAe?$AAr?$AAD?$AAa?$AAt?$AAa@ 0046b4c8     LIBCMTD:dbgheap.obj
 0002:00005510       ??_C@_0EM@LGFLMAGJ@The?5Block?5at?50x?$CFp?5was?5allocated?5@ 0046b510     LIBCMTD:dbgheap.obj
 0002:00005560       ??_C@_0FA@EFEIGJKG@Error?3?5memory?5allocation?3?5bad?5me@ 0046b560     LIBCMTD:dbgheap.obj
 0002:000055b0       ??_C@_0ED@GPCPBAGP@Invalid?5allocation?5size?3?5?$CFIu?5byt@ 0046b5b0     LIBCMTD:dbgheap.obj
 0002:000055f4       ??_C@_0CE@DOFMDOL@Client?5hook?5re?9allocation?5failur@ 0046b5f4     LIBCMTD:dbgheap.obj
 0002:00005618       ??_C@_0DI@KKJPDPGM@Client?5hook?5re?9allocation?5failur@ 0046b618     LIBCMTD:dbgheap.obj
 0002:00005650       ??_C@_1BI@HAPNGHDP@?$AA_?$AAe?$AAx?$AAp?$AAa?$AAn?$AAd?$AA_?$AAd?$AAb?$AAg?$AA?$AA@ 0046b650     LIBCMTD:dbgheap.obj
 0002:00005668       ??_C@_1CE@CJACEFBA@?$AAp?$AAU?$AAs?$AAe?$AAr?$AAD?$AAa?$AAt?$AAa?$AA?5?$AA?$CB?$AA?$DN?$AA?5?$AAN?$AAU?$AAL?$AAL?$AA?$AA@ 0046b668     LIBCMTD:dbgheap.obj
 0002:0000568c       ??_C@_1CM@MMAADDMD@?$AA_?$AAp?$AAF?$AAi?$AAr?$AAs?$AAt?$AAB?$AAl?$AAo?$AAc?$AAk?$AA?5?$AA?$DN?$AA?$DN?$AA?5?$AAp?$AAH?$AAe?$AAa?$AAd?$AA?$AA@ 0046b68c     LIBCMTD:dbgheap.obj
 0002:000056b8       ??_C@_1CK@DMAGEMBG@?$AA_?$AAp?$AAL?$AAa?$AAs?$AAt?$AAB?$AAl?$AAo?$AAc?$AAk?$AA?5?$AA?$DN?$AA?$DN?$AA?5?$AAp?$AAH?$AAe?$AAa?$AAd?$AA?$AA@ 0046b6b8     LIBCMTD:dbgheap.obj
 0002:000056e4       ??_C@_1DM@ODCJIDCP@?$AAp?$AAH?$AAe?$AAa?$AAd?$AA?9?$AA?$DO?$AAn?$AAB?$AAl?$AAo?$AAc?$AAk?$AAU?$AAs?$AAe?$AA?5?$AA?$DN?$AA?$DN?$AA?5?$AAn?$AAB?$AAl?$AAo?$AAc?$AAk?$AAU?$AAs?$AAe?$AA?$AA@ 0046b6e4     LIBCMTD:dbgheap.obj
 0002:00005720       ??_C@_1HK@HPCBMDFG@?$AAp?$AAH?$AAe?$AAa?$AAd?$AA?9?$AA?$DO?$AAn?$AAL?$AAi?$AAn?$AAe?$AA?5?$AA?$DN?$AA?$DN?$AA?5?$AAI?$AAG?$AAN?$AAO?$AAR?$AAE?$AA_?$AAL?$AAI?$AAN?$AAE?$AA?5?$AA?$CG?$AA?$CG?$AA?5?$AAp@ 0046b720     LIBCMTD:dbgheap.obj
 0002:000057a0       ??_C@_0IG@LEMBDCJK@HEAP?5CORRUPTION?5DETECTED?3?5after?5@ 0046b7a0     LIBCMTD:dbgheap.obj
 0002:00005828       ??_C@_0KE@MBMNHHHN@HEAP?5CORRUPTION?5DETECTED?3?5after?5@ 0046b828     LIBCMTD:dbgheap.obj
 0002:000058d0       ??_C@_0IK@PJCGLBOB@HEAP?5CORRUPTION?5DETECTED?3?5before@ 0046b8d0     LIBCMTD:dbgheap.obj
 0002:00005960       ??_C@_0KI@JGFOHMEB@HEAP?5CORRUPTION?5DETECTED?3?5before@ 0046b960     LIBCMTD:dbgheap.obj
 0002:00005a08       ??_C@_0BL@KEIPLFAC@Client?5hook?5free?5failure?4?6?$AA@ 0046ba08     LIBCMTD:dbgheap.obj
 0002:00005a28       ??_C@_0EJ@HEIBCIMJ@The?5Block?5at?50x?$CFp?5was?5allocated?5@ 0046ba28     LIBCMTD:dbgheap.obj
 0002:00005a74       ??_C@_1BG@MBKOGDLD@?$AA_?$AAm?$AAs?$AAi?$AAz?$AAe?$AA_?$AAd?$AAb?$AAg?$AA?$AA@ 0046ba74     LIBCMTD:dbgheap.obj
 0002:00005a8c       ??_C@_0CI@JMLBEDHJ@?$CFhs?5located?5at?50x?$CFp?5is?5?$CFIu?5bytes@ 0046ba8c     LIBCMTD:dbgheap.obj
 0002:00005ab8       ??_C@_0EG@DGJMPDBH@?$CFhs?5located?5at?50x?$CFp?5is?5?$CFIu?5bytes@ 0046bab8     LIBCMTD:dbgheap.obj
 0002:00005b00       ??_C@_0IC@BBJIOOJH@HEAP?5CORRUPTION?5DETECTED?3?5on?5top@ 0046bb00     LIBCMTD:dbgheap.obj
 0002:00005b88       ??_C@_0KA@IHNJJKPL@HEAP?5CORRUPTION?5DETECTED?3?5on?5top@ 0046bb88     LIBCMTD:dbgheap.obj
 0002:00005c28       ??_C@_07OHKEFPKJ@DAMAGED?$AA@ 0046bc28     LIBCMTD:dbgheap.obj
 0002:00005c30       ??_C@_0CL@HNNNMKMJ@_heapchk?5fails?5with?5unknown?5retu@ 0046bc30     LIBCMTD:dbgheap.obj
 0002:00005c5c       ??_C@_0CC@MFFCHFHO@_heapchk?5fails?5with?5_HEAPBADPTR?4@ 0046bc5c     LIBCMTD:dbgheap.obj
 0002:00005c80       ??_C@_0CC@MJGLGBDG@_heapchk?5fails?5with?5_HEAPBADEND?4@ 0046bc80     LIBCMTD:dbgheap.obj
 0002:00005ca4       ??_C@_0CD@CPKEAPBD@_heapchk?5fails?5with?5_HEAPBADNODE@ 0046bca4     LIBCMTD:dbgheap.obj
 0002:00005cc8       ??_C@_0CE@MKKHMBMK@_heapchk?5fails?5with?5_HEAPBADBEGI@ 0046bcc8     LIBCMTD:dbgheap.obj
 0002:00005cec       ??_C@_1BO@GJFDNMNF@?$AA_?$AAC?$AAr?$AAt?$AAS?$AAe?$AAt?$AAD?$AAb?$AAg?$AAF?$AAl?$AAa?$AAg?$AA?$AA@ 0046bcec     LIBCMTD:dbgheap.obj
 0002:00005d10       ??_C@_1BHO@NNANJNF@?$AA?$CI?$AAf?$AAN?$AAe?$AAw?$AAB?$AAi?$AAt?$AAs?$AA?$DN?$AA?$DN?$AA_?$AAC?$AAR?$AAT?$AAD?$AAB?$AAG?$AA_?$AAR?$AAE?$AAP?$AAO?$AAR?$AAT?$AA_?$AAF?$AAL?$AAA?$AAG?$AA?$CJ?$AA?5@ 0046bd10     LIBCMTD:dbgheap.obj
 0002:00005e90       ??_C@_1DE@GJCKCKEC@?$AA_?$AAC?$AAr?$AAt?$AAD?$AAo?$AAF?$AAo?$AAr?$AAA?$AAl?$AAl?$AAC?$AAl?$AAi?$AAe?$AAn?$AAt?$AAO?$AAb?$AAj?$AAe?$AAc?$AAt?$AAs?$AA?$AA@ 0046be90     LIBCMTD:dbgheap.obj
 0002:00005ec4       ??_C@_1BI@CJGCEEDL@?$AAp?$AAf?$AAn?$AA?5?$AA?$CB?$AA?$DN?$AA?5?$AAN?$AAU?$AAL?$AAL?$AA?$AA@ 0046bec4     LIBCMTD:dbgheap.obj
 0002:00005edc       ??_C@_0CB@EAAIGELO@Bad?5memory?5block?5found?5at?50x?$CFp?4?6@ 0046bedc     LIBCMTD:dbgheap.obj
 0002:00005f00       ??_C@_0DP@LEFMFBOD@Bad?5memory?5block?5found?5at?50x?$CFp?4?6@ 0046bf00     LIBCMTD:dbgheap.obj
 0002:00005f40       ??_C@_1CE@NJJKELF@?$AA_?$AAC?$AAr?$AAt?$AAM?$AAe?$AAm?$AAC?$AAh?$AAe?$AAc?$AAk?$AAp?$AAo?$AAi?$AAn?$AAt?$AA?$AA@ 0046bf40     LIBCMTD:dbgheap.obj
 0002:00005f64       ??_C@_1BM@MIMANDHC@?$AAs?$AAt?$AAa?$AAt?$AAe?$AA?5?$AA?$CB?$AA?$DN?$AA?5?$AAN?$AAU?$AAL?$AAL?$AA?$AA@ 0046bf64     LIBCMTD:dbgheap.obj
 0002:00005f80       ??_C@_1CC@DFPEDFBP@?$AAn?$AAe?$AAw?$AAS?$AAt?$AAa?$AAt?$AAe?$AA?5?$AA?$CB?$AA?$DN?$AA?5?$AAN?$AAU?$AAL?$AAL?$AA?$AA@ 0046bf80     LIBCMTD:dbgheap.obj
 0002:00005fa4       ??_C@_1CC@DHPFEMMN@?$AAo?$AAl?$AAd?$AAS?$AAt?$AAa?$AAt?$AAe?$AA?5?$AA?$CB?$AA?$DN?$AA?5?$AAN?$AAU?$AAL?$AAL?$AA?$AA@ 0046bfa4     LIBCMTD:dbgheap.obj
 0002:00005fc8       ??_C@_1CE@PDIENACM@?$AA_?$AAC?$AAr?$AAt?$AAM?$AAe?$AAm?$AAD?$AAi?$AAf?$AAf?$AAe?$AAr?$AAe?$AAn?$AAc?$AAe?$AA?$AA@ 0046bfc8     LIBCMTD:dbgheap.obj
 0002:00005fec       ??_C@_0BH@GFGKJDCO@Object?5dump?5complete?4?6?$AA@ 0046bfec     LIBCMTD:dbgheap.obj
 0002:00006004       ??_C@_0DA@MDLBNIBM@crt?5block?5at?50x?$CFp?0?5subtype?5?$CFx?0?5?$CF@ 0046c004     LIBCMTD:dbgheap.obj
 0002:00006034       ??_C@_0CH@FAGDDGPN@normal?5block?5at?50x?$CFp?0?5?$CFIu?5bytes?5@ 0046c034     LIBCMTD:dbgheap.obj
 0002:0000605c       ??_C@_0DD@GHNAAKBB@client?5block?5at?50x?$CFp?0?5subtype?5?$CFx@ 0046c05c     LIBCMTD:dbgheap.obj
 0002:00006090       ??_C@_06PKLGBFGM@?$HL?$CFld?$HN?5?$AA@ 0046c090     LIBCMTD:dbgheap.obj
 0002:00006098       ??_C@_0L@JMEFFCCJ@?$CFhs?$CI?$CFd?$CJ?5?3?5?$AA@ 0046c098     LIBCMTD:dbgheap.obj
 0002:000060a4       ??_C@_0BE@OIEFNFL@?$CDFile?5Error?$CD?$CI?$CFd?$CJ?5?3?5?$AA@ 0046c0a4     LIBCMTD:dbgheap.obj
 0002:000060b8       ??_C@_0BE@KCIPKCIA@Dumping?5objects?5?9?$DO?6?$AA@ 0046c0b8     LIBCMTD:dbgheap.obj
 0002:000060cc       ??_C@_0BA@HJBKCELP@?5Data?3?5?$DM?$CFs?$DO?5?$CFs?6?$AA@ 0046c0cc     LIBCMTD:dbgheap.obj
 0002:000060dc       ??_C@_1CG@LPFIACGM@?$AA_?$AAp?$AAr?$AAi?$AAn?$AAt?$AAM?$AAe?$AAm?$AAB?$AAl?$AAo?$AAc?$AAk?$AAD?$AAa?$AAt?$AAa?$AA?$AA@ 0046c0dc     LIBCMTD:dbgheap.obj
 0002:00006104       ??_C@_0BI@JBFPOEJA@Detected?5memory?5leaks?$CB?6?$AA@ 0046c104     LIBCMTD:dbgheap.obj
 0002:0000611c       ??_C@_0BP@DEDHGGGI@Total?5allocations?3?5?$CFId?5bytes?4?6?$AA@ 0046c11c     LIBCMTD:dbgheap.obj
 0002:0000613c       ??_C@_0CB@BLHDAFNE@Largest?5number?5used?3?5?$CFId?5bytes?4?6@ 0046c13c     LIBCMTD:dbgheap.obj
 0002:00006160       ??_C@_0BO@DACNIABB@?$CFId?5bytes?5in?5?$CFId?5?$CFhs?5Blocks?4?6?$AA@ 0046c160     LIBCMTD:dbgheap.obj
 0002:00006180       ??_C@_1CM@MPNIBKGK@?$AA_?$AAC?$AAr?$AAt?$AAM?$AAe?$AAm?$AAD?$AAu?$AAm?$AAp?$AAS?$AAt?$AAa?$AAt?$AAi?$AAs?$AAt?$AAi?$AAc?$AAs?$AA?$AA@ 0046c180     LIBCMTD:dbgheap.obj
 0002:000061ac       ??_C@_1DK@LFLKFPDA@?$AAo?$AAf?$AAf?$AAs?$AAe?$AAt?$AA?5?$AA?$DN?$AA?$DN?$AA?5?$AA0?$AA?5?$AA?$HM?$AA?$HM?$AA?5?$AAo?$AAf?$AAf?$AAs?$AAe?$AAt?$AA?5?$AA?$DM?$AA?5?$AAs?$AAi?$AAz?$AAe?$AA?$AA@ 0046c1ac     LIBCMTD:dbgheap.obj
 0002:000061e8       ??_C@_1DG@DONCJBBJ@?$AA_?$AAa?$AAl?$AAi?$AAg?$AAn?$AAe?$AAd?$AA_?$AAo?$AAf?$AAf?$AAs?$AAe?$AAt?$AA_?$AAm?$AAa?$AAl?$AAl?$AAo?$AAc?$AA_?$AAd?$AAb?$AAg?$AA?$AA@ 0046c1e8     LIBCMTD:dbgheap.obj
 0002:00006220       ??_C@_1CE@NPMGPNNP@?$AAI?$AAS?$AA_?$AA2?$AA_?$AAP?$AAO?$AAW?$AA_?$AAN?$AA?$CI?$AAa?$AAl?$AAi?$AAg?$AAn?$AA?$CJ?$AA?$AA@ 0046c220     LIBCMTD:dbgheap.obj
 0002:00006244       ??_C@_1DI@NINIKFFK@?$AA_?$AAa?$AAl?$AAi?$AAg?$AAn?$AAe?$AAd?$AA_?$AAo?$AAf?$AAf?$AAs?$AAe?$AAt?$AA_?$AAr?$AAe?$AAa?$AAl?$AAl?$AAo?$AAc?$AA_?$AAd?$AAb?$AAg?$AA?$AA@ 0046c244     LIBCMTD:dbgheap.obj
 0002:0000627c       ??_C@_0DL@PGHMMKNE@Damage?5before?50x?$CFp?5which?5was?5all@ 0046c27c     LIBCMTD:dbgheap.obj
 0002:000062b8       ??_C@_0EI@NDNJMAJK@The?5block?5at?50x?$CFp?5was?5not?5alloca@ 0046c2b8     LIBCMTD:dbgheap.obj
 0002:00006300       ??_C@_0EF@PGELACII@The?5block?5at?50x?$CFp?5was?5not?5alloca@ 0046c300     LIBCMTD:dbgheap.obj
 0002:00006348       ??_C@_1CG@CEGMHIMN@?$AA_?$AAa?$AAl?$AAi?$AAg?$AAn?$AAe?$AAd?$AA_?$AAm?$AAs?$AAi?$AAz?$AAe?$AA_?$AAd?$AAb?$AAg?$AA?$AA@ 0046c348     LIBCMTD:dbgheap.obj
 0002:00006370       ??_C@_1CC@MOBIKHH@?$AAm?$AAe?$AAm?$AAb?$AAl?$AAo?$AAc?$AAk?$AA?5?$AA?$CB?$AA?$DN?$AA?5?$AAN?$AAU?$AAL?$AAL?$AA?$AA@ 0046c370     LIBCMTD:dbgheap.obj
 0002:00006398       ___lookuptable_s           0046c398     LIBCMTD:outputs.obj
 0002:000063f8       ??_C@_1FK@LNCFKALM@?$AA?$CI?$AA?$CI?$AAs?$AAt?$AAa?$AAt?$AAe?$AA?5?$AA?$DN?$AA?$DN?$AA?5?$AAS?$AAT?$AA_?$AAN?$AAO?$AAR?$AAM?$AAA?$AAL?$AA?$CJ?$AA?5?$AA?$HM?$AA?$HM?$AA?5?$AA?$CI?$AAs?$AAt?$AAa?$AAt?$AAe?$AA?5@ 0046c3f8     LIBCMTD:outputs.obj
 0002:00006458       ??_C@_1EE@DMAIGNBG@?$AA?$CI?$AA?$CC?$AAI?$AAn?$AAc?$AAo?$AAr?$AAr?$AAe?$AAc?$AAt?$AA?5?$AAf?$AAo?$AAr?$AAm?$AAa?$AAt?$AA?5?$AAs?$AAp?$AAe?$AAc?$AAi?$AAf?$AAi?$AAe?$AAr?$AA?$CC?$AA?0?$AA?5?$AA0@ 0046c458     LIBCMTD:outputs.obj
 0002:0000649c       ??_C@_1BI@COFBLHCG@?$AA_?$AAo?$AAu?$AAt?$AAp?$AAu?$AAt?$AA_?$AAs?$AA_?$AAl?$AA?$AA@ 0046c49c     LIBCMTD:outputs.obj
 0002:000064b8       ??_C@_1FK@BCPANIEK@?$AA?$CI?$AA?$CC?$AAM?$AAi?$AAs?$AAs?$AAi?$AAn?$AAg?$AA?5?$AAp?$AAo?$AAs?$AAi?$AAt?$AAi?$AAo?$AAn?$AA?5?$AAi?$AAn?$AA?5?$AAt?$AAh?$AAe?$AA?5?$AAf?$AAo?$AAr?$AAm?$AAa?$AAt@ 0046c4b8     LIBCMTD:outputp.obj
 0002:00006518       ??_C@_1JC@OACKELNN@?$AA_?$AAt?$AAv?$AAa?$AAl?$AAi?$AAd?$AAa?$AAt?$AAe?$AA_?$AAp?$AAa?$AAr?$AAa?$AAm?$AA_?$AAr?$AAe?$AAu?$AAs?$AAe?$AA?$CI?$AA?$CG?$AAp?$AAo?$AAs?$AA_?$AAv?$AAa?$AAl?$AAu@ 0046c518     LIBCMTD:outputp.obj
 0002:000065b0       ??_C@_1IK@NBGDDCBN@?$AA_?$AAt?$AAv?$AAa?$AAl?$AAi?$AAd?$AAa?$AAt?$AAe?$AA_?$AAp?$AAa?$AAr?$AAa?$AAm?$AA_?$AAr?$AAe?$AAu?$AAs?$AAe?$AA?$CI?$AA?$CG?$AAp?$AAo?$AAs?$AA_?$AAv?$AAa?$AAl?$AAu@ 0046c5b0     LIBCMTD:outputp.obj
 0002:0000663c       ??_C@_1DG@GOHGNKHE@?$AAp?$AAa?$AAs?$AAs?$AA?5?$AA?$DN?$AA?$DN?$AA?5?$AAF?$AAO?$AAR?$AAM?$AAA?$AAT?$AA_?$AAO?$AAU?$AAT?$AAP?$AAU?$AAT?$AA_?$AAP?$AAA?$AAS?$AAS?$AA?$AA@ 0046c63c     LIBCMTD:outputp.obj
 0002:00006678       ??_C@_1IM@DNGHAPLB@?$AA_?$AAt?$AAv?$AAa?$AAl?$AAi?$AAd?$AAa?$AAt?$AAe?$AA_?$AAp?$AAa?$AAr?$AAa?$AAm?$AA_?$AAr?$AAe?$AAu?$AAs?$AAe?$AA?$CI?$AA?$CG?$AAp?$AAo?$AAs?$AA_?$AAv?$AAa?$AAl?$AAu@ 0046c678     LIBCMTD:outputp.obj
 0002:00006708       ??_C@_1IG@HJIMKDHC@?$AA_?$AAt?$AAv?$AAa?$AAl?$AAi?$AAd?$AAa?$AAt?$AAe?$AA_?$AAp?$AAa?$AAr?$AAa?$AAm?$AA_?$AAr?$AAe?$AAu?$AAs?$AAe?$AA?$CI?$AA?$CG?$AAp?$AAo?$AAs?$AA_?$AAv?$AAa?$AAl?$AAu@ 0046c708     LIBCMTD:outputp.obj
 0002:00006790       ??_C@_1IG@FDCPLALG@?$AA_?$AAt?$AAv?$AAa?$AAl?$AAi?$AAd?$AAa?$AAt?$AAe?$AA_?$AAp?$AAa?$AAr?$AAa?$AAm?$AA_?$AAr?$AAe?$AAu?$AAs?$AAe?$AA?$CI?$AA?$CG?$AAp?$AAo?$AAs?$AA_?$AAv?$AAa?$AAl?$AAu@ 0046c790     LIBCMTD:outputp.obj
 0002:00006818       ??_C@_1IK@MHEDJAMK@?$AA_?$AAt?$AAv?$AAa?$AAl?$AAi?$AAd?$AAa?$AAt?$AAe?$AA_?$AAp?$AAa?$AAr?$AAa?$AAm?$AA_?$AAr?$AAe?$AAu?$AAs?$AAe?$AA?$CI?$AA?$CG?$AAp?$AAo?$AAs?$AA_?$AAv?$AAa?$AAl?$AAu@ 0046c818     LIBCMTD:outputp.obj
 0002:000068a8       ??_C@_1EM@BNPHBBIA@?$AA?$CI?$AA?$CI?$AAt?$AAy?$AAp?$AAe?$AA_?$AAp?$AAo?$AAs?$AA?$DO?$AA?$DN?$AA0?$AA?$CJ?$AA?5?$AA?$CG?$AA?$CG?$AA?5?$AA?$CI?$AAt?$AAy?$AAp?$AAe?$AA_?$AAp?$AAo?$AAs?$AA?$DM?$AA_?$AAA?$AAR?$AAG@ 0046c8a8     LIBCMTD:outputp.obj
 0002:000068f8       ??_C@_1IK@EIEPDKHJ@?$AA_?$AAt?$AAv?$AAa?$AAl?$AAi?$AAd?$AAa?$AAt?$AAe?$AA_?$AAp?$AAa?$AAr?$AAa?$AAm?$AA_?$AAr?$AAe?$AAu?$AAs?$AAe?$AA?$CI?$AA?$CG?$AAp?$AAo?$AAs?$AA_?$AAv?$AAa?$AAl?$AAu@ 0046c8f8     LIBCMTD:outputp.obj
 0002:00006988       ??_C@_1JG@JBJBOCFB@?$AA?$CI?$AA?$CI?$AAp?$AAr?$AAe?$AAc?$AAi?$AAs?$AA_?$AAp?$AAo?$AAs?$AA?5?$AA?$DO?$AA?$DN?$AA?5?$AA0?$AA?$CJ?$AA?5?$AA?$CG?$AA?$CG?$AA?5?$AA?$CI?$AA?$CK?$AAe?$AAn?$AAd?$AA_?$AAp?$AAo?$AAs?$AA?5@ 0046c988     LIBCMTD:outputp.obj
 0002:00006a20       ??_C@_1II@PIPIMLPF@?$AA_?$AAt?$AAv?$AAa?$AAl?$AAi?$AAd?$AAa?$AAt?$AAe?$AA_?$AAp?$AAa?$AAr?$AAa?$AAm?$AA_?$AAr?$AAe?$AAu?$AAs?$AAe?$AA?$CI?$AA?$CG?$AAp?$AAo?$AAs?$AA_?$AAv?$AAa?$AAl?$AAu@ 0046ca20     LIBCMTD:outputp.obj
 0002:00006aa8       ??_C@_1JE@NMBHOLFI@?$AA?$CI?$AA?$CI?$AAw?$AAi?$AAd?$AAt?$AAh?$AA_?$AAp?$AAo?$AAs?$AA?5?$AA?$DO?$AA?$DN?$AA?5?$AA0?$AA?$CJ?$AA?5?$AA?$CG?$AA?$CG?$AA?5?$AA?$CI?$AA?$CK?$AAe?$AAn?$AAd?$AA_?$AAp?$AAo?$AAs?$AA?5?$AA?$DN@ 0046caa8     LIBCMTD:outputp.obj
 0002:00006b40       ??_C@_1JC@PFJNKEIO@?$AA?$CI?$AA?$CI?$AAt?$AAy?$AAp?$AAe?$AA_?$AAp?$AAo?$AAs?$AA?5?$AA?$DO?$AA?$DN?$AA?5?$AA0?$AA?$CJ?$AA?5?$AA?$CG?$AA?$CG?$AA?5?$AA?$CI?$AA?$CK?$AAe?$AAn?$AAd?$AA_?$AAp?$AAo?$AAs?$AA?5?$AA?$DN?$AA?$DN@ 0046cb40     LIBCMTD:outputp.obj
 0002:00006bd4       ??_C@_1BI@KANOLAMF@?$AA_?$AAo?$AAu?$AAt?$AAp?$AAu?$AAt?$AA_?$AAp?$AA_?$AAl?$AA?$AA@ 0046cbd4     LIBCMTD:outputp.obj
 0002:00006bec       ??_C@_0CP@BNKDODJJ@f?3?2dd?2vctools?2crt_bld?2self_x86?2c@ 0046cbec     LIBCMTD:_file.obj
 0002:00006c20       ??_C@_1JE@ECKHFIFP@?$AA?$CI?$AA?$CC?$AAI?$AAn?$AAv?$AAa?$AAl?$AAi?$AAd?$AA?5?$AAf?$AAi?$AAl?$AAe?$AA?5?$AAd?$AAe?$AAs?$AAc?$AAr?$AAi?$AAp?$AAt?$AAo?$AAr?$AA?4?$AA?5?$AAF?$AAi?$AAl?$AAe?$AA?5@ 0046cc20     LIBCMTD:commit.obj
 0002:00006cb4       ??_C@_1DG@LNNHNFHJ@?$AA?$CI?$AA_?$AAo?$AAs?$AAf?$AAi?$AAl?$AAe?$AA?$CI?$AAf?$AAi?$AAl?$AAe?$AAd?$AAe?$AAs?$AA?$CJ?$AA?5?$AA?$CG?$AA?5?$AAF?$AAO?$AAP?$AAE?$AAN?$AA?$CJ?$AA?$AA@ 0046ccb4     LIBCMTD:commit.obj
 0002:00006cec       ??_C@_1BA@FLNMBBIM@?$AA_?$AAc?$AAo?$AAm?$AAm?$AAi?$AAt?$AA?$AA@ 0046ccec     LIBCMTD:commit.obj
 0002:00006d00       ??_C@_1GA@BOPCOCFN@?$AAf?$AA?3?$AA?2?$AAd?$AAd?$AA?2?$AAv?$AAc?$AAt?$AAo?$AAo?$AAl?$AAs?$AA?2?$AAc?$AAr?$AAt?$AA_?$AAb?$AAl?$AAd?$AA?2?$AAs?$AAe?$AAl?$AAf?$AA_?$AAx?$AA8?$AA6?$AA?2?$AAc@ 0046cd00     LIBCMTD:commit.obj
 0002:00006d60       ??_C@_1HC@KFLBHHBC@?$AA?$CI?$AAf?$AAi?$AAl?$AAe?$AAd?$AAe?$AAs?$AA?5?$AA?$DO?$AA?$DN?$AA?5?$AA0?$AA?5?$AA?$CG?$AA?$CG?$AA?5?$AA?$CI?$AAu?$AAn?$AAs?$AAi?$AAg?$AAn?$AAe?$AAd?$AA?$CJ?$AAf?$AAi?$AAl?$AAe?$AAd@ 0046cd60     LIBCMTD:commit.obj
 0002:00006dd4       ??_C@_1BA@JGHIEKKM@?$AA_?$AAf?$AAi?$AAl?$AAe?$AAn?$AAo?$AA?$AA@ 0046cdd4     LIBCMTD:fileno.obj
 0002:00006de8       ??_C@_1GA@PBJHELNC@?$AAf?$AA?3?$AA?2?$AAd?$AAd?$AA?2?$AAv?$AAc?$AAt?$AAo?$AAo?$AAl?$AAs?$AA?2?$AAc?$AAr?$AAt?$AA_?$AAb?$AAl?$AAd?$AA?2?$AAs?$AAe?$AAl?$AAf?$AA_?$AAx?$AA8?$AA6?$AA?2?$AAc@ 0046cde8     LIBCMTD:fileno.obj
 0002:00006e48       ??_C@_1CM@OKGMMMDH@?$AA?$CI?$AA_?$AAo?$AAs?$AAf?$AAi?$AAl?$AAe?$AA?$CI?$AAf?$AAh?$AA?$CJ?$AA?5?$AA?$CG?$AA?5?$AAF?$AAO?$AAP?$AAE?$AAN?$AA?$CJ?$AA?$AA@ 0046ce48     LIBCMTD:write.obj
 0002:00006e74       ??_C@_1O@KOFKDHPL@?$AA_?$AAw?$AAr?$AAi?$AAt?$AAe?$AA?$AA@ 0046ce74     LIBCMTD:write.obj
 0002:00006e88       ??_C@_1FO@EPLDPDDL@?$AAf?$AA?3?$AA?2?$AAd?$AAd?$AA?2?$AAv?$AAc?$AAt?$AAo?$AAo?$AAl?$AAs?$AA?2?$AAc?$AAr?$AAt?$AA_?$AAb?$AAl?$AAd?$AA?2?$AAs?$AAe?$AAl?$AAf?$AA_?$AAx?$AA8?$AA6?$AA?2?$AAc@ 0046ce88     LIBCMTD:write.obj
 0002:00006ee8       ??_C@_1FO@LPCLHKGE@?$AA?$CI?$AAf?$AAh?$AA?5?$AA?$DO?$AA?$DN?$AA?5?$AA0?$AA?5?$AA?$CG?$AA?$CG?$AA?5?$AA?$CI?$AAu?$AAn?$AAs?$AAi?$AAg?$AAn?$AAe?$AAd?$AA?$CJ?$AAf?$AAh?$AA?5?$AA?$DM?$AA?5?$AA?$CI?$AAu?$AAn?$AAs?$AAi@ 0046cee8     LIBCMTD:write.obj
 0002:00006f48       ??_C@_1DI@CNMHHHLG@?$AAi?$AAs?$AAl?$AAe?$AAa?$AAd?$AAb?$AAy?$AAt?$AAe?$AA?$CI?$AA_?$AAd?$AAb?$AAc?$AAs?$AAB?$AAu?$AAf?$AAf?$AAe?$AAr?$AA?$CI?$AAf?$AAh?$AA?$CJ?$AA?$CJ?$AA?$AA@ 0046cf48     LIBCMTD:write.obj
 0002:00006f80       ??_C@_1CC@EEOLPHGO@?$AA?$CI?$AA?$CI?$AAc?$AAn?$AAt?$AA?5?$AA?$CG?$AA?5?$AA1?$AA?$CJ?$AA?5?$AA?$DN?$AA?$DN?$AA?5?$AA0?$AA?$CJ?$AA?$AA@ 0046cf80     LIBCMTD:write.obj
 0002:00006fa4       ??_C@_1BM@NCANHCIP@?$AA_?$AAw?$AAr?$AAi?$AAt?$AAe?$AA_?$AAn?$AAo?$AAl?$AAo?$AAc?$AAk?$AA?$AA@ 0046cfa4     LIBCMTD:write.obj
 0002:00006fc0       ??_C@_1BM@KFJLMBPG@?$AA?$CI?$AAb?$AAu?$AAf?$AA?5?$AA?$CB?$AA?$DN?$AA?5?$AAN?$AAU?$AAL?$AAL?$AA?$CJ?$AA?$AA@ 0046cfc0     LIBCMTD:write.obj
 0002:00006fdc       ??_C@_0CP@MKONOLCI@f?3?2dd?2vctools?2crt_bld?2self_x86?2c@ 0046cfdc     LIBCMTD:mlock.obj
 0002:0000700c       ??_C@_0DB@OLNNDFNH@f?3?2dd?2vctools?2crt_bld?2self_x86?2c@ 0046d00c     LIBCMTD:_sftbuf.obj
 0002:00007040       ??_C@_1GC@DGAFOCMO@?$AAf?$AA?3?$AA?2?$AAd?$AAd?$AA?2?$AAv?$AAc?$AAt?$AAo?$AAo?$AAl?$AAs?$AA?2?$AAc?$AAr?$AAt?$AA_?$AAb?$AAl?$AAd?$AA?2?$AAs?$AAe?$AAl?$AAf?$AA_?$AAx?$AA8?$AA6?$AA?2?$AAc@ 0046d040     LIBCMTD:_sftbuf.obj
 0002:000070a4       ??_C@_1CO@KCKAACMI@?$AAf?$AAl?$AAa?$AAg?$AA?5?$AA?$DN?$AA?$DN?$AA?5?$AA0?$AA?5?$AA?$HM?$AA?$HM?$AA?5?$AAf?$AAl?$AAa?$AAg?$AA?5?$AA?$DN?$AA?$DN?$AA?5?$AA1?$AA?$AA@ 0046d0a4     LIBCMTD:_sftbuf.obj
 0002:000070d4       ??_C@_0DA@NBLAKPEL@f?3?2dd?2vctools?2crt_bld?2self_x86?2c@ 0046d0d4     LIBCMTD:ioinit.obj
 0002:00007104       ??_C@_1O@EDEJGJBM@?$AA_?$AAc?$AAl?$AAo?$AAs?$AAe?$AA?$AA@ 0046d104     LIBCMTD:close.obj
 0002:00007118       ??_C@_1FO@NNGNFGFH@?$AAf?$AA?3?$AA?2?$AAd?$AAd?$AA?2?$AAv?$AAc?$AAt?$AAo?$AAo?$AAl?$AAs?$AA?2?$AAc?$AAr?$AAt?$AA_?$AAb?$AAl?$AAd?$AA?2?$AAs?$AAe?$AAl?$AAf?$AA_?$AAx?$AA8?$AA6?$AA?2?$AAc@ 0046d118     LIBCMTD:close.obj
 0002:00007178       ??_C@_1GE@MIMBMOF@?$AAf?$AA?3?$AA?2?$AAd?$AAd?$AA?2?$AAv?$AAc?$AAt?$AAo?$AAo?$AAl?$AAs?$AA?2?$AAc?$AAr?$AAt?$AA_?$AAb?$AAl?$AAd?$AA?2?$AAs?$AAe?$AAl?$AAf?$AA_?$AAx?$AA8?$AA6?$AA?2?$AAc@ 0046d178     LIBCMTD:_freebuf.obj
 0002:000071dc       ??_C@_1BO@KIJENGPH@?$AAs?$AAt?$AAr?$AAe?$AAa?$AAm?$AA?5?$AA?$CB?$AA?$DN?$AA?5?$AAN?$AAU?$AAL?$AAL?$AA?$AA@ 0046d1dc     LIBCMTD:_freebuf.obj
 0002:000071fc       ??_C@_1O@EDOIKGHF@?$AA_?$AAl?$AAs?$AAe?$AAe?$AAk?$AA?$AA@ 0046d1fc     LIBCMTD:lseek.obj
 0002:00007210       ??_C@_1FO@LGKMLCAL@?$AAf?$AA?3?$AA?2?$AAd?$AAd?$AA?2?$AAv?$AAc?$AAt?$AAo?$AAo?$AAl?$AAs?$AA?2?$AAc?$AAr?$AAt?$AA_?$AAb?$AAl?$AAd?$AA?2?$AAs?$AAe?$AAl?$AAf?$AA_?$AAx?$AA8?$AA6?$AA?2?$AAc@ 0046d210     LIBCMTD:lseek.obj
 0002:00007270       ??_C@_1DM@LMLOLGJ@?$AA?$CI?$AA?$CC?$AAI?$AAn?$AAv?$AAa?$AAl?$AAi?$AAd?$AA?5?$AAf?$AAi?$AAl?$AAe?$AA?5?$AAd?$AAe?$AAs?$AAc?$AAr?$AAi?$AAp?$AAt?$AAo?$AAr?$AA?$CC?$AA?0?$AA0?$AA?$CJ?$AA?$AA@ 0046d270     LIBCMTD:lseek.obj
 0002:000072cc       ??_C@_1CI@KEDPFCAL@?$AA?$CI?$AA?$CK?$AAm?$AAo?$AAd?$AAe?$AA?5?$AA?$DN?$AA?$DN?$AA?5?$AA_?$AAT?$AA?$CI?$AA?8?$AA?2?$AA0?$AA?8?$AA?$CJ?$AA?$CJ?$AA?$AA@ 0046d2cc     LIBCMTD:_open.obj
 0002:000072f4       ??_C@_1BE@DONHJJKE@?$AA_?$AAo?$AAp?$AAe?$AAn?$AAf?$AAi?$AAl?$AAe?$AA?$AA@ 0046d2f4     LIBCMTD:_open.obj
 0002:00007308       ??_C@_1DK@PKMJBLLN@?$AA?$CI?$AA?$CC?$AAI?$AAn?$AAv?$AAa?$AAl?$AAi?$AAd?$AA?5?$AAf?$AAi?$AAl?$AAe?$AA?5?$AAo?$AAp?$AAe?$AAn?$AA?5?$AAm?$AAo?$AAd?$AAe?$AA?$CC?$AA?0?$AA0?$AA?$CJ?$AA?$AA@ 0046d308     LIBCMTD:_open.obj
 0002:00007344       ??_C@_1BK@HGLMNMEC@?$AAm?$AAo?$AAd?$AAe?$AA?5?$AA?$CB?$AA?$DN?$AA?5?$AAN?$AAU?$AAL?$AAL?$AA?$AA@ 0046d344     LIBCMTD:_open.obj
 0002:00007360       ??_C@_1FO@POGAHKND@?$AAf?$AA?3?$AA?2?$AAd?$AAd?$AA?2?$AAv?$AAc?$AAt?$AAo?$AAo?$AAl?$AAs?$AA?2?$AAc?$AAr?$AAt?$AA_?$AAb?$AAl?$AAd?$AA?2?$AAs?$AAe?$AAl?$AAf?$AA_?$AAx?$AA8?$AA6?$AA?2?$AAc@ 0046d360     LIBCMTD:_open.obj
 0002:000073c0       ??_C@_1CC@JBMDNKJP@?$AAf?$AAi?$AAl?$AAe?$AAn?$AAa?$AAm?$AAe?$AA?5?$AA?$CB?$AA?$DN?$AA?5?$AAN?$AAU?$AAL?$AAL?$AA?$AA@ 0046d3c0     LIBCMTD:_open.obj
 0002:000073e4       ??_C@_0DA@NLPACBPK@f?3?2dd?2vctools?2crt_bld?2self_x86?2c@ 0046d3e4     LIBCMTD:stream.obj
 0002:00007414       ??_C@_1BI@IGILPKD@?$AA_?$AAv?$AAs?$AAp?$AAr?$AAi?$AAn?$AAt?$AAf?$AA_?$AAl?$AA?$AA@ 0046d414     LIBCMTD:vsprintf.obj
 0002:0000742c       ??_C@_1CE@HMKDJHB@?$AA_?$AAv?$AAs?$AAc?$AAp?$AAr?$AAi?$AAn?$AAt?$AAf?$AA_?$AAh?$AAe?$AAl?$AAp?$AAe?$AAr?$AA?$AA@ 0046d42c     LIBCMTD:vsprintf.obj
 0002:00007450       __pDestructExceptionObject 0046d450     LIBCMTD:frame.obj
 0002:00007454       ??_C@_0O@DPKOEFFH@bad?5exception?$AA@ 0046d454     LIBCMTD:frame.obj
 0002:00007468       ??_7bad_exception@std@@6B@ 0046d468     LIBCMTD:frame.obj
 0002:00007470       ??_C@_0DC@LMJHGCKC@f?3?2dd?2vctools?2crt_bld?2self_x86?2c@ 0046d470     LIBCMTD:tidtable.obj
 0002:000074a4       ??_C@_07PEJMOBNF@FlsFree?$AA@ 0046d4a4     LIBCMTD:tidtable.obj
 0002:000074ac       ??_C@_0M@JCPCPOEF@FlsSetValue?$AA@ 0046d4ac     LIBCMTD:tidtable.obj
 0002:000074b8       ??_C@_0M@GDNOONDI@FlsGetValue?$AA@ 0046d4b8     LIBCMTD:tidtable.obj
 0002:000074c4       ??_C@_08KNHFBNJ@FlsAlloc?$AA@ 0046d4c4     LIBCMTD:tidtable.obj
 0002:000074d0       ??_C@_1BK@DBDEIDLH@?$AAK?$AAE?$AAR?$AAN?$AAE?$AAL?$AA3?$AA2?$AA?4?$AAD?$AAL?$AAL?$AA?$AA@ 0046d4d0     LIBCMTD:tidtable.obj
 0002:000074ec       ??_C@_0P@MIGLKIOC@CorExitProcess?$AA@ 0046d4ec     LIBCMTD:crt0dat.obj
 0002:000074fc       ??_C@_1BI@BGOHAHKC@?$AAm?$AAs?$AAc?$AAo?$AAr?$AAe?$AAe?$AA?4?$AAd?$AAl?$AAl?$AA?$AA@ 0046d4fc     LIBCMTD:crt0dat.obj
 0002:00007514       ??_C@_1CC@CDIPMFPD@?$AA_?$AAw?$AAp?$AAg?$AAm?$AAp?$AAt?$AAr?$AA?5?$AA?$CB?$AA?$DN?$AA?5?$AAN?$AAU?$AAL?$AAL?$AA?$AA@ 0046d514     LIBCMTD:crt0dat.obj
 0002:00007538       ??_C@_1BK@PNLDCCDP@?$AA_?$AAg?$AAe?$AAt?$AA_?$AAw?$AAp?$AAg?$AAm?$AAp?$AAt?$AAr?$AA?$AA@ 0046d538     LIBCMTD:crt0dat.obj
 0002:00007558       ??_C@_1GC@DGCPEDNJ@?$AAf?$AA?3?$AA?2?$AAd?$AAd?$AA?2?$AAv?$AAc?$AAt?$AAo?$AAo?$AAl?$AAs?$AA?2?$AAc?$AAr?$AAt?$AA_?$AAb?$AAl?$AAd?$AA?2?$AAs?$AAe?$AAl?$AAf?$AA_?$AAx?$AA8?$AA6?$AA?2?$AAc@ 0046d558     LIBCMTD:crt0dat.obj
 0002:000075bc       ??_C@_1CA@BBNAFCKO@?$AA_?$AAp?$AAg?$AAm?$AAp?$AAt?$AAr?$AA?5?$AA?$CB?$AA?$DN?$AA?5?$AAN?$AAU?$AAL?$AAL?$AA?$AA@ 0046d5bc     LIBCMTD:crt0dat.obj
 0002:000075dc       ??_C@_1BI@COAAPHJK@?$AA_?$AAg?$AAe?$AAt?$AA_?$AAp?$AAg?$AAm?$AAp?$AAt?$AAr?$AA?$AA@ 0046d5dc     LIBCMTD:crt0dat.obj
 0002:000075f8       ??_C@_1HG@KNCBMCDD@?$AAf?$AA?3?$AA?2?$AAd?$AAd?$AA?2?$AAv?$AAc?$AAt?$AAo?$AAo?$AAl?$AAs?$AA?2?$AAc?$AAr?$AAt?$AA_?$AAb?$AAl?$AAd?$AA?2?$AAs?$AAe?$AAl?$AAf?$AA_?$AAx?$AA8?$AA6?$AA?2?$AAc@ 0046d5f8     LIBCMTD:typname.obj
 0002:00007670       ??_C@_1CK@GELGGBDK@?$AAp?$AAN?$AAo?$AAd?$AAe?$AA?9?$AA?$DO?$AA_?$AAN?$AAe?$AAx?$AAt?$AA?5?$AA?$CB?$AA?$DN?$AA?5?$AAN?$AAU?$AAL?$AAL?$AA?$AA@ 0046d670     LIBCMTD:typname.obj
 0002:000076a0       ??_C@_1JK@NAFNEPGC@?$AAs?$AAt?$AAr?$AAc?$AAp?$AAy?$AA_?$AAs?$AA?5?$AA?$CI?$AA?$CI?$AAc?$AAh?$AAa?$AAr?$AA?5?$AA?$CK?$AA?$CJ?$AA?$CI?$AA?$CI?$AAt?$AAy?$AAp?$AAe?$AA_?$AAi?$AAn?$AAf?$AAo?$AA?5?$AA?$CK?$AA?$CJ@ 0046d6a0     LIBCMTD:typname.obj
 0002:0000773c       ??_C@_1CM@OOICDMK@?$AAt?$AAy?$AAp?$AAe?$AA_?$AAi?$AAn?$AAf?$AAo?$AA?3?$AA?3?$AA_?$AAN?$AAa?$AAm?$AAe?$AA_?$AAb?$AAa?$AAs?$AAe?$AA?$AA@ 0046d73c     LIBCMTD:typname.obj
 0002:00007768       ??_C@_1GI@EAJKJPED@?$AAs?$AAt?$AAr?$AAc?$AAp?$AAy?$AA_?$AAs?$AA?5?$AA?$CI?$AAp?$AAT?$AAm?$AAp?$AAT?$AAy?$AAp?$AAe?$AAN?$AAa?$AAm?$AAe?$AA?0?$AA?5?$AAl?$AAe?$AAn?$AA?$CL?$AA2?$AA?0?$AA?5?$AA?$CI@ 0046d768     LIBCMTD:typname.obj
 0002:000077d0       ??_C@_1DO@OJJLFJPE@?$AAt?$AAy?$AAp?$AAe?$AA_?$AAi?$AAn?$AAf?$AAo?$AA?3?$AA?3?$AA_?$AAN?$AAa?$AAm?$AAe?$AA_?$AAb?$AAa?$AAs?$AAe?$AA_?$AAi?$AAn?$AAt?$AAe?$AAr?$AAn?$AAa?$AAl?$AA?$AA@ 0046d7d0     LIBCMTD:typname.obj
 0002:00007810       ??_C@_1GG@CDHAPCGF@?$AAf?$AA?3?$AA?2?$AAd?$AAd?$AA?2?$AAv?$AAc?$AAt?$AAo?$AAo?$AAl?$AAs?$AA?2?$AAc?$AAr?$AAt?$AA_?$AAb?$AAl?$AAd?$AA?2?$AAs?$AAe?$AAl?$AAf?$AA_?$AAx?$AA8?$AA6?$AA?2?$AAc@ 0046d810     LIBCMTD:handler.obj
 0002:00007878       ??_C@_1BC@JLLICHIC@?$AAp?$AAn?$AAh?$AA?5?$AA?$DN?$AA?$DN?$AA?5?$AA0?$AA?$AA@ 0046d878     LIBCMTD:handler.obj
 0002:00007890       ??_C@_1GA@INJGGEBC@?$AAf?$AA?3?$AA?2?$AAd?$AAd?$AA?2?$AAv?$AAc?$AAt?$AAo?$AAo?$AAl?$AAs?$AA?2?$AAc?$AAr?$AAt?$AA_?$AAb?$AAl?$AAd?$AA?2?$AAs?$AAe?$AAl?$AAf?$AA_?$AAx?$AA8?$AA6?$AA?2?$AAc@ 0046d890     LIBCMTD:a_map.obj
 0002:000078f0       ??_C@_1FE@KNPCCODH@?$AA?$CI?$AA?$CC?$AAC?$AAo?$AAr?$AAr?$AAu?$AAp?$AAt?$AAe?$AAd?$AA?5?$AAp?$AAo?$AAi?$AAn?$AAt?$AAe?$AAr?$AA?5?$AAp?$AAa?$AAs?$AAs?$AAe?$AAd?$AA?5?$AAt?$AAo?$AA?5?$AA_?$AAf@ 0046d8f0     LIBCMTD:a_map.obj
 0002:00007944       ??_C@_1BI@DCHLDCPP@?$AAs?$AAr?$AAc?$AA?5?$AA?$CB?$AA?$DN?$AA?5?$AAN?$AAU?$AAL?$AAL?$AA?$AA@ 0046d944     LIBCMTD:stricmp.obj
 0002:0000795c       ??_C@_1BG@GLLONOEH@?$AA_?$AAs?$AAt?$AAr?$AAi?$AAc?$AAm?$AAp?$AA_?$AAl?$AA?$AA@ 0046d95c     LIBCMTD:stricmp.obj
 0002:00007978       ??_C@_1GC@OILHAOLL@?$AAf?$AA?3?$AA?2?$AAd?$AAd?$AA?2?$AAv?$AAc?$AAt?$AAo?$AAo?$AAl?$AAs?$AA?2?$AAc?$AAr?$AAt?$AA_?$AAb?$AAl?$AAd?$AA?2?$AAs?$AAe?$AAl?$AAf?$AA_?$AAx?$AA8?$AA6?$AA?2?$AAc@ 0046d978     LIBCMTD:stricmp.obj
 0002:000079dc       ??_C@_1BI@GKKCBDMD@?$AAd?$AAs?$AAt?$AA?5?$AA?$CB?$AA?$DN?$AA?5?$AAN?$AAU?$AAL?$AAL?$AA?$AA@ 0046d9dc     LIBCMTD:stricmp.obj
 0002:000079f4       ??_C@_1BC@JLGKKIIG@?$AA_?$AAs?$AAt?$AAr?$AAi?$AAc?$AAm?$AAp?$AA?$AA@ 0046d9f4     LIBCMTD:stricmp.obj
 0002:00007a08       ??_C@_0DB@MHMEONEC@f?3?2dd?2vctools?2crt_bld?2self_x86?2c@ 0046da08     LIBCMTD:mbctype.obj
 0002:00007a40       ??_C@_1GE@HMAALBPJ@?$AAf?$AA?3?$AA?2?$AAd?$AAd?$AA?2?$AAv?$AAc?$AAt?$AAo?$AAo?$AAl?$AAs?$AA?2?$AAc?$AAr?$AAt?$AA_?$AAb?$AAl?$AAd?$AA?2?$AAs?$AAe?$AAl?$AAf?$AA_?$AAx?$AA8?$AA6?$AA?2?$AAc@ 0046da40     LIBCMTD:localref.obj
 0002:00007aa8       ??_C@_1BKC@GGIENNAK@?$AA?$CI?$AA?$CI?$AAp?$AAt?$AAl?$AAo?$AAc?$AAi?$AA?9?$AA?$DO?$AAl?$AAc?$AA_?$AAc?$AAa?$AAt?$AAe?$AAg?$AAo?$AAr?$AAy?$AA?$FL?$AAc?$AAa?$AAt?$AAe?$AAg?$AAo?$AAr?$AAy?$AA?$FN?$AA?4@ 0046daa8     LIBCMTD:localref.obj
 0002:00007c4c       ??_C@_1BC@GDGBMEMK@?$AAH?$AAH?$AA?3?$AAm?$AAm?$AA?3?$AAs?$AAs?$AA?$AA@ 0046dc4c     LIBCMTD:nlsdata2.obj
 0002:00007c60       ??_C@_1CI@KNAKOEBC@?$AAd?$AAd?$AAd?$AAd?$AA?0?$AA?5?$AAM?$AAM?$AAM?$AAM?$AA?5?$AAd?$AAd?$AA?0?$AA?5?$AAy?$AAy?$AAy?$AAy?$AA?$AA@ 0046dc60     LIBCMTD:nlsdata2.obj
 0002:00007c88       ??_C@_1BC@IEBCMHCM@?$AAM?$AAM?$AA?1?$AAd?$AAd?$AA?1?$AAy?$AAy?$AA?$AA@ 0046dc88     LIBCMTD:nlsdata2.obj
 0002:00007c9c       ??_C@_15CLMNNGEL@?$AAP?$AAM?$AA?$AA@ 0046dc9c     LIBCMTD:nlsdata2.obj
 0002:00007ca4       ??_C@_15ODEHAHHF@?$AAA?$AAM?$AA?$AA@ 0046dca4     LIBCMTD:nlsdata2.obj
 0002:00007cac       ??_C@_1BC@FEMKIFH@?$AAD?$AAe?$AAc?$AAe?$AAm?$AAb?$AAe?$AAr?$AA?$AA@ 0046dcac     LIBCMTD:nlsdata2.obj
 0002:00007cc0       ??_C@_1BC@BGLIFPF@?$AAN?$AAo?$AAv?$AAe?$AAm?$AAb?$AAe?$AAr?$AA?$AA@ 0046dcc0     LIBCMTD:nlsdata2.obj
 0002:00007cd4       ??_C@_1BA@EPANDLNG@?$AAO?$AAc?$AAt?$AAo?$AAb?$AAe?$AAr?$AA?$AA@ 0046dcd4     LIBCMTD:nlsdata2.obj
 0002:00007ce4       ??_C@_1BE@DKAAMBJL@?$AAS?$AAe?$AAp?$AAt?$AAe?$AAm?$AAb?$AAe?$AAr?$AA?$AA@ 0046dce4     LIBCMTD:nlsdata2.obj
 0002:00007cf8       ??_C@_1O@PAHLKOAC@?$AAA?$AAu?$AAg?$AAu?$AAs?$AAt?$AA?$AA@ 0046dcf8     LIBCMTD:nlsdata2.obj
 0002:00007d08       ??_C@_19BIFMLPCD@?$AAJ?$AAu?$AAl?$AAy?$AA?$AA@ 0046dd08     LIBCMTD:nlsdata2.obj
 0002:00007d14       ??_C@_19EPFLPGAP@?$AAJ?$AAu?$AAn?$AAe?$AA?$AA@ 0046dd14     LIBCMTD:nlsdata2.obj
 0002:00007d20       ??_C@_1M@GJNLMHFD@?$AAA?$AAp?$AAr?$AAi?$AAl?$AA?$AA@ 0046dd20     LIBCMTD:nlsdata2.obj
 0002:00007d2c       ??_C@_1M@IKEENEDF@?$AAM?$AAa?$AAr?$AAc?$AAh?$AA?$AA@ 0046dd2c     LIBCMTD:nlsdata2.obj
 0002:00007d38       ??_C@_1BC@JGDDFFAM@?$AAF?$AAe?$AAb?$AAr?$AAu?$AAa?$AAr?$AAy?$AA?$AA@ 0046dd38     LIBCMTD:nlsdata2.obj
 0002:00007d4c       ??_C@_1BA@EFMEIEBA@?$AAJ?$AAa?$AAn?$AAu?$AAa?$AAr?$AAy?$AA?$AA@ 0046dd4c     LIBCMTD:nlsdata2.obj
 0002:00007d5c       ??_C@_17EGKACKIF@?$AAD?$AAe?$AAc?$AA?$AA@ 0046dd5c     LIBCMTD:nlsdata2.obj
 0002:00007d64       ??_C@_17BBDMLCIG@?$AAN?$AAo?$AAv?$AA?$AA@ 0046dd64     LIBCMTD:nlsdata2.obj
 0002:00007d6c       ??_C@_17FNLKOI@?$AAO?$AAc?$AAt?$AA?$AA@ 0046dd6c     LIBCMTD:nlsdata2.obj
 0002:00007d74       ??_C@_17HCHCOKMG@?$AAS?$AAe?$AAp?$AA?$AA@ 0046dd74     LIBCMTD:nlsdata2.obj
 0002:00007d7c       ??_C@_17ICPELBCN@?$AAA?$AAu?$AAg?$AA?$AA@ 0046dd7c     LIBCMTD:nlsdata2.obj
 0002:00007d84       ??_C@_17IJPCKHK@?$AAJ?$AAu?$AAl?$AA?$AA@ 0046dd84     LIBCMTD:nlsdata2.obj
 0002:00007d8c       ??_C@_17KCJGOCPB@?$AAJ?$AAu?$AAn?$AA?$AA@ 0046dd8c     LIBCMTD:nlsdata2.obj
 0002:00007d94       ??_C@_17PNNKMEED@?$AAM?$AAa?$AAy?$AA?$AA@ 0046dd94     LIBCMTD:nlsdata2.obj
 0002:00007d9c       ??_C@_17LFPOIHDD@?$AAA?$AAp?$AAr?$AA?$AA@ 0046dd9c     LIBCMTD:nlsdata2.obj
 0002:00007da4       ??_C@_17CKNLEDEC@?$AAM?$AAa?$AAr?$AA?$AA@ 0046dda4     LIBCMTD:nlsdata2.obj
 0002:00007dac       ??_C@_17LMDJEKJN@?$AAF?$AAe?$AAb?$AA?$AA@ 0046ddac     LIBCMTD:nlsdata2.obj
 0002:00007db4       ??_C@_17DKNBKCHM@?$AAJ?$AAa?$AAn?$AA?$AA@ 0046ddb4     LIBCMTD:nlsdata2.obj
 0002:00007dbc       ??_C@_1BC@ENMNNPAJ@?$AAS?$AAa?$AAt?$AAu?$AAr?$AAd?$AAa?$AAy?$AA?$AA@ 0046ddbc     LIBCMTD:nlsdata2.obj
 0002:00007dd0       ??_C@_1O@PDICJHAG@?$AAF?$AAr?$AAi?$AAd?$AAa?$AAy?$AA?$AA@ 0046ddd0     LIBCMTD:nlsdata2.obj
 0002:00007de0       ??_C@_1BC@HHMNLIHE@?$AAT?$AAh?$AAu?$AAr?$AAs?$AAd?$AAa?$AAy?$AA?$AA@ 0046dde0     LIBCMTD:nlsdata2.obj
 0002:00007df4       ??_C@_1BE@EBOGMDOH@?$AAW?$AAe?$AAd?$AAn?$AAe?$AAs?$AAd?$AAa?$AAy?$AA?$AA@ 0046ddf4     LIBCMTD:nlsdata2.obj
 0002:00007e08       ??_C@_1BA@ENFBFFEK@?$AAT?$AAu?$AAe?$AAs?$AAd?$AAa?$AAy?$AA?$AA@ 0046de08     LIBCMTD:nlsdata2.obj
 0002:00007e18       ??_C@_1O@MMNBFLIA@?$AAM?$AAo?$AAn?$AAd?$AAa?$AAy?$AA?$AA@ 0046de18     LIBCMTD:nlsdata2.obj
 0002:00007e28       ??_C@_1O@IHNHDHPB@?$AAS?$AAu?$AAn?$AAd?$AAa?$AAy?$AA?$AA@ 0046de28     LIBCMTD:nlsdata2.obj
 0002:00007e38       ??_C@_17GGIBDPIH@?$AAS?$AAa?$AAt?$AA?$AA@ 0046de38     LIBCMTD:nlsdata2.obj
 0002:00007e40       ??_C@_17HFOLPPLP@?$AAF?$AAr?$AAi?$AA?$AA@ 0046de40     LIBCMTD:nlsdata2.obj
 0002:00007e48       ??_C@_17PDPHAADD@?$AAT?$AAh?$AAu?$AA?$AA@ 0046de48     LIBCMTD:nlsdata2.obj
 0002:00007e50       ??_C@_17CJEDCEPE@?$AAW?$AAe?$AAd?$AA?$AA@ 0046de50     LIBCMTD:nlsdata2.obj
 0002:00007e58       ??_C@_17BMKGEGOJ@?$AAT?$AAu?$AAe?$AA?$AA@ 0046de58     LIBCMTD:nlsdata2.obj
 0002:00007e60       ??_C@_17KBOMKBF@?$AAM?$AAo?$AAn?$AA?$AA@ 0046de60     LIBCMTD:nlsdata2.obj
 0002:00007e68       ??_C@_17MBGCMIPB@?$AAS?$AAu?$AAn?$AA?$AA@ 0046de68     LIBCMTD:nlsdata2.obj
 0002:00007e70       ??_C@_08JCCMCCIL@HH?3mm?3ss?$AA@ 0046de70     LIBCMTD:nlsdata2.obj
 0002:00007e7c       ??_C@_0BE@CKGJFCPC@dddd?0?5MMMM?5dd?0?5yyyy?$AA@ 0046de7c     LIBCMTD:nlsdata2.obj
 0002:00007e90       ??_C@_08BPBNCDIB@MM?1dd?1yy?$AA@ 0046de90     LIBCMTD:nlsdata2.obj
 0002:00007e9c       ??_C@_02CJNFDJBF@PM?$AA@   0046de9c     LIBCMTD:nlsdata2.obj
 0002:00007ea0       ??_C@_02DEDBPAFC@AM?$AA@   0046dea0     LIBCMTD:nlsdata2.obj
 0002:00007ea4       ??_C@_08EDHMEBNP@December?$AA@ 0046dea4     LIBCMTD:nlsdata2.obj
 0002:00007eb0       ??_C@_08HCHEGEOA@November?$AA@ 0046deb0     LIBCMTD:nlsdata2.obj
 0002:00007ebc       ??_C@_07JJNFCEND@October?$AA@ 0046debc     LIBCMTD:nlsdata2.obj
 0002:00007ec4       ??_C@_09BHHEALKD@September?$AA@ 0046dec4     LIBCMTD:nlsdata2.obj
 0002:00007ed0       ??_C@_06LBBHFDDG@August?$AA@ 0046ded0     LIBCMTD:nlsdata2.obj
 0002:00007ed8       ??_C@_04MIEPOIFP@July?$AA@ 0046ded8     LIBCMTD:nlsdata2.obj
 0002:00007ee0       ??_C@_04CNLMGBGM@June?$AA@ 0046dee0     LIBCMTD:nlsdata2.obj
 0002:00007ee8       ??_C@_05DMJDNLEJ@April?$AA@ 0046dee8     LIBCMTD:nlsdata2.obj
 0002:00007ef0       ??_C@_05HPCKOFNC@March?$AA@ 0046def0     LIBCMTD:nlsdata2.obj
 0002:00007ef8       ??_C@_08GNJGEPFN@February?$AA@ 0046def8     LIBCMTD:nlsdata2.obj
 0002:00007f04       ??_C@_07CGJPFGJA@January?$AA@ 0046df04     LIBCMTD:nlsdata2.obj
 0002:00007f0c       ??_C@_03MKABNOCG@Dec?$AA@  0046df0c     LIBCMTD:nlsdata2.obj
 0002:00007f10       ??_C@_03JPJOFNIA@Nov?$AA@  0046df10     LIBCMTD:nlsdata2.obj
 0002:00007f14       ??_C@_03BMAOKBAD@Oct?$AA@  0046df14     LIBCMTD:nlsdata2.obj
 0002:00007f18       ??_C@_03GGCAPAJC@Sep?$AA@  0046df18     LIBCMTD:nlsdata2.obj
 0002:00007f1c       ??_C@_03IFJFEIGA@Aug?$AA@  0046df1c     LIBCMTD:nlsdata2.obj
 0002:00007f20       ??_C@_03LBGABGKK@Jul?$AA@  0046df20     LIBCMTD:nlsdata2.obj
 0002:00007f24       ??_C@_03IDFGHECI@Jun?$AA@  0046df24     LIBCMTD:nlsdata2.obj
 0002:00007f28       ??_C@_03CNMDKL@May?$AA@    0046df28     LIBCMTD:nlsdata2.obj
 0002:00007f2c       ??_C@_03LEOLGMJP@Apr?$AA@  0046df2c     LIBCMTD:nlsdata2.obj
 0002:00007f30       ??_C@_03ODNJBKGA@Mar?$AA@  0046df30     LIBCMTD:nlsdata2.obj
 0002:00007f34       ??_C@_03HJBDCHOM@Feb?$AA@  0046df34     LIBCMTD:nlsdata2.obj
 0002:00007f38       ??_C@_03JIHJHPIE@Jan?$AA@  0046df38     LIBCMTD:nlsdata2.obj
 0002:00007f3c       ??_C@_08INBOOONO@Saturday?$AA@ 0046df3c     LIBCMTD:nlsdata2.obj
 0002:00007f48       ??_C@_06JECMNKMI@Friday?$AA@ 0046df48     LIBCMTD:nlsdata2.obj
 0002:00007f50       ??_C@_08HACCIKIA@Thursday?$AA@ 0046df50     LIBCMTD:nlsdata2.obj
 0002:00007f5c       ??_C@_09DLIGFAKA@Wednesday?$AA@ 0046df5c     LIBCMTD:nlsdata2.obj
 0002:00007f68       ??_C@_07BAAGCFCM@Tuesday?$AA@ 0046df68     LIBCMTD:nlsdata2.obj
 0002:00007f70       ??_C@_06JLEDEDGH@Monday?$AA@ 0046df70     LIBCMTD:nlsdata2.obj
 0002:00007f78       ??_C@_06OOPIFAJ@Sunday?$AA@ 0046df78     LIBCMTD:nlsdata2.obj
 0002:00007f80       ??_C@_03FEFJNEK@Sat?$AA@   0046df80     LIBCMTD:nlsdata2.obj
 0002:00007f84       ??_C@_03IDIOELNC@Fri?$AA@  0046df84     LIBCMTD:nlsdata2.obj
 0002:00007f88       ??_C@_03IOFIKPDN@Thu?$AA@  0046df88     LIBCMTD:nlsdata2.obj
 0002:00007f8c       ??_C@_03MHOMLAJA@Wed?$AA@  0046df8c     LIBCMTD:nlsdata2.obj
 0002:00007f90       ??_C@_03NAGEINEP@Tue?$AA@  0046df90     LIBCMTD:nlsdata2.obj
 0002:00007f94       ??_C@_03PDAGKDH@Mon?$AA@   0046df94     LIBCMTD:nlsdata2.obj
 0002:00007f98       ??_C@_03KOEHGMDN@Sun?$AA@  0046df98     LIBCMTD:nlsdata2.obj
 0002:00007f9c       ??_C@_1DM@MADKGDLO@?$AA?$CI?$AAL?$AA?$CC?$AAB?$AAu?$AAf?$AAf?$AAe?$AAr?$AA?5?$AAi?$AAs?$AA?5?$AAt?$AAo?$AAo?$AA?5?$AAs?$AAm?$AAa?$AAl?$AAl?$AA?$CC?$AA?5?$AA?$CG?$AA?$CG?$AA?5?$AA0?$AA?$CJ?$AA?$AA@ 0046df9c     LIBCMTD:strcpy_s.obj
 0002:00007fd8       ??_C@_1CI@HCPHDDLE@?$AAB?$AAu?$AAf?$AAf?$AAe?$AAr?$AA?5?$AAi?$AAs?$AA?5?$AAt?$AAo?$AAo?$AA?5?$AAs?$AAm?$AAa?$AAl?$AAl?$AA?$AA@ 0046dfd8     LIBCMTD:strcpy_s.obj
 0002:00008000       ??_C@_1CG@OFBJMIGJ@?$AA?$CI?$AA?$CI?$AA?$CI?$AA_?$AAS?$AAr?$AAc?$AA?$CJ?$AA?$CJ?$AA?$CJ?$AA?5?$AA?$CB?$AA?$DN?$AA?5?$AAN?$AAU?$AAL?$AAL?$AA?$AA@ 0046e000     LIBCMTD:strcpy_s.obj
 0002:00008028       ??_C@_1BC@CFJEPFGF@?$AAs?$AAt?$AAr?$AAc?$AAp?$AAy?$AA_?$AAs?$AA?$AA@ 0046e028     LIBCMTD:strcpy_s.obj
 0002:00008040       ??_C@_1GI@BGBNCIMA@?$AAf?$AA?3?$AA?2?$AAd?$AAd?$AA?2?$AAv?$AAc?$AAt?$AAo?$AAo?$AAl?$AAs?$AA?2?$AAc?$AAr?$AAt?$AA_?$AAb?$AAl?$AAd?$AA?2?$AAs?$AAe?$AAl?$AAf?$AA_?$AAx?$AA8?$AA6?$AA?2?$AAc@ 0046e040     LIBCMTD:strcpy_s.obj
 0002:000080a8       ??_C@_1FC@NCPEPIBI@?$AA?$CI?$AA?$CI?$AA_?$AAD?$AAs?$AAt?$AA?$CJ?$AA?$CJ?$AA?5?$AA?$CB?$AA?$DN?$AA?5?$AAN?$AAU?$AAL?$AAL?$AA?5?$AA?$CG?$AA?$CG?$AA?5?$AA?$CI?$AA?$CI?$AA_?$AAS?$AAi?$AAz?$AAe?$AAI?$AAn?$AAB?$AAy?$AAt@ 0046e0a8     LIBCMTD:strcpy_s.obj
 0002:000080fc       ??_C@_1BO@BKOMIGKJ@?$AAr?$AAu?$AAn?$AAt?$AAi?$AAm?$AAe?$AA?5?$AAe?$AAr?$AAr?$AAo?$AAr?$AA?5?$AA?$AA@ 0046e0fc     LIBCMTD:crt0msg.obj
 0002:0000811c       ??_C@_15JNBOKNOG@?$AA?$AN?$AA?6?$AA?$AA@ 0046e11c     LIBCMTD:crt0msg.obj
 0002:00008124       ??_C@_1BM@JBBEPPHI@?$AAT?$AAL?$AAO?$AAS?$AAS?$AA?5?$AAe?$AAr?$AAr?$AAo?$AAr?$AA?$AN?$AA?6?$AA?$AA@ 0046e124     LIBCMTD:crt0msg.obj
 0002:00008140       ??_C@_1BK@KMOMNAAI@?$AAS?$AAI?$AAN?$AAG?$AA?5?$AAe?$AAr?$AAr?$AAo?$AAr?$AA?$AN?$AA?6?$AA?$AA@ 0046e140     LIBCMTD:crt0msg.obj
 0002:0000815c       ??_C@_1BO@BFCDCGC@?$AAD?$AAO?$AAM?$AAA?$AAI?$AAN?$AA?5?$AAe?$AAr?$AAr?$AAo?$AAr?$AA?$AN?$AA?6?$AA?$AA@ 0046e15c     LIBCMTD:crt0msg.obj
 0002:00008180       ??_C@_1BOO@KGEDBGAJ@?$AAR?$AA6?$AA0?$AA3?$AA3?$AA?$AN?$AA?6?$AA?9?$AA?5?$AAA?$AAt?$AAt?$AAe?$AAm?$AAp?$AAt?$AA?5?$AAt?$AAo?$AA?5?$AAu?$AAs?$AAe?$AA?5?$AAM?$AAS?$AAI?$AAL?$AA?5?$AAc?$AAo?$AAd@ 0046e180     LIBCMTD:crt0msg.obj
 0002:00008370       ??_C@_1GG@GOPILAJP@?$AAR?$AA6?$AA0?$AA3?$AA2?$AA?$AN?$AA?6?$AA?9?$AA?5?$AAn?$AAo?$AAt?$AA?5?$AAe?$AAn?$AAo?$AAu?$AAg?$AAh?$AA?5?$AAs?$AAp?$AAa?$AAc?$AAe?$AA?5?$AAf?$AAo?$AAr?$AA?5?$AAl?$AAo@ 0046e370     LIBCMTD:crt0msg.obj
 0002:000083d8       ??_C@_1MG@ENCOOIDF@?$AAR?$AA6?$AA0?$AA3?$AA1?$AA?$AN?$AA?6?$AA?9?$AA?5?$AAA?$AAt?$AAt?$AAe?$AAm?$AAp?$AAt?$AA?5?$AAt?$AAo?$AA?5?$AAi?$AAn?$AAi?$AAt?$AAi?$AAa?$AAl?$AAi?$AAz?$AAe?$AA?5?$AAt@ 0046e3d8     LIBCMTD:crt0msg.obj
 0002:000084a0       ??_C@_1DO@BMFCDCD@?$AAR?$AA6?$AA0?$AA3?$AA0?$AA?$AN?$AA?6?$AA?9?$AA?5?$AAC?$AAR?$AAT?$AA?5?$AAn?$AAo?$AAt?$AA?5?$AAi?$AAn?$AAi?$AAt?$AAi?$AAa?$AAl?$AAi?$AAz?$AAe?$AAd?$AA?$AN?$AA?6?$AA?$AA@ 0046e4a0     LIBCMTD:crt0msg.obj
 0002:000084e0       ??_C@_1EK@HHFLMAOL@?$AAR?$AA6?$AA0?$AA2?$AA8?$AA?$AN?$AA?6?$AA?9?$AA?5?$AAu?$AAn?$AAa?$AAb?$AAl?$AAe?$AA?5?$AAt?$AAo?$AA?5?$AAi?$AAn?$AAi?$AAt?$AAi?$AAa?$AAl?$AAi?$AAz?$AAe?$AA?5?$AAh?$AAe@ 0046e4e0     LIBCMTD:crt0msg.obj
 0002:00008530       ??_C@_1GK@MFGOKLAG@?$AAR?$AA6?$AA0?$AA2?$AA7?$AA?$AN?$AA?6?$AA?9?$AA?5?$AAn?$AAo?$AAt?$AA?5?$AAe?$AAn?$AAo?$AAu?$AAg?$AAh?$AA?5?$AAs?$AAp?$AAa?$AAc?$AAe?$AA?5?$AAf?$AAo?$AAr?$AA?5?$AAl?$AAo@ 0046e530     LIBCMTD:crt0msg.obj
 0002:000085a0       ??_C@_1GK@MCAAGJMO@?$AAR?$AA6?$AA0?$AA2?$AA6?$AA?$AN?$AA?6?$AA?9?$AA?5?$AAn?$AAo?$AAt?$AA?5?$AAe?$AAn?$AAo?$AAu?$AAg?$AAh?$AA?5?$AAs?$AAp?$AAa?$AAc?$AAe?$AA?5?$AAf?$AAo?$AAr?$AA?5?$AAs?$AAt@ 0046e5a0     LIBCMTD:crt0msg.obj
 0002:00008610       ??_C@_1EM@MAADIHMB@?$AAR?$AA6?$AA0?$AA2?$AA5?$AA?$AN?$AA?6?$AA?9?$AA?5?$AAp?$AAu?$AAr?$AAe?$AA?5?$AAv?$AAi?$AAr?$AAt?$AAu?$AAa?$AAl?$AA?5?$AAf?$AAu?$AAn?$AAc?$AAt?$AAi?$AAo?$AAn?$AA?5?$AAc@ 0046e610     LIBCMTD:crt0msg.obj
 0002:00008660       ??_C@_1GK@FHCKBEFA@?$AAR?$AA6?$AA0?$AA2?$AA4?$AA?$AN?$AA?6?$AA?9?$AA?5?$AAn?$AAo?$AAt?$AA?5?$AAe?$AAn?$AAo?$AAu?$AAg?$AAh?$AA?5?$AAs?$AAp?$AAa?$AAc?$AAe?$AA?5?$AAf?$AAo?$AAr?$AA?5?$AA_?$AAo@ 0046e660     LIBCMTD:crt0msg.obj
 0002:000086d0       ??_C@_1FC@ECHBIFBC@?$AAR?$AA6?$AA0?$AA1?$AA9?$AA?$AN?$AA?6?$AA?9?$AA?5?$AAu?$AAn?$AAa?$AAb?$AAl?$AAe?$AA?5?$AAt?$AAo?$AA?5?$AAo?$AAp?$AAe?$AAn?$AA?5?$AAc?$AAo?$AAn?$AAs?$AAo?$AAl?$AAe?$AA?5@ 0046e6d0     LIBCMTD:crt0msg.obj
 0002:00008728       ??_C@_1EC@JIBHAOPH@?$AAR?$AA6?$AA0?$AA1?$AA8?$AA?$AN?$AA?6?$AA?9?$AA?5?$AAu?$AAn?$AAe?$AAx?$AAp?$AAe?$AAc?$AAt?$AAe?$AAd?$AA?5?$AAh?$AAe?$AAa?$AAp?$AA?5?$AAe?$AAr?$AAr?$AAo?$AAr?$AA?$AN?$AA?6@ 0046e728     LIBCMTD:crt0msg.obj
 0002:00008770       ??_C@_1FK@BEOGODMC@?$AAR?$AA6?$AA0?$AA1?$AA7?$AA?$AN?$AA?6?$AA?9?$AA?5?$AAu?$AAn?$AAe?$AAx?$AAp?$AAe?$AAc?$AAt?$AAe?$AAd?$AA?5?$AAm?$AAu?$AAl?$AAt?$AAi?$AAt?$AAh?$AAr?$AAe?$AAa?$AAd?$AA?5@ 0046e770     LIBCMTD:crt0msg.obj
 0002:000087d0       ??_C@_1FI@LOGNIKDM@?$AAR?$AA6?$AA0?$AA1?$AA6?$AA?$AN?$AA?6?$AA?9?$AA?5?$AAn?$AAo?$AAt?$AA?5?$AAe?$AAn?$AAo?$AAu?$AAg?$AAh?$AA?5?$AAs?$AAp?$AAa?$AAc?$AAe?$AA?5?$AAf?$AAo?$AAr?$AA?5?$AAt?$AAh@ 0046e7d0     LIBCMTD:crt0msg.obj
 0002:00008828       ??_C@_1EG@BEHAGFJD@?$AAR?$AA6?$AA0?$AA1?$AA0?$AA?$AN?$AA?6?$AA?9?$AA?5?$AAa?$AAb?$AAo?$AAr?$AAt?$AA?$CI?$AA?$CJ?$AA?5?$AAh?$AAa?$AAs?$AA?5?$AAb?$AAe?$AAe?$AAn?$AA?5?$AAc?$AAa?$AAl?$AAl?$AAe?$AAd@ 0046e828     LIBCMTD:crt0msg.obj
 0002:00008870       ??_C@_1FI@HONFMGBI@?$AAR?$AA6?$AA0?$AA0?$AA9?$AA?$AN?$AA?6?$AA?9?$AA?5?$AAn?$AAo?$AAt?$AA?5?$AAe?$AAn?$AAo?$AAu?$AAg?$AAh?$AA?5?$AAs?$AAp?$AAa?$AAc?$AAe?$AA?5?$AAf?$AAo?$AAr?$AA?5?$AAe?$AAn@ 0046e870     LIBCMTD:crt0msg.obj
 0002:000088c8       ??_C@_1FE@LLNEDJMD@?$AAR?$AA6?$AA0?$AA0?$AA8?$AA?$AN?$AA?6?$AA?9?$AA?5?$AAn?$AAo?$AAt?$AA?5?$AAe?$AAn?$AAo?$AAu?$AAg?$AAh?$AA?5?$AAs?$AAp?$AAa?$AAc?$AAe?$AA?5?$AAf?$AAo?$AAr?$AA?5?$AAa?$AAr@ 0046e8c8     LIBCMTD:crt0msg.obj
 0002:00008920       ??_C@_1FK@PGACCAFB@?$AAR?$AA6?$AA0?$AA0?$AA2?$AA?$AN?$AA?6?$AA?9?$AA?5?$AAf?$AAl?$AAo?$AAa?$AAt?$AAi?$AAn?$AAg?$AA?5?$AAp?$AAo?$AAi?$AAn?$AAt?$AA?5?$AAs?$AAu?$AAp?$AAp?$AAo?$AAr?$AAt?$AA?5@ 0046e920     LIBCMTD:crt0msg.obj
 0002:00008a30       ??_C@_1EK@MBDPDCGA@?$AAM?$AAi?$AAc?$AAr?$AAo?$AAs?$AAo?$AAf?$AAt?$AA?5?$AAV?$AAi?$AAs?$AAu?$AAa?$AAl?$AA?5?$AAC?$AA?$CL?$AA?$CL?$AA?5?$AAR?$AAu?$AAn?$AAt?$AAi?$AAm?$AAe?$AA?5?$AAL?$AAi?$AAb@ 0046ea30     LIBCMTD:crt0msg.obj
 0002:00008a80       ??_C@_1IG@NMONDPP@?$AAw?$AAc?$AAs?$AAc?$AAa?$AAt?$AA_?$AAs?$AA?$CI?$AAo?$AAu?$AAt?$AAm?$AAs?$AAg?$AA?0?$AA?5?$AA?$CI?$AAs?$AAi?$AAz?$AAe?$AAo?$AAf?$AA?$CI?$AAo?$AAu?$AAt?$AAm?$AAs?$AAg?$AA?$CJ@ 0046ea80     LIBCMTD:crt0msg.obj
 0002:00008b08       ??_C@_1IA@DCJGKHFO@?$AAw?$AAc?$AAs?$AAc?$AAa?$AAt?$AA_?$AAs?$AA?$CI?$AAo?$AAu?$AAt?$AAm?$AAs?$AAg?$AA?0?$AA?5?$AA?$CI?$AAs?$AAi?$AAz?$AAe?$AAo?$AAf?$AA?$CI?$AAo?$AAu?$AAt?$AAm?$AAs?$AAg?$AA?$CJ@ 0046eb08     LIBCMTD:crt0msg.obj
 0002:00008b88       ??_C@_1HI@FLHKGEBE@?$AAw?$AAc?$AAs?$AAn?$AAc?$AAp?$AAy?$AA_?$AAs?$AA?$CI?$AAp?$AAc?$AAh?$AA?0?$AA?5?$AAp?$AAr?$AAo?$AAg?$AAn?$AAa?$AAm?$AAe?$AA_?$AAs?$AAi?$AAz?$AAe?$AA?5?$AA?9?$AA?5?$AA?$CI@ 0046eb88     LIBCMTD:crt0msg.obj
 0002:00008c00       ??_C@_1HK@FJJNAABO@?$AAw?$AAc?$AAs?$AAc?$AAp?$AAy?$AA_?$AAs?$AA?$CI?$AAp?$AAr?$AAo?$AAg?$AAn?$AAa?$AAm?$AAe?$AA?0?$AA?5?$AAp?$AAr?$AAo?$AAg?$AAn?$AAa?$AAm?$AAe?$AA_?$AAs?$AAi?$AAz?$AAe@ 0046ec00     LIBCMTD:crt0msg.obj
 0002:00008c7c       ??_C@_1DE@JNGNBFGO@?$AAR?$AAu?$AAn?$AAt?$AAi?$AAm?$AAe?$AA?5?$AAE?$AAr?$AAr?$AAo?$AAr?$AA?$CB?$AA?6?$AA?6?$AAP?$AAr?$AAo?$AAg?$AAr?$AAa?$AAm?$AA?3?$AA?5?$AA?$AA@ 0046ec7c     LIBCMTD:crt0msg.obj
 0002:00008cb0       ??_C@_1KO@BKLCKNFL@?$AAw?$AAc?$AAs?$AAc?$AAp?$AAy?$AA_?$AAs?$AA?$CI?$AAo?$AAu?$AAt?$AAm?$AAs?$AAg?$AA?0?$AA?5?$AA?$CI?$AAs?$AAi?$AAz?$AAe?$AAo?$AAf?$AA?$CI?$AAo?$AAu?$AAt?$AAm?$AAs?$AAg?$AA?$CJ@ 0046ecb0     LIBCMTD:crt0msg.obj
 0002:00008d60       ??_C@_1BI@EAHMBMEC@?$AA_?$AAN?$AAM?$AAS?$AAG?$AA_?$AAW?$AAR?$AAI?$AAT?$AAE?$AA?$AA@ 0046ed60     LIBCMTD:crt0msg.obj
 0002:00008d78       ??_C@_1GC@HKOJBOFF@?$AAf?$AA?3?$AA?2?$AAd?$AAd?$AA?2?$AAv?$AAc?$AAt?$AAo?$AAo?$AAl?$AAs?$AA?2?$AAc?$AAr?$AAt?$AA_?$AAb?$AAl?$AAd?$AA?2?$AAs?$AAe?$AAl?$AAf?$AA_?$AAx?$AA8?$AA6?$AA?2?$AAc@ 0046ed78     LIBCMTD:crt0msg.obj
 0002:00008de0       ??_C@_1GO@NGIGJNHH@?$AAs?$AAt?$AAr?$AAn?$AAc?$AAp?$AAy?$AA_?$AAs?$AA?$CI?$AA?$CK?$AAs?$AAt?$AAr?$AAa?$AAd?$AAd?$AAr?$AAe?$AAs?$AAs?$AA?0?$AA?5?$AAo?$AAu?$AAt?$AAs?$AAi?$AAz?$AAe?$AA?0?$AA?5@ 0046ede0     LIBCMTD:inithelp.obj
 0002:00008e50       ??_C@_1CA@KHHCPEI@?$AA_?$AA_?$AAg?$AAe?$AAt?$AAl?$AAo?$AAc?$AAa?$AAl?$AAe?$AAi?$AAn?$AAf?$AAo?$AA?$AA@ 0046ee50     LIBCMTD:inithelp.obj
 0002:00008e70       ??_C@_1GE@PLPIMDHG@?$AAf?$AA?3?$AA?2?$AAd?$AAd?$AA?2?$AAv?$AAc?$AAt?$AAo?$AAo?$AAl?$AAs?$AA?2?$AAc?$AAr?$AAt?$AA_?$AAb?$AAl?$AAd?$AA?2?$AAs?$AAe?$AAl?$AAf?$AA_?$AAx?$AA8?$AA6?$AA?2?$AAc@ 0046ee70     LIBCMTD:inithelp.obj
 0002:00008ed4       ??_C@_0DC@CFDMMFIG@f?3?2dd?2vctools?2crt_bld?2self_x86?2c@ 0046eed4     LIBCMTD:inithelp.obj
 0002:00008f08       ??_C@_1NK@LOFHIHFC@?$AAf?$AAM?$AAo?$AAd?$AAe?$AA?5?$AA?$DN?$AA?$DN?$AA?5?$AA_?$AAC?$AAR?$AAT?$AAD?$AAB?$AAG?$AA_?$AAR?$AAE?$AAP?$AAO?$AAR?$AAT?$AA_?$AAM?$AAO?$AAD?$AAE?$AA?5?$AA?$HM?$AA?$HM?$AA?5@ 0046ef08     LIBCMTD:dbgrptt.obj
 0002:00008fe4       ??_C@_1CE@FIHIECNJ@?$AA_?$AAC?$AAr?$AAt?$AAS?$AAe?$AAt?$AAR?$AAe?$AAp?$AAo?$AAr?$AAt?$AAM?$AAo?$AAd?$AAe?$AA?$AA@ 0046efe4     LIBCMTD:dbgrptt.obj
 0002:00009008       ??_C@_1GC@FIGJJMEN@?$AAf?$AA?3?$AA?2?$AAd?$AAd?$AA?2?$AAv?$AAc?$AAt?$AAo?$AAo?$AAl?$AAs?$AA?2?$AAc?$AAr?$AAt?$AA_?$AAb?$AAl?$AAd?$AA?2?$AAs?$AAe?$AAl?$AAf?$AA_?$AAx?$AA8?$AA6?$AA?2?$AAc@ 0046f008     LIBCMTD:dbgrptt.obj
 0002:00009070       ??_C@_1FA@IFFFOLDJ@?$AAn?$AAR?$AAp?$AAt?$AAT?$AAy?$AAp?$AAe?$AA?5?$AA?$DO?$AA?$DN?$AA?5?$AA0?$AA?5?$AA?$CG?$AA?$CG?$AA?5?$AAn?$AAR?$AAp?$AAt?$AAT?$AAy?$AAp?$AAe?$AA?5?$AA?$DM?$AA?5?$AA_?$AAC?$AAR?$AAT@ 0046f070     LIBCMTD:dbgrptt.obj
 0002:000090c0       ??_C@_1CE@IKKEDCME@?$AA_?$AAC?$AAr?$AAt?$AAS?$AAe?$AAt?$AAR?$AAe?$AAp?$AAo?$AAr?$AAt?$AAF?$AAi?$AAl?$AAe?$AA?$AA@ 0046f0c0     LIBCMTD:dbgrptt.obj
 0002:000090e8       ??_C@_1HO@PJOFIKFE@?$AA_?$AAC?$AAr?$AAt?$AAD?$AAb?$AAg?$AAR?$AAe?$AAp?$AAo?$AAr?$AAt?$AA?3?$AA?5?$AAS?$AAt?$AAr?$AAi?$AAn?$AAg?$AA?5?$AAt?$AAo?$AAo?$AA?5?$AAl?$AAo?$AAn?$AAg?$AA?5?$AAo@ 0046f0e8     LIBCMTD:dbgrptt.obj
 0002:00009168       ??_C@_1MC@IGEECMDB@?$AAw?$AAc?$AAs?$AAc?$AAp?$AAy?$AA_?$AAs?$AA?$CI?$AAs?$AAz?$AAO?$AAu?$AAt?$AAM?$AAe?$AAs?$AAs?$AAa?$AAg?$AAe?$AA2?$AA?0?$AA?5?$AA4?$AA0?$AA9?$AA6?$AA?0?$AA?5?$AAL?$AA?$CC@ 0046f168     LIBCMTD:dbgrptt.obj
 0002:00009230       ??_C@_1IM@OOKIFKOH@?$AAe?$AA?5?$AA?$DN?$AA?5?$AAm?$AAb?$AAs?$AAt?$AAo?$AAw?$AAc?$AAs?$AA_?$AAs?$AA?$CI?$AA?$CG?$AAr?$AAe?$AAt?$AA?0?$AA?5?$AAs?$AAz?$AAO?$AAu?$AAt?$AAM?$AAe?$AAs?$AAs?$AAa?$AAg@ 0046f230     LIBCMTD:dbgrptt.obj
 0002:000092c0       ??_C@_1FI@IBIOIHEG@?$AAs?$AAt?$AAr?$AAc?$AAp?$AAy?$AA_?$AAs?$AA?$CI?$AAs?$AAz?$AAO?$AAu?$AAt?$AAM?$AAe?$AAs?$AAs?$AAa?$AAg?$AAe?$AA?0?$AA?5?$AA4?$AA0?$AA9?$AA6?$AA?0?$AA?5?$AAs?$AAz?$AAL@ 0046f2c0     LIBCMTD:dbgrptt.obj
 0002:00009318       ??_C@_1JG@CPKCIOEE@?$AAs?$AAt?$AAr?$AAc?$AAp?$AAy?$AA_?$AAs?$AA?$CI?$AAs?$AAz?$AAO?$AAu?$AAt?$AAM?$AAe?$AAs?$AAs?$AAa?$AAg?$AAe?$AA?0?$AA?5?$AA4?$AA0?$AA9?$AA6?$AA?0?$AA?5?$AA?$CC?$AA_?$AAC@ 0046f318     LIBCMTD:dbgrptt.obj
 0002:000093b0       ??_C@_0M@IPILFDFN@?$CFs?$CI?$CFd?$CJ?5?3?5?$CFs?$AA@ 0046f3b0     LIBCMTD:dbgrptt.obj
 0002:000093c0       ??_C@_1EI@LDHJEDO@?$AAs?$AAt?$AAr?$AAc?$AAa?$AAt?$AA_?$AAs?$AA?$CI?$AAs?$AAz?$AAL?$AAi?$AAn?$AAe?$AAM?$AAe?$AAs?$AAs?$AAa?$AAg?$AAe?$AA?0?$AA?5?$AA4?$AA0?$AA9?$AA6?$AA?0?$AA?5?$AA?$CC?$AA?2@ 0046f3c0     LIBCMTD:dbgrptt.obj
 0002:00009408       ??_C@_01LIIJDEN@?$AN?$AA@  0046f408     LIBCMTD:dbgrptt.obj
 0002:00009410       ??_C@_1EI@CACDLAFK@?$AAs?$AAt?$AAr?$AAc?$AAa?$AAt?$AA_?$AAs?$AA?$CI?$AAs?$AAz?$AAL?$AAi?$AAn?$AAe?$AAM?$AAe?$AAs?$AAs?$AAa?$AAg?$AAe?$AA?0?$AA?5?$AA4?$AA0?$AA9?$AA6?$AA?0?$AA?5?$AA?$CC?$AA?2@ 0046f410     LIBCMTD:dbgrptt.obj
 0002:00009458       ??_C@_1FK@NPGBPOFO@?$AAs?$AAt?$AAr?$AAc?$AAa?$AAt?$AA_?$AAs?$AA?$CI?$AAs?$AAz?$AAL?$AAi?$AAn?$AAe?$AAM?$AAe?$AAs?$AAs?$AAa?$AAg?$AAe?$AA?0?$AA?5?$AA4?$AA0?$AA9?$AA6?$AA?0?$AA?5?$AAs?$AAz@ 0046f458     LIBCMTD:dbgrptt.obj
 0002:000094b8       ??_C@_1KK@GIGAEDMO@?$AAs?$AAt?$AAr?$AAc?$AAp?$AAy?$AA_?$AAs?$AA?$CI?$AAs?$AAz?$AAL?$AAi?$AAn?$AAe?$AAM?$AAe?$AAs?$AAs?$AAa?$AAg?$AAe?$AA?0?$AA?5?$AA4?$AA0?$AA9?$AA6?$AA?0?$AA?5?$AAs?$AAz@ 0046f4b8     LIBCMTD:dbgrptt.obj
 0002:00009564       ??_C@_0BC@LAIDCHCH@Assertion?5failed?$CB?$AA@ 0046f564     LIBCMTD:dbgrptt.obj
 0002:00009578       ??_C@_0BD@CAENFOHP@Assertion?5failed?3?5?$AA@ 0046f578     LIBCMTD:dbgrptt.obj
 0002:0000958c       ??_C@_0CL@EACFGMNB@_CrtDbgReport?3?5String?5too?5long?5o@ 0046f58c     LIBCMTD:dbgrptt.obj
 0002:000095b8       ??_C@_1JI@GAALPGBM@?$AAs?$AAt?$AAr?$AAc?$AAp?$AAy?$AA_?$AAs?$AA?$CI?$AAs?$AAz?$AAU?$AAs?$AAe?$AAr?$AAM?$AAe?$AAs?$AAs?$AAa?$AAg?$AAe?$AA?0?$AA?5?$AA4?$AA0?$AA9?$AA6?$AA?0?$AA?5?$AA?$CC?$AA_@ 0046f5b8     LIBCMTD:dbgrptt.obj
 0002:00009650       ??_C@_07BHGABMGB@?0?5Line?5?$AA@ 0046f650     LIBCMTD:dbgrptt.obj
 0002:00009658       ??_C@_0P@DFJNDPOP@?$DMfile?5unknown?$DO?$AA@ 0046f658     LIBCMTD:dbgrptt.obj
 0002:00009668       ??_C@_0CG@BNGLOCEO@Second?5Chance?5Assertion?5Failed?3?5@ 0046f668     LIBCMTD:dbgrptt.obj
 0002:00009690       ??_C@_1FA@JPHJBHEM@?$AA_?$AAi?$AAt?$AAo?$AAa?$AA_?$AAs?$AA?$CI?$AAn?$AAL?$AAi?$AAn?$AAe?$AA?0?$AA?5?$AAs?$AAz?$AAL?$AAi?$AAn?$AAe?$AAM?$AAe?$AAs?$AAs?$AAa?$AAg?$AAe?$AA?0?$AA?5?$AA4?$AA0@ 0046f690     LIBCMTD:dbgrptt.obj
 0002:000096e0       ??_C@_1CA@KHJHLKA@?$AA_?$AAV?$AAC?$AAr?$AAt?$AAD?$AAb?$AAg?$AAR?$AAe?$AAp?$AAo?$AAr?$AAt?$AAA?$AA?$AA@ 0046f6e0     LIBCMTD:dbgrptt.obj
 0002:00009700       ??_C@_1IE@CPGKIAGP@?$AAw?$AAc?$AAs?$AAt?$AAo?$AAm?$AAb?$AAs?$AA_?$AAs?$AA?$CI?$AA?$CG?$AAr?$AAe?$AAt?$AA?0?$AA?5?$AAs?$AAz?$AAa?$AAO?$AAu?$AAt?$AAM?$AAe?$AAs?$AAs?$AAa?$AAg?$AAe?$AA?0?$AA?5@ 0046f700     LIBCMTD:dbgrptt.obj
 0002:00009784       ??_C@_0DP@GNPEPHJD@_CrtDbgReport?3?5String?5too?5long?5o@ 0046f784     LIBCMTD:dbgrptt.obj
 0002:000097c8       ??_C@_1MA@LBAMNNOB@?$AAs?$AAt?$AAr?$AAc?$AAp?$AAy?$AA_?$AAs?$AA?$CI?$AAs?$AAz?$AAO?$AAu?$AAt?$AAM?$AAe?$AAs?$AAs?$AAa?$AAg?$AAe?$AA2?$AA?0?$AA?5?$AA4?$AA0?$AA9?$AA6?$AA?0?$AA?5?$AA?$CC?$AA_@ 0046f7c8     LIBCMTD:dbgrptt.obj
 0002:00009888       ??_C@_1JC@EOAPFDLN@?$AAw?$AAc?$AAs?$AAt?$AAo?$AAm?$AAb?$AAs?$AA_?$AAs?$AA?$CI?$AA?$CI?$AA?$CI?$AAv?$AAo?$AAi?$AAd?$AA?5?$AA?$CK?$AA?$CJ?$AA0?$AA?$CJ?$AA?0?$AA?5?$AAs?$AAz?$AAO?$AAu?$AAt?$AAM?$AAe?$AAs@ 0046f888     LIBCMTD:dbgrptt.obj
 0002:00009920       ??_C@_1FI@DBAIJPJE@?$AAw?$AAc?$AAs?$AAc?$AAp?$AAy?$AA_?$AAs?$AA?$CI?$AAs?$AAz?$AAO?$AAu?$AAt?$AAM?$AAe?$AAs?$AAs?$AAa?$AAg?$AAe?$AA?0?$AA?5?$AA4?$AA0?$AA9?$AA6?$AA?0?$AA?5?$AAs?$AAz?$AAL@ 0046f920     LIBCMTD:dbgrptt.obj
 0002:00009978       ??_C@_1BI@JIDBEPIG@?$AA?$CF?$AAs?$AA?$CI?$AA?$CF?$AAd?$AA?$CJ?$AA?5?$AA?3?$AA?5?$AA?$CF?$AAs?$AA?$AA@ 0046f978     LIBCMTD:dbgrptt.obj
 0002:00009990       ??_C@_1EK@PHCBEDKB@?$AAw?$AAc?$AAs?$AAc?$AAa?$AAt?$AA_?$AAs?$AA?$CI?$AAs?$AAz?$AAL?$AAi?$AAn?$AAe?$AAM?$AAe?$AAs?$AAs?$AAa?$AAg?$AAe?$AA?0?$AA?5?$AA4?$AA0?$AA9?$AA6?$AA?0?$AA?5?$AAL?$AA?$CC@ 0046f990     LIBCMTD:dbgrptt.obj
 0002:000099dc       ??_C@_13CMNBPIDO@?$AA?$AN?$AA?$AA@ 0046f9dc     LIBCMTD:dbgrptt.obj
 0002:000099e0       ??_C@_1EK@NMDFGHMF@?$AAw?$AAc?$AAs?$AAc?$AAa?$AAt?$AA_?$AAs?$AA?$CI?$AAs?$AAz?$AAL?$AAi?$AAn?$AAe?$AAM?$AAe?$AAs?$AAs?$AAa?$AAg?$AAe?$AA?0?$AA?5?$AA4?$AA0?$AA9?$AA6?$AA?0?$AA?5?$AAL?$AA?$CC@ 0046f9e0     LIBCMTD:dbgrptt.obj
 0002:00009a30       ??_C@_1FK@HPADHBBD@?$AAw?$AAc?$AAs?$AAc?$AAa?$AAt?$AA_?$AAs?$AA?$CI?$AAs?$AAz?$AAL?$AAi?$AAn?$AAe?$AAM?$AAe?$AAs?$AAs?$AAa?$AAg?$AAe?$AA?0?$AA?5?$AA4?$AA0?$AA9?$AA6?$AA?0?$AA?5?$AAs?$AAz@ 0046fa30     LIBCMTD:dbgrptt.obj
 0002:00009a90       ??_C@_1KO@DGAHENCH@?$AAw?$AAc?$AAs?$AAc?$AAp?$AAy?$AA_?$AAs?$AA?$CI?$AAs?$AAz?$AAL?$AAi?$AAn?$AAe?$AAM?$AAe?$AAs?$AAs?$AAa?$AAg?$AAe?$AA?0?$AA?5?$AA4?$AA0?$AA9?$AA6?$AA?0?$AA?5?$AAs?$AAz@ 0046fa90     LIBCMTD:dbgrptt.obj
 0002:00009b40       ??_C@_1CE@OJBNHDMO@?$AAA?$AAs?$AAs?$AAe?$AAr?$AAt?$AAi?$AAo?$AAn?$AA?5?$AAf?$AAa?$AAi?$AAl?$AAe?$AAd?$AA?$CB?$AA?$AA@ 0046fb40     LIBCMTD:dbgrptt.obj
 0002:00009b64       ??_C@_1CG@FFFGGODN@?$AAA?$AAs?$AAs?$AAe?$AAr?$AAt?$AAi?$AAo?$AAn?$AA?5?$AAf?$AAa?$AAi?$AAl?$AAe?$AAd?$AA?3?$AA?5?$AA?$AA@ 0046fb64     LIBCMTD:dbgrptt.obj
 0002:00009b90       ??_C@_1JK@KHFABAEO@?$AAw?$AAc?$AAs?$AAc?$AAp?$AAy?$AA_?$AAs?$AA?$CI?$AAs?$AAz?$AAU?$AAs?$AAe?$AAr?$AAM?$AAe?$AAs?$AAs?$AAa?$AAg?$AAe?$AA?0?$AA?5?$AA4?$AA0?$AA9?$AA6?$AA?0?$AA?5?$AAL?$AA?$CC@ 0046fb90     LIBCMTD:dbgrptt.obj
 0002:00009c2c       ??_C@_13LBAGMAIH@?$AA?6?$AA?$AA@ 0046fc2c     LIBCMTD:dbgrptt.obj
 0002:00009c30       ??_C@_1BA@ELMMDCFC@?$AA?0?$AA?5?$AAL?$AAi?$AAn?$AAe?$AA?5?$AA?$AA@ 0046fc30     LIBCMTD:dbgrptt.obj
 0002:00009c40       ??_C@_1BO@OCHMLCAG@?$AA?$DM?$AAf?$AAi?$AAl?$AAe?$AA?5?$AAu?$AAn?$AAk?$AAn?$AAo?$AAw?$AAn?$AA?$DO?$AA?$AA@ 0046fc40     LIBCMTD:dbgrptt.obj
 0002:00009c60       ??_C@_1EM@MJFLEDMB@?$AAS?$AAe?$AAc?$AAo?$AAn?$AAd?$AA?5?$AAC?$AAh?$AAa?$AAn?$AAc?$AAe?$AA?5?$AAA?$AAs?$AAs?$AAe?$AAr?$AAt?$AAi?$AAo?$AAn?$AA?5?$AAF?$AAa?$AAi?$AAl?$AAe?$AAd?$AA?3?$AA?5@ 0046fc60     LIBCMTD:dbgrptt.obj
 0002:00009cb0       ??_C@_1FA@CNLLOMHI@?$AA_?$AAi?$AAt?$AAo?$AAw?$AA_?$AAs?$AA?$CI?$AAn?$AAL?$AAi?$AAn?$AAe?$AA?0?$AA?5?$AAs?$AAz?$AAL?$AAi?$AAn?$AAe?$AAM?$AAe?$AAs?$AAs?$AAa?$AAg?$AAe?$AA?0?$AA?5?$AA4?$AA0@ 0046fcb0     LIBCMTD:dbgrptt.obj
 0002:00009d00       ??_C@_1CA@HPALHDOD@?$AA_?$AAV?$AAC?$AAr?$AAt?$AAD?$AAb?$AAg?$AAR?$AAe?$AAp?$AAo?$AAr?$AAt?$AAW?$AA?$AA@ 0046fd00     LIBCMTD:dbgrptt.obj
 0002:00009d20       ??_C@_1O@EJLDHPPL@?$AAs?$AAi?$AAg?$AAn?$AAa?$AAl?$AA?$AA@ 0046fd20     LIBCMTD:winsig.obj
 0002:00009d30       ??_C@_1GA@DBECNFG@?$AAf?$AA?3?$AA?2?$AAd?$AAd?$AA?2?$AAv?$AAc?$AAt?$AAo?$AAo?$AAl?$AAs?$AA?2?$AAc?$AAr?$AAt?$AA_?$AAb?$AAl?$AAd?$AA?2?$AAs?$AAe?$AAl?$AAf?$AA_?$AAx?$AA8?$AA6?$AA?2?$AAc@ 0046fd30     LIBCMTD:winsig.obj
 0002:00009d90       ??_C@_1DO@MLNEDKGB@?$AA?$CI?$AA?$CC?$AAI?$AAn?$AAv?$AAa?$AAl?$AAi?$AAd?$AA?5?$AAs?$AAi?$AAg?$AAn?$AAa?$AAl?$AA?5?$AAo?$AAr?$AA?5?$AAe?$AAr?$AAr?$AAo?$AAr?$AA?$CC?$AA?0?$AA?5?$AA0?$AA?$CJ?$AA?$AA@ 0046fd90     LIBCMTD:winsig.obj
 0002:00009dd0       ??_C@_0DA@ELJOOIJF@f?3?2dd?2vctools?2crt_bld?2self_x86?2c@ 0046fdd0     LIBCMTD:winsig.obj
 0002:00009e00       ??_C@_1M@DMJEIKHL@?$AAr?$AAa?$AAi?$AAs?$AAe?$AA?$AA@ 0046fe00     LIBCMTD:winsig.obj
 0002:00009e0c       ??_C@_0BI@DFKBFLJE@GetProcessWindowStation?$AA@ 0046fe0c     LIBCMTD:crtmboxw.obj
 0002:00009e24       ??_C@_0BK@DEKFELLI@GetUserObjectInformationW?$AA@ 0046fe24     LIBCMTD:crtmboxw.obj
 0002:00009e40       ??_C@_0BD@HHGDFDBJ@GetLastActivePopup?$AA@ 0046fe40     LIBCMTD:crtmboxw.obj
 0002:00009e54       ??_C@_0BA@HNOPNCHB@GetActiveWindow?$AA@ 0046fe54     LIBCMTD:crtmboxw.obj
 0002:00009e64       ??_C@_0M@DLDCCGNP@MessageBoxW?$AA@ 0046fe64     LIBCMTD:crtmboxw.obj
 0002:00009e70       ??_C@_1BG@GOEBHBDC@?$AAU?$AAS?$AAE?$AAR?$AA3?$AA2?$AA?4?$AAD?$AAL?$AAL?$AA?$AA@ 0046fe70     LIBCMTD:crtmboxw.obj
 0002:00009e88       ??_C@_1BE@BMIJMLDD@?$AA_?$AAs?$AAw?$AAp?$AAr?$AAi?$AAn?$AAt?$AAf?$AA?$AA@ 0046fe88     LIBCMTD:swprintf.obj
 0002:00009ea0       ??_C@_1GE@DKGHLBLP@?$AAf?$AA?3?$AA?2?$AAd?$AAd?$AA?2?$AAv?$AAc?$AAt?$AAo?$AAo?$AAl?$AAs?$AA?2?$AAc?$AAr?$AAt?$AA_?$AAb?$AAl?$AAd?$AA?2?$AAs?$AAe?$AAl?$AAf?$AA_?$AAx?$AA8?$AA6?$AA?2?$AAc@ 0046fea0     LIBCMTD:swprintf.obj
 0002:00009f04       ??_C@_1CK@DDKKOLAN@?$AAs?$AAi?$AAz?$AAe?$AAI?$AAn?$AAB?$AAy?$AAt?$AAe?$AAs?$AA?5?$AA?$DO?$AA?$DN?$AA?5?$AAc?$AAo?$AAu?$AAn?$AAt?$AA?$AA@ 0046ff04     LIBCMTD:memcpy_s.obj
 0002:00009f30       ??_C@_1BC@GKHDJMGB@?$AAm?$AAe?$AAm?$AAc?$AAp?$AAy?$AA_?$AAs?$AA?$AA@ 0046ff30     LIBCMTD:memcpy_s.obj
 0002:00009f48       ??_C@_1GE@NEOPGGBM@?$AAf?$AA?3?$AA?2?$AAd?$AAd?$AA?2?$AAv?$AAc?$AAt?$AAo?$AAo?$AAl?$AAs?$AA?2?$AAc?$AAr?$AAt?$AA_?$AAb?$AAl?$AAd?$AA?2?$AAs?$AAe?$AAl?$AAf?$AA_?$AAx?$AA8?$AA6?$AA?2?$AAc@ 0046ff48     LIBCMTD:memcpy_s.obj
 0002:00009fac       ??_C@_1BC@KIONAFPO@?$AAw?$AAc?$AAs?$AAc?$AAp?$AAy?$AA_?$AAs?$AA?$AA@ 0046ffac     LIBCMTD:wcscpy_s.obj
 0002:00009fc0       ??_C@_1FC@PFMLEHKI@?$AA?$CI?$AA?$CI?$AA_?$AAD?$AAs?$AAt?$AA?$CJ?$AA?$CJ?$AA?5?$AA?$CB?$AA?$DN?$AA?5?$AAN?$AAU?$AAL?$AAL?$AA?5?$AA?$CG?$AA?$CG?$AA?5?$AA?$CI?$AA?$CI?$AA_?$AAS?$AAi?$AAz?$AAe?$AAI?$AAn?$AAW?$AAo?$AAr@ 0046ffc0     LIBCMTD:wcscpy_s.obj
 0002:0000a018       ??_C@_1FE@CEHLKAHD@?$AAi?$AAb?$AAa?$AAs?$AAe?$AA?5?$AA?$DN?$AA?$DN?$AA?5?$AA0?$AA?5?$AA?$HM?$AA?$HM?$AA?5?$AA?$CI?$AA2?$AA?5?$AA?$DM?$AA?$DN?$AA?5?$AAi?$AAb?$AAa?$AAs?$AAe?$AA?5?$AA?$CG?$AA?$CG?$AA?5?$AAi?$AAb?$AAa@ 00470018     LIBCMTD:strtol.obj
 0002:0000a06c       ??_C@_1BA@LOLAMAJG@?$AAs?$AAt?$AAr?$AAt?$AAo?$AAx?$AAl?$AA?$AA@ 0047006c     LIBCMTD:strtol.obj
 0002:0000a080       ??_C@_1GA@IPHKKOEI@?$AAf?$AA?3?$AA?2?$AAd?$AAd?$AA?2?$AAv?$AAc?$AAt?$AAo?$AAo?$AAl?$AAs?$AA?2?$AAc?$AAr?$AAt?$AA_?$AAb?$AAl?$AAd?$AA?2?$AAs?$AAe?$AAl?$AAf?$AA_?$AAx?$AA8?$AA6?$AA?2?$AAc@ 00470080     LIBCMTD:strtol.obj
 0002:0000a0e0       ??_C@_1BK@LAOAACLJ@?$AAn?$AAp?$AAt?$AAr?$AA?5?$AA?$CB?$AA?$DN?$AA?5?$AAN?$AAU?$AAL?$AAL?$AA?$AA@ 004700e0     LIBCMTD:strtol.obj
 0002:0000a0fc       ??_C@_1BA@BMMDEPNE@?$AAs?$AAt?$AAr?$AAt?$AAo?$AAx?$AAq?$AA?$AA@ 004700fc     LIBCMTD:strtoq.obj
 0002:0000a110       ??_C@_1GA@GIMEIKLC@?$AAf?$AA?3?$AA?2?$AAd?$AAd?$AA?2?$AAv?$AAc?$AAt?$AAo?$AAo?$AAl?$AAs?$AA?2?$AAc?$AAr?$AAt?$AA_?$AAb?$AAl?$AAd?$AA?2?$AAs?$AAe?$AAl?$AAf?$AA_?$AAx?$AA8?$AA6?$AA?2?$AAc@ 00470110     LIBCMTD:strtoq.obj
 0002:0000a170       __XcptActTab               00470170     LIBCMTD:winxfltr.obj
 0002:0000a200       __First_FPE_Indx           00470200     LIBCMTD:winxfltr.obj
 0002:0000a204       __Num_FPE                  00470204     LIBCMTD:winxfltr.obj
 0002:0000a208       __XcptActTabSize           00470208     LIBCMTD:winxfltr.obj
 0002:0000a20c       __XcptActTabCount          0047020c     LIBCMTD:winxfltr.obj
 0002:0000a210       ??_C@_1DE@MMOGFGHF@?$AAs?$AAt?$AAr?$AAc?$AAp?$AAy?$AA_?$AAs?$AA?$CI?$AA?$CK?$AAe?$AAn?$AAv?$AA?0?$AA?5?$AAc?$AAc?$AAh?$AAa?$AAr?$AAs?$AA?0?$AA?5?$AAp?$AA?$CJ?$AA?$AA@ 00470210     LIBCMTD:stdenvp.obj
 0002:0000a244       ??_C@_1BC@GHMCNHHL@?$AA_?$AAs?$AAe?$AAt?$AAe?$AAn?$AAv?$AAp?$AA?$AA@ 00470244     LIBCMTD:stdenvp.obj
 0002:0000a258       ??_C@_1GC@DGBFLDBN@?$AAf?$AA?3?$AA?2?$AAd?$AAd?$AA?2?$AAv?$AAc?$AAt?$AAo?$AAo?$AAl?$AAs?$AA?2?$AAc?$AAr?$AAt?$AA_?$AAb?$AAl?$AAd?$AA?2?$AAs?$AAe?$AAl?$AAf?$AA_?$AAx?$AA8?$AA6?$AA?2?$AAc@ 00470258     LIBCMTD:stdenvp.obj
 0002:0000a2bc       ??_C@_0DB@BMEBJJKP@f?3?2dd?2vctools?2crt_bld?2self_x86?2c@ 004702bc     LIBCMTD:stdenvp.obj
 0002:0000a2f0       ??_C@_0DB@OEPBJOLC@f?3?2dd?2vctools?2crt_bld?2self_x86?2c@ 004702f0     LIBCMTD:stdargv.obj
 0002:0000a324       ??_C@_0CP@PPLBCJDN@f?3?2dd?2vctools?2crt_bld?2self_x86?2c@ 00470324     LIBCMTD:a_env.obj
 0002:0000a358       ??_C@_1GE@JDDMFOID@?$AAf?$AA?3?$AA?2?$AAd?$AAd?$AA?2?$AAv?$AAc?$AAt?$AAo?$AAo?$AAl?$AAs?$AA?2?$AAc?$AAr?$AAt?$AA_?$AAb?$AAl?$AAd?$AA?2?$AAs?$AAe?$AAl?$AAf?$AA_?$AAx?$AA8?$AA6?$AA?2?$AAc@ 00470358     LIBCMTD:heapinit.obj
 0002:0000a3bc       ??_C@_1BC@DENNNKIM@?$AA_?$AAc?$AAr?$AAt?$AAh?$AAe?$AAa?$AAp?$AA?$AA@ 004703bc     LIBCMTD:heapinit.obj
 0002:0000a3ec       ??_C@_01KDCPPGHE@r?$AA@    004703ec     LIBCMTD:_pdblkup_.obj
 0002:0000a3f0       ??_C@_0BB@KCIACLNC@PDBOpenValidate5?$AA@ 004703f0     LIBCMTD:_pdblkup_.obj
 0002:0000a404       ??_C@_1CK@HHHCOJPD@?$AAE?$AAn?$AAv?$AAi?$AAr?$AAo?$AAn?$AAm?$AAe?$AAn?$AAt?$AAD?$AAi?$AAr?$AAe?$AAc?$AAt?$AAo?$AAr?$AAy?$AA?$AA@ 00470404     LIBCMTD:_pdblkup_.obj
 0002:0000a430       ??_C@_1FM@DNCABAP@?$AAS?$AAO?$AAF?$AAT?$AAW?$AAA?$AAR?$AAE?$AA?2?$AAM?$AAi?$AAc?$AAr?$AAo?$AAs?$AAo?$AAf?$AAt?$AA?2?$AAV?$AAi?$AAs?$AAu?$AAa?$AAl?$AAS?$AAt?$AAu?$AAd?$AAi?$AAo?$AA?2@ 00470430     LIBCMTD:_pdblkup_.obj
 0002:0000a48c       ??_C@_0M@HLOHPNFA@RegCloseKey?$AA@ 0047048c     LIBCMTD:_pdblkup_.obj
 0002:0000a498       ??_C@_0BB@GLNAEDBD@RegQueryValueExW?$AA@ 00470498     LIBCMTD:_pdblkup_.obj
 0002:0000a4ac       ??_C@_0O@COHOBMLB@RegOpenKeyExW?$AA@ 004704ac     LIBCMTD:_pdblkup_.obj
 0002:0000a4bc       ??_C@_1BK@GAEMIDIL@?$AAA?$AAD?$AAV?$AAA?$AAP?$AAI?$AA3?$AA2?$AA?4?$AAD?$AAL?$AAL?$AA?$AA@ 004704bc     LIBCMTD:_pdblkup_.obj
 0002:0000a4d8       ??_C@_03KHICJKCI@?4?4?4?$AA@ 004704d8     LIBCMTD:dbgrpt.obj
 0002:0000a4dc       ??_C@_0BB@NAGLCMLI@Assertion?5Failed?$AA@ 004704dc     LIBCMTD:dbgrpt.obj
 0002:0000a4f0       ??_C@_05NAOIJFC@Error?$AA@ 004704f0     LIBCMTD:dbgrpt.obj
 0002:0000a4f8       ??_C@_07KGMMFLDN@Warning?$AA@ 004704f8     LIBCMTD:dbgrpt.obj
 0002:0000a50c       ??_C@_1CG@GNMJDMIO@?$AA_?$AAC?$AAr?$AAt?$AAS?$AAe?$AAt?$AAR?$AAe?$AAp?$AAo?$AAr?$AAt?$AAH?$AAo?$AAo?$AAk?$AA2?$AA?$AA@ 0047050c     LIBCMTD:dbgrpt.obj
 0002:0000a534       ??_C@_0CD@EBCGLDDL@Microsoft?5Visual?5C?$CL?$CL?5Debug?5Libra@ 00470534     LIBCMTD:dbgrpt.obj
 0002:0000a558       ??_C@_0FF@CCONDJCB@Debug?5?$CFs?$CB?6?6Program?3?5?$CFs?$CFs?$CFs?$CFs?$CFs?$CFs@ 00470558     LIBCMTD:dbgrpt.obj
 0002:0000a5b0       ??_C@_09OFBFHMBK@?6Module?3?5?$AA@ 004705b0     LIBCMTD:dbgrpt.obj
 0002:0000a5bc       ??_C@_07OPHPPLBG@?6File?3?5?$AA@ 004705bc     LIBCMTD:dbgrpt.obj
 0002:0000a5c4       ??_C@_07DBMPPHDI@?6Line?3?5?$AA@ 004705c4     LIBCMTD:dbgrpt.obj
 0002:0000a5cc       ??_C@_02PHMGELLB@?6?6?$AA@ 004705cc     LIBCMTD:dbgrpt.obj
 0002:0000a5d0       ??_C@_0N@MEECIJGN@Expression?3?5?$AA@ 004705d0     LIBCMTD:dbgrpt.obj
 0002:0000a5e0       ??_C@_0HD@GNBNFCCL@?6?6For?5information?5on?5how?5your?5pr@ 004705e0     LIBCMTD:dbgrpt.obj
 0002:0000a654       ??_C@_0BH@DNAGHKFM@?$DMprogram?5name?5unknown?$DO?$AA@ 00470654     LIBCMTD:dbgrpt.obj
 0002:0000a670       ??_C@_1GG@DLDHOIGE@?$AAs?$AAt?$AAr?$AAc?$AAp?$AAy?$AA_?$AAs?$AA?$CI?$AAs?$AAz?$AAE?$AAx?$AAe?$AAN?$AAa?$AAm?$AAe?$AA?0?$AA?5?$AA2?$AA6?$AA0?$AA?0?$AA?5?$AA?$CC?$AA?$DM?$AAp?$AAr?$AAo?$AAg?$AAr@ 00470670     LIBCMTD:dbgrpt.obj
 0002:0000a6d8       ??_C@_1CI@IDOKFLAJ@?$AA_?$AA_?$AAc?$AAr?$AAt?$AAM?$AAe?$AAs?$AAs?$AAa?$AAg?$AAe?$AAW?$AAi?$AAn?$AAd?$AAo?$AAw?$AAA?$AA?$AA@ 004706d8     LIBCMTD:dbgrpt.obj
 0002:0000a700       ??_C@_1BE@KHFBJMNM@?$AA_?$AAl?$AAs?$AAe?$AAe?$AAk?$AAi?$AA6?$AA4?$AA?$AA@ 00470700     LIBCMTD:lseeki64.obj
 0002:0000a718       ??_C@_1GE@MINKPNPH@?$AAf?$AA?3?$AA?2?$AAd?$AAd?$AA?2?$AAv?$AAc?$AAt?$AAo?$AAo?$AAl?$AAs?$AA?2?$AAc?$AAr?$AAt?$AA_?$AAb?$AAl?$AAd?$AA?2?$AAs?$AAe?$AAl?$AAf?$AA_?$AAx?$AA8?$AA6?$AA?2?$AAc@ 00470718     LIBCMTD:lseeki64.obj
 0002:0000a77c       ??_C@_0DB@JEHOCBEJ@f?3?2dd?2vctools?2crt_bld?2self_x86?2c@ 0047077c     LIBCMTD:_getbuf.obj
 0002:0000a7b0       ??_C@_1GC@DKMGNNCC@?$AAf?$AA?3?$AA?2?$AAd?$AAd?$AA?2?$AAv?$AAc?$AAt?$AAo?$AAo?$AAl?$AAs?$AA?2?$AAc?$AAr?$AAt?$AA_?$AAb?$AAl?$AAd?$AA?2?$AAs?$AAe?$AAl?$AAf?$AA_?$AAx?$AA8?$AA6?$AA?2?$AAc@ 004707b0     LIBCMTD:_getbuf.obj
 0002:0000a814       ??_C@_1BA@LEBDGIHM@?$AA_?$AAi?$AAs?$AAa?$AAt?$AAt?$AAy?$AA?$AA@ 00470814     LIBCMTD:isatty.obj
 0002:0000a828       ??_C@_1GA@LPGDJDEN@?$AAf?$AA?3?$AA?2?$AAd?$AAd?$AA?2?$AAv?$AAc?$AAt?$AAo?$AAo?$AAl?$AAs?$AA?2?$AAc?$AAr?$AAt?$AA_?$AAb?$AAl?$AAd?$AA?2?$AAs?$AAe?$AAl?$AAf?$AA_?$AAx?$AA8?$AA6?$AA?2?$AAc@ 00470828     LIBCMTD:isatty.obj
 0002:0000a888       ??_C@_1O@GKDHFACN@?$AAp?$AAr?$AAi?$AAn?$AAt?$AAf?$AA?$AA@ 00470888     LIBCMTD:printf.obj
 0002:0000a898       ??_C@_1GA@LHEGHOAF@?$AAf?$AA?3?$AA?2?$AAd?$AAd?$AA?2?$AAv?$AAc?$AAt?$AAo?$AAo?$AAl?$AAs?$AA?2?$AAc?$AAr?$AAt?$AA_?$AAb?$AAl?$AAd?$AA?2?$AAs?$AAe?$AAl?$AAf?$AA_?$AAx?$AA8?$AA6?$AA?2?$AAc@ 00470898     LIBCMTD:printf.obj
 0002:0000a8f8       ??_C@_1CA@CBMNPEO@?$AAs?$AAi?$AAz?$AAe?$AAI?$AAn?$AAB?$AAy?$AAt?$AAe?$AAs?$AA?5?$AA?$DO?$AA?5?$AA0?$AA?$AA@ 004708f8     LIBCMTD:wctomb.obj
 0002:0000a918       ??_C@_1BI@IEADNOHF@?$AA_?$AAw?$AAc?$AAt?$AAo?$AAm?$AAb?$AA_?$AAs?$AA_?$AAl?$AA?$AA@ 00470918     LIBCMTD:wctomb.obj
 0002:0000a930       ??_C@_1GA@LDLHPOO@?$AAf?$AA?3?$AA?2?$AAd?$AAd?$AA?2?$AAv?$AAc?$AAt?$AAo?$AAo?$AAl?$AAs?$AA?2?$AAc?$AAr?$AAt?$AA_?$AAb?$AAl?$AAd?$AA?2?$AAs?$AAe?$AAl?$AAf?$AA_?$AAx?$AA8?$AA6?$AA?2?$AAc@ 00470930     LIBCMTD:wctomb.obj
 0002:0000a990       ??_C@_1CO@HFMIILNF@?$AAs?$AAi?$AAz?$AAe?$AAI?$AAn?$AAB?$AAy?$AAt?$AAe?$AAs?$AA?5?$AA?$DM?$AA?$DN?$AA?5?$AAI?$AAN?$AAT?$AA_?$AAM?$AAA?$AAX?$AA?$AA@ 00470990     LIBCMTD:wctomb.obj
 0002:0000a9c0       ??_C@_1BK@JMCGJOCC@?$AA_?$AAe?$AAx?$AAp?$AAa?$AAn?$AAd?$AA_?$AAb?$AAa?$AAs?$AAe?$AA?$AA@ 004709c0     LIBCMTD:expand.obj
 0002:0000a9e0       ??_C@_1GA@EBHFLDNH@?$AAf?$AA?3?$AA?2?$AAd?$AAd?$AA?2?$AAv?$AAc?$AAt?$AAo?$AAo?$AAl?$AAs?$AA?2?$AAc?$AAr?$AAt?$AA_?$AAb?$AAl?$AAd?$AA?2?$AAs?$AAe?$AAl?$AAf?$AA_?$AAx?$AA8?$AA6?$AA?2?$AAc@ 004709e0     LIBCMTD:expand.obj
 0002:0000aa40       ??_C@_1BO@KFIJIAEA@?$AAp?$AAB?$AAl?$AAo?$AAc?$AAk?$AA?5?$AA?$CB?$AA?$DN?$AA?5?$AAN?$AAU?$AAL?$AAL?$AA?$AA@ 00470a40     LIBCMTD:expand.obj
 0002:0000aa60       ??_C@_1GC@CHGJNMHG@?$AAf?$AA?3?$AA?2?$AAd?$AAd?$AA?2?$AAv?$AAc?$AAt?$AAo?$AAo?$AAl?$AAs?$AA?2?$AAc?$AAr?$AAt?$AA_?$AAb?$AAl?$AAd?$AA?2?$AAs?$AAe?$AAl?$AAf?$AA_?$AAx?$AA8?$AA6?$AA?2?$AAc@ 00470a60     LIBCMTD:isctype.obj
 0002:0000aac4       ??_C@_1DC@BPLPALML@?$AA?$CI?$AAu?$AAn?$AAs?$AAi?$AAg?$AAn?$AAe?$AAd?$AA?$CJ?$AA?$CI?$AAc?$AA?5?$AA?$CL?$AA?5?$AA1?$AA?$CJ?$AA?5?$AA?$DM?$AA?$DN?$AA?5?$AA2?$AA5?$AA6?$AA?$AA@ 00470ac4     LIBCMTD:isctype.obj
 0002:0000aaf8       ??_C@_0DB@KIKNCIEC@f?3?2dd?2vctools?2crt_bld?2self_x86?2c@ 00470af8     LIBCMTD:osfinfo.obj
 0002:0000ab2c       ??_C@_1BO@EMBOBGKE@?$AA_?$AAg?$AAe?$AAt?$AA_?$AAo?$AAs?$AAf?$AAh?$AAa?$AAn?$AAd?$AAl?$AAe?$AA?$AA@ 00470b2c     LIBCMTD:osfinfo.obj
 0002:0000ab50       ??_C@_1GC@MLKLDJJG@?$AAf?$AA?3?$AA?2?$AAd?$AAd?$AA?2?$AAv?$AAc?$AAt?$AAo?$AAo?$AAl?$AAs?$AA?2?$AAc?$AAr?$AAt?$AA_?$AAb?$AAl?$AAd?$AA?2?$AAs?$AAe?$AAl?$AAf?$AA_?$AAx?$AA8?$AA6?$AA?2?$AAc@ 00470b50     LIBCMTD:osfinfo.obj
 0002:0000abb8       ??_C@_1GA@GFFDGGFH@?$AAf?$AA?3?$AA?2?$AAd?$AAd?$AA?2?$AAv?$AAc?$AAt?$AAo?$AAo?$AAl?$AAs?$AA?2?$AAc?$AAr?$AAt?$AA_?$AAb?$AAl?$AAd?$AA?2?$AAs?$AAe?$AAl?$AAf?$AA_?$AAx?$AA8?$AA6?$AA?2?$AAc@ 00470bb8     LIBCMTD:mbtowc.obj
 0002:0000ac18       ??_C@_1NC@EINCOKCO@?$AA_?$AAl?$AAo?$AAc?$AA_?$AAu?$AAp?$AAd?$AAa?$AAt?$AAe?$AA?4?$AAG?$AAe?$AAt?$AAL?$AAo?$AAc?$AAa?$AAl?$AAe?$AAT?$AA?$CI?$AA?$CJ?$AA?9?$AA?$DO?$AAl?$AAo?$AAc?$AAi?$AAn?$AAf@ 00470c18     LIBCMTD:mbtowc.obj
 0002:0000acec       ??_C@_1M@MFLJCMFJ@?$AA_?$AAo?$AAp?$AAe?$AAn?$AA?$AA@ 00470cec     LIBCMTD:open.obj
 0002:0000acf8       ??_C@_1FM@LFKHNNH@?$AAf?$AA?3?$AA?2?$AAd?$AAd?$AA?2?$AAv?$AAc?$AAt?$AAo?$AAo?$AAl?$AAs?$AA?2?$AAc?$AAr?$AAt?$AA_?$AAb?$AAl?$AAd?$AA?2?$AAs?$AAe?$AAl?$AAf?$AA_?$AAx?$AA8?$AA6?$AA?2?$AAc@ 00470cf8     LIBCMTD:open.obj
 0002:0000ad54       ??_C@_1BO@DPAOGEII@?$AA?$CI?$AAp?$AAa?$AAt?$AAh?$AA?5?$AA?$CB?$AA?$DN?$AA?5?$AAN?$AAU?$AAL?$AAL?$AA?$CJ?$AA?$AA@ 00470d54     LIBCMTD:open.obj
 0002:0000ad78       ??_C@_1FG@NFINBJCM@?$AA?$CI?$AA?$CI?$AAp?$AAm?$AAo?$AAd?$AAe?$AA?5?$AA?$CG?$AA?5?$AA?$CI?$AA?$HO?$AA?$CI?$AA_?$AAS?$AA_?$AAI?$AAR?$AAE?$AAA?$AAD?$AA?5?$AA?$HM?$AA?5?$AA_?$AAS?$AA_?$AAI?$AAW?$AAR?$AAI?$AAT@ 00470d78     LIBCMTD:open.obj
 0002:0000add0       ??_C@_1BM@IOBAMMHO@?$AA_?$AAs?$AAo?$AAp?$AAe?$AAn?$AA_?$AAh?$AAe?$AAl?$AAp?$AAe?$AAr?$AA?$AA@ 00470dd0     LIBCMTD:open.obj
 0002:0000adec       ??_C@_1BM@PGEEHLHE@?$AA?$CI?$AAp?$AAf?$AAh?$AA?5?$AA?$CB?$AA?$DN?$AA?5?$AAN?$AAU?$AAL?$AAL?$AA?$CJ?$AA?$AA@ 00470dec     LIBCMTD:open.obj
 0002:0000ae08       ??_C@_1IA@IENOJNJF@?$AA0?$AA?5?$AA?$CG?$AA?$CG?$AA?5?$AA?$CC?$AAO?$AAn?$AAl?$AAy?$AA?5?$AAU?$AAT?$AAF?$AA?9?$AA1?$AA6?$AA?5?$AAl?$AAi?$AAt?$AAt?$AAl?$AAe?$AA?5?$AAe?$AAn?$AAd?$AAi?$AAa?$AAn?$AA?5@ 00470e08     LIBCMTD:open.obj
 0002:0000ae88       ??_C@_1CM@IDLMKMPG@?$AA0?$AA?5?$AA?$CG?$AA?$CG?$AA?5?$AA?$CC?$AAI?$AAn?$AAt?$AAe?$AAr?$AAn?$AAa?$AAl?$AA?5?$AAE?$AAr?$AAr?$AAo?$AAr?$AA?$CC?$AA?$AA@ 00470e88     LIBCMTD:open.obj
 0002:0000aeb8       ??_C@_1HM@GJANBLHJ@?$AA?$CI?$AAo?$AAf?$AAl?$AAa?$AAg?$AA?5?$AA?$CG?$AA?5?$AA?$CI?$AA_?$AAO?$AA_?$AAT?$AAE?$AAX?$AAT?$AA?5?$AA?$HM?$AA?5?$AA_?$AAO?$AA_?$AAW?$AAT?$AAE?$AAX?$AAT?$AA?5?$AA?$HM?$AA?5?$AA_@ 00470eb8     LIBCMTD:open.obj
 0002:0000af34       ??_C@_1DO@PJLMOANO@?$AA?$CI?$AA?5?$AA?$CC?$AAI?$AAn?$AAv?$AAa?$AAl?$AAi?$AAd?$AA?5?$AAs?$AAh?$AAa?$AAr?$AAi?$AAn?$AAg?$AA?5?$AAf?$AAl?$AAa?$AAg?$AA?$CC?$AA?5?$AA?0?$AA?5?$AA0?$AA?5?$AA?$CJ?$AA?$AA@ 00470f34     LIBCMTD:open.obj
 0002:0000af74       ??_C@_1DI@DGKIFCCE@?$AA?$CI?$AA?5?$AA?$CC?$AAI?$AAn?$AAv?$AAa?$AAl?$AAi?$AAd?$AA?5?$AAo?$AAp?$AAe?$AAn?$AA?5?$AAf?$AAl?$AAa?$AAg?$AA?$CC?$AA?5?$AA?0?$AA?5?$AA0?$AA?5?$AA?$CJ?$AA?$AA@ 00470f74     LIBCMTD:open.obj
 0002:0000afac       ??_C@_1CG@ICBEBDJJ@?$AA_?$AAg?$AAe?$AAt?$AA_?$AAf?$AAm?$AAo?$AAd?$AAe?$AA?$CI?$AA?$CG?$AAf?$AAm?$AAo?$AAd?$AAe?$AA?$CJ?$AA?$AA@ 00470fac     LIBCMTD:open.obj
 0002:0000afd4       ??_C@_1BO@JOPFMPGH@?$AA_?$AAt?$AAs?$AAo?$AAp?$AAe?$AAn?$AA_?$AAn?$AAo?$AAl?$AAo?$AAc?$AAk?$AA?$AA@ 00470fd4     LIBCMTD:open.obj
 0002:0000aff4       ??_C@_1BK@GEJONGBG@?$AA_?$AAm?$AAb?$AAs?$AAn?$AAb?$AAi?$AAc?$AAm?$AAp?$AA_?$AAl?$AA?$AA@ 00470ff4     LIBCMTD:mbsnbicm.obj
 0002:0000b010       ??_C@_1GE@JLFFJINF@?$AAf?$AA?3?$AA?2?$AAd?$AAd?$AA?2?$AAv?$AAc?$AAt?$AAo?$AAo?$AAl?$AAs?$AA?2?$AAc?$AAr?$AAt?$AA_?$AAb?$AAl?$AAd?$AA?2?$AAs?$AAe?$AAl?$AAf?$AA_?$AAx?$AA8?$AA6?$AA?2?$AAc@ 00471010     LIBCMTD:mbsnbicm.obj
 0002:0000b074       ??_C@_1BI@LPHOHGHI@?$AA_?$AAm?$AAb?$AAs?$AAn?$AAb?$AAc?$AAm?$AAp?$AA_?$AAl?$AA?$AA@ 00471074     LIBCMTD:mbsnbcmp.obj
 0002:0000b090       ??_C@_1GE@IIBFGEPN@?$AAf?$AA?3?$AA?2?$AAd?$AAd?$AA?2?$AAv?$AAc?$AAt?$AAo?$AAo?$AAl?$AAs?$AA?2?$AAc?$AAr?$AAt?$AA_?$AAb?$AAl?$AAd?$AA?2?$AAs?$AAe?$AAl?$AAf?$AA_?$AAx?$AA8?$AA6?$AA?2?$AAc@ 00471090     LIBCMTD:mbsnbcmp.obj
 0002:0000b0f4       ??_C@_0BC@JEAENNKH@SystemFunction036?$AA@ 004710f4     LIBCMTD:rand_s.obj
 0002:0000b108       ??_C@_1GA@EBEDGGGB@?$AA?$CI?$AA?$CC?$AAr?$AAa?$AAn?$AAd?$AA_?$AAs?$AA?5?$AAi?$AAs?$AA?5?$AAn?$AAo?$AAt?$AA?5?$AAa?$AAv?$AAa?$AAi?$AAl?$AAa?$AAb?$AAl?$AAe?$AA?5?$AAo?$AAn?$AA?5?$AAt?$AAh?$AAi@ 00471108     LIBCMTD:rand_s.obj
 0002:0000b168       ??_C@_1O@IJGPPOGF@?$AAr?$AAa?$AAn?$AAd?$AA_?$AAs?$AA?$AA@ 00471168     LIBCMTD:rand_s.obj
 0002:0000b178       ??_C@_1GA@HBGBBKCD@?$AAf?$AA?3?$AA?2?$AAd?$AAd?$AA?2?$AAv?$AAc?$AAt?$AAo?$AAo?$AAl?$AAs?$AA?2?$AAc?$AAr?$AAt?$AA_?$AAb?$AAl?$AAd?$AA?2?$AAs?$AAe?$AAl?$AAf?$AA_?$AAx?$AA8?$AA6?$AA?2?$AAc@ 00471178     LIBCMTD:rand_s.obj
 0002:0000b1d8       ??_C@_1CK@GFDNDKK@?$AA_?$AAR?$AAa?$AAn?$AAd?$AAo?$AAm?$AAV?$AAa?$AAl?$AAu?$AAe?$AA?5?$AA?$CB?$AA?$DN?$AA?5?$AAN?$AAU?$AAL?$AAL?$AA?$AA@ 004711d8     LIBCMTD:rand_s.obj
 0002:0000b204       ??_C@_0BK@CFCOFLF@?5Complete?5Object?5Locator?8?$AA@ 00471204     LIBCMTD:undname.obj
 0002:0000b220       ??_C@_0BN@MECKDCOJ@?5Class?5Hierarchy?5Descriptor?8?$AA@ 00471220     LIBCMTD:undname.obj
 0002:0000b240       ??_C@_0BD@LGICGFMM@?5Base?5Class?5Array?8?$AA@ 00471240     LIBCMTD:undname.obj
 0002:0000b254       ??_C@_0BM@LDKODKLH@?5Base?5Class?5Descriptor?5at?5?$CI?$AA@ 00471254     LIBCMTD:undname.obj
 0002:0000b270       ??_C@_0BC@DAFEJGAK@?5Type?5Descriptor?8?$AA@ 00471270     LIBCMTD:undname.obj
 0002:0000b284       ??_C@_0BM@PMGGMLDN@?$GAlocal?5static?5thread?5guard?8?$AA@ 00471284     LIBCMTD:undname.obj
 0002:0000b2a0       ??_C@_0CL@FGIJHLCE@?$GAmanaged?5vector?5copy?5constructor@ 004712a0     LIBCMTD:undname.obj
 0002:0000b2cc       ??_C@_0CJ@GJELGAMM@?$GAvector?5vbase?5copy?5constructor?5i@ 004712cc     LIBCMTD:undname.obj
 0002:0000b2f8       ??_C@_0CD@CGAJBKEJ@?$GAvector?5copy?5constructor?5iterato@ 004712f8     LIBCMTD:undname.obj
 0002:0000b31c       ??_C@_0CB@PDBIFEP@?$GAdynamic?5atexit?5destructor?5for?5?8@ 0047131c     LIBCMTD:undname.obj
 0002:0000b340       ??_C@_0BL@CLIPGLGB@?$GAdynamic?5initializer?5for?5?8?$AA@ 00471340     LIBCMTD:undname.obj
 0002:0000b35c       ??_C@_0CM@FCBBDIGB@?$GAeh?5vector?5vbase?5copy?5constructo@ 0047135c     LIBCMTD:undname.obj
 0002:0000b388       ??_C@_0CG@HLDDJMAG@?$GAeh?5vector?5copy?5constructor?5iter@ 00471388     LIBCMTD:undname.obj
 0002:0000b3b0       ??_C@_0CF@IMGKMJNO@?$GAmanaged?5vector?5destructor?5itera@ 004713b0     LIBCMTD:undname.obj
 0002:0000b3d8       ??_C@_0CG@CFDHKGGD@?$GAmanaged?5vector?5constructor?5iter@ 004713d8     LIBCMTD:undname.obj
 0002:0000b400       ??_C@_0BN@CKNJLHMB@?$GAplacement?5delete?$FL?$FN?5closure?8?$AA@ 00471400     LIBCMTD:undname.obj
 0002:0000b420       ??_C@_0BL@CNOONJFP@?$GAplacement?5delete?5closure?8?$AA@ 00471420     LIBCMTD:undname.obj
 0002:0000b43c       ??_C@_0P@HJKNJFNN@?$GAomni?5callsig?8?$AA@ 0047143c     LIBCMTD:undname.obj
 0002:0000b44c       ??_C@_09LBNFPBCA@?5delete?$FL?$FN?$AA@ 0047144c     LIBCMTD:undname.obj
 0002:0000b458       ??_C@_06FHBGPFGH@?5new?$FL?$FN?$AA@ 00471458     LIBCMTD:undname.obj
 0002:0000b460       ??_C@_0CE@IIHCMGGL@?$GAlocal?5vftable?5constructor?5closu@ 00471460     LIBCMTD:undname.obj
 0002:0000b484       ??_C@_0BA@KKLDJDLB@?$GAlocal?5vftable?8?$AA@ 00471484     LIBCMTD:undname.obj
 0002:0000b494       ??_C@_05KHLCHHI@?$GARTTI?$AA@ 00471494     LIBCMTD:undname.obj
 0002:0000b49c       ??_C@_03KLGMFNMG@?$GAEH?$AA@ 0047149c     LIBCMTD:undname.obj
 0002:0000b4a0       ??_C@_0BA@KBCDOMBN@?$GAudt?5returning?8?$AA@ 004714a0     LIBCMTD:undname.obj
 0002:0000b4b0       ??_C@_0BL@LLKPOHJI@?$GAcopy?5constructor?5closure?8?$AA@ 004714b0     LIBCMTD:undname.obj
 0002:0000b4cc       ??_C@_0CH@OOJPLCPH@?$GAeh?5vector?5vbase?5constructor?5ite@ 004714cc     LIBCMTD:undname.obj
 0002:0000b4f4       ??_C@_0CA@GCEOPDGL@?$GAeh?5vector?5destructor?5iterator?8?$AA@ 004714f4     LIBCMTD:undname.obj
 0002:0000b514       ??_C@_0CB@JONCMFFK@?$GAeh?5vector?5constructor?5iterator?8@ 00471514     LIBCMTD:undname.obj
 0002:0000b538       ??_C@_0BL@NILFHHPC@?$GAvirtual?5displacement?5map?8?$AA@ 00471538     LIBCMTD:undname.obj
 0002:0000b554       ??_C@_0CE@IKBNEHA@?$GAvector?5vbase?5constructor?5iterat@ 00471554     LIBCMTD:undname.obj
 0002:0000b578       ??_C@_0BN@LFPFMEDL@?$GAvector?5destructor?5iterator?8?$AA@ 00471578     LIBCMTD:undname.obj
 0002:0000b598       ??_C@_0BO@PFGOCPJJ@?$GAvector?5constructor?5iterator?8?$AA@ 00471598     LIBCMTD:undname.obj
 0002:0000b5b8       ??_C@_0BN@IMDCHIKM@?$GAscalar?5deleting?5destructor?8?$AA@ 004715b8     LIBCMTD:undname.obj
 0002:0000b5d8       ??_C@_0BO@OBMKPJIG@?$GAdefault?5constructor?5closure?8?$AA@ 004715d8     LIBCMTD:undname.obj
 0002:0000b5f8       ??_C@_0BN@DEGPLNFK@?$GAvector?5deleting?5destructor?8?$AA@ 004715f8     LIBCMTD:undname.obj
 0002:0000b618       ??_C@_0BD@JDLKDPAB@?$GAvbase?5destructor?8?$AA@ 00471618     LIBCMTD:undname.obj
 0002:0000b62c       ??_C@_08OBABFOLI@?$GAstring?8?$AA@ 0047162c     LIBCMTD:undname.obj
 0002:0000b638       ??_C@_0BF@KDPPACIK@?$GAlocal?5static?5guard?8?$AA@ 00471638     LIBCMTD:undname.obj
 0002:0000b650       ??_C@_08LLFFHHDJ@?$GAtypeof?8?$AA@ 00471650     LIBCMTD:undname.obj
 0002:0000b65c       ??_C@_07FEEIOKP@?$GAvcall?8?$AA@ 0047165c     LIBCMTD:undname.obj
 0002:0000b664       ??_C@_09BLBHBJP@?$GAvbtable?8?$AA@ 00471664     LIBCMTD:undname.obj
 0002:0000b670       ??_C@_09IFPLHPGF@?$GAvftable?8?$AA@ 00471670     LIBCMTD:undname.obj
 0002:0000b67c       ??_C@_02MHEGNOJ@?$FO?$DN?$AA@ 0047167c     LIBCMTD:undname.obj
 0002:0000b680       ??_C@_02DHLNPPGH@?$HM?$DN?$AA@ 00471680     LIBCMTD:undname.obj
 0002:0000b684       ??_C@_02FGJGFEAB@?$CG?$DN?$AA@ 00471684     LIBCMTD:undname.obj
 0002:0000b688       ??_C@_03CDNPDDLA@?$DM?$DM?$DN?$AA@ 00471688     LIBCMTD:undname.obj
 0002:0000b68c       ??_C@_03IKFCCPFF@?$DO?$DO?$DN?$AA@ 0047168c     LIBCMTD:undname.obj
 0002:0000b690       ??_C@_02FENAOKFI@?$CF?$DN?$AA@ 00471690     LIBCMTD:undname.obj
 0002:0000b694       ??_C@_02FJEHGPIO@?1?$DN?$AA@ 00471694     LIBCMTD:undname.obj
 0002:0000b698       ??_C@_02FKMDLLOA@?9?$DN?$AA@ 00471698     LIBCMTD:undname.obj
 0002:0000b69c       ??_C@_02FOEOMHFC@?$CL?$DN?$AA@ 0047169c     LIBCMTD:undname.obj
 0002:0000b6a0       ??_C@_02FPIMKNGF@?$CK?$DN?$AA@ 004716a0     LIBCMTD:undname.obj
 0002:0000b6a4       ??_C@_02NONPIBCD@?$HM?$HM?$AA@ 004716a4     LIBCMTD:undname.obj
 0002:0000b6a8       ??_C@_02PPKAJPJL@?$CG?$CG?$AA@ 004716a8     LIBCMTD:undname.obj
 0002:0000b6ac       ??_C@_01DNKMNLPK@?$HM?$AA@ 004716ac     LIBCMTD:undname.obj
 0002:0000b6b0       ??_C@_01JKBOJNNK@?$FO?$AA@ 004716b0     LIBCMTD:undname.obj
 0002:0000b6b4       ??_C@_01PJKLJHI@?$HO?$AA@  004716b4     LIBCMTD:undname.obj
 0002:0000b6b8       ??_C@_02HCKGKOFO@?$CI?$CJ?$AA@ 004716b8     LIBCMTD:undname.obj
 0002:0000b6bc       ??_C@_01IHBHIGKO@?0?$AA@   004716bc     LIBCMTD:undname.obj
 0002:0000b6c0       ??_C@_02EEKDKGMJ@?$DO?$DN?$AA@ 004716c0     LIBCMTD:undname.obj
 0002:0000b6c4       ??_C@_01PPODPGHN@?$DO?$AA@ 004716c4     LIBCMTD:undname.obj
 0002:0000b6c8       ??_C@_02EHCHHCKH@?$DM?$DN?$AA@ 004716c8     LIBCMTD:undname.obj
 0002:0000b6cc       ??_C@_01MNNFJEPP@?$DM?$AA@ 004716cc     LIBCMTD:undname.obj
 0002:0000b6d0       ??_C@_01FGNFDNOH@?$CF?$AA@ 004716d0     LIBCMTD:undname.obj
 0002:0000b6d4       ??_C@_01KMDKNFGN@?1?$AA@   004716d4     LIBCMTD:undname.obj
 0002:0000b6d8       ??_C@_03MNHNFDLC@?9?$DO?$CK?$AA@ 004716d8     LIBCMTD:undname.obj
 0002:0000b6dc       ??_C@_01HNPIGOCE@?$CG?$AA@ 004716dc     LIBCMTD:undname.obj
 0002:0000b6e0       ??_C@_01MIFGBAGJ@?$CL?$AA@ 004716e0     LIBCMTD:undname.obj
 0002:0000b6e4       ??_C@_01JOAMLHOP@?9?$AA@   004716e4     LIBCMTD:undname.obj
 0002:0000b6e8       ??_C@_02BAABKJLB@?9?9?$AA@ 004716e8     LIBCMTD:undname.obj
 0002:0000b6ec       ??_C@_02ECNGHCIF@?$CL?$CL?$AA@ 004716ec     LIBCMTD:undname.obj
 0002:0000b6f0       ??_C@_01NBENCBCI@?$CK?$AA@ 004716f0     LIBCMTD:undname.obj
 0002:0000b6f4       ??_C@_02HBOOOICD@?9?$DO?$AA@ 004716f4     LIBCMTD:undname.obj
 0002:0000b6f8       ??_C@_08LHJFAFGD@operator?$AA@ 004716f8     LIBCMTD:undname.obj
 0002:0000b704       ??_C@_02GPECMEKF@?$FL?$FN?$AA@ 00471704     LIBCMTD:undname.obj
 0002:0000b708       ??_C@_02FDNJECIE@?$CB?$DN?$AA@ 00471708     LIBCMTD:undname.obj
 0002:0000b70c       ??_C@_02EGOFBIJA@?$DN?$DN?$AA@ 0047170c     LIBCMTD:undname.obj
 0002:0000b710       ??_C@_01DCLJPIOD@?$CB?$AA@ 00471710     LIBCMTD:undname.obj
 0002:0000b714       ??_C@_02FODMEDOG@?$DM?$DM?$AA@ 00471714     LIBCMTD:undname.obj
 0002:0000b718       ??_C@_02GPIOPFAK@?$DO?$DO?$AA@ 00471718     LIBCMTD:undname.obj
 0002:0000b71c       ??_C@_01NEMOKFLO@?$DN?$AA@ 0047171c     LIBCMTD:undname.obj
 0002:0000b720       ??_C@_07FPCDHGMM@?5delete?$AA@ 00471720     LIBCMTD:undname.obj
 0002:0000b728       ??_C@_04NIHEBCM@?5new?$AA@ 00471728     LIBCMTD:undname.obj
 0002:0000b730       ??_C@_0M@GFIIJFMG@__unaligned?$AA@ 00471730     LIBCMTD:undname.obj
 0002:0000b73c       ??_C@_0L@PILCLIHE@__restrict?$AA@ 0047173c     LIBCMTD:undname.obj
 0002:0000b748       ??_C@_07JOMMBBKO@__ptr64?$AA@ 00471748     LIBCMTD:undname.obj
 0002:0000b750       ??_C@_06GHPCKEAG@__eabi?$AA@ 00471750     LIBCMTD:undname.obj
 0002:0000b758       ??_C@_09HIJEGCPM@__clrcall?$AA@ 00471758     LIBCMTD:undname.obj
 0002:0000b764       ??_C@_0L@JMKHOMEK@__fastcall?$AA@ 00471764     LIBCMTD:undname.obj
 0002:0000b770       ??_C@_0L@NPHFGOKO@__thiscall?$AA@ 00471770     LIBCMTD:undname.obj
 0002:0000b77c       ??_C@_09IFJBGAPI@__stdcall?$AA@ 0047177c     LIBCMTD:undname.obj
 0002:0000b788       ??_C@_08GHMPAG@__pascal?$AA@ 00471788     LIBCMTD:undname.obj
 0002:0000b794       ??_C@_07KOLFKCDI@__cdecl?$AA@ 00471794     LIBCMTD:undname.obj
 0002:0000b79c       ??_C@_08EHJDFFNH@__based?$CI?$AA@ 0047179c     LIBCMTD:undname.obj
 0002:0000b92c       ??_C@_04HEJADOOB@CV?3?5?$AA@ 0047192c     LIBCMTD:undname.obj
 0002:0000b934       ??_C@_02MOLJINC@?3?3?$AA@  00471934     LIBCMTD:undname.obj
 0002:0000b938       ??_C@_01GEODFPGF@?8?$AA@   00471938     LIBCMTD:undname.obj
 0002:0000b93c       ??_C@_01NLNLIGKH@?$GA?$AA@ 0047193c     LIBCMTD:undname.obj
 0002:0000b940       ??_C@_0O@KHGCOMHP@generic?9type?9?$AA@ 00471940     LIBCMTD:undname.obj
 0002:0000b950       ??_C@_0BE@JAEOCHPE@template?9parameter?9?$AA@ 00471950     LIBCMTD:undname.obj
 0002:0000b964       ??_C@_02OHHJMEON@?8?8?$AA@ 00471964     LIBCMTD:undname.obj
 0002:0000b968       ??_C@_0BG@JNJLAMPM@?$GAanonymous?5namespace?8?$AA@ 00471968     LIBCMTD:undname.obj
 0002:0000b980       ??_C@_0BN@IBLMMFAP@?$GAnon?9type?9template?9parameter?$AA@ 00471980     LIBCMTD:undname.obj
 0002:0000b9a0       ??_C@_0BE@EODMJLIF@?$GAtemplate?9parameter?$AA@ 004719a0     LIBCMTD:undname.obj
 0002:0000b9b4       ??_C@_04GKJNKENE@void?$AA@ 004719b4     LIBCMTD:undname.obj
 0002:0000b9bc       ??_C@_04HIBGFPH@NULL?$AA@  004719bc     LIBCMTD:undname.obj
 0002:0000b9c4       ??_C@_0M@DHNBOJMP@extern?5?$CCC?$CC?5?$AA@ 004719c4     LIBCMTD:undname.obj
 0002:0000b9d0       ??_C@_08KJLFOPNE@?$FLthunk?$FN?3?$AA@ 004719d0     LIBCMTD:undname.obj
 0002:0000b9dc       ??_C@_08GPDDCMKI@public?3?5?$AA@ 004719dc     LIBCMTD:undname.obj
 0002:0000b9e8       ??_C@_0M@GAIFPFIP@protected?3?5?$AA@ 004719e8     LIBCMTD:undname.obj
 0002:0000b9f4       ??_C@_09LAPHOOG@private?3?5?$AA@ 004719f4     LIBCMTD:undname.obj
 0002:0000ba00       ??_C@_08NIEOINHE@virtual?5?$AA@ 00471a00     LIBCMTD:undname.obj
 0002:0000ba0c       ??_C@_07PGOEDBHP@static?5?$AA@ 00471a0c     LIBCMTD:undname.obj
 0002:0000ba14       ??_C@_0DA@HGFJFBBE@?$GAtemplate?5static?5data?5member?5des@ 00471a14     LIBCMTD:undname.obj
 0002:0000ba44       ??_C@_0DB@ILEFOCIJ@?$GAtemplate?5static?5data?5member?5con@ 00471a44     LIBCMTD:undname.obj
 0002:0000ba78       ??_C@_0CB@KJDOOODE@?$GAlocal?5static?5destructor?5helper?8@ 00471a78     LIBCMTD:undname.obj
 0002:0000ba9c       ??_C@_0L@HNGCOGAE@?$GAadjustor?$HL?$AA@ 00471a9c     LIBCMTD:undname.obj
 0002:0000baa8       ??_C@_0L@GHPFDFH@?$GAvtordisp?$HL?$AA@ 00471aa8     LIBCMTD:undname.obj
 0002:0000bab4       ??_C@_0N@CBHHHENL@?$GAvtordispex?$HL?$AA@ 00471ab4     LIBCMTD:undname.obj
 0002:0000bac4       ??_C@_01CLKCMJKC@?5?$AA@   00471ac4     LIBCMTD:undname.obj
 0002:0000bac8       ??_C@_02IGFCGPIL@?$HN?8?$AA@ 00471ac8     LIBCMTD:undname.obj
 0002:0000bacc       ??_C@_03OPGICMGF@?$HN?8?5?$AA@ 00471acc     LIBCMTD:undname.obj
 0002:0000bad0       ??_C@_02KCKGHPCA@?$CJ?5?$AA@ 00471ad0     LIBCMTD:undname.obj
 0002:0000bad4       ??_C@_05BEFAKPML@void?5?$AA@ 00471ad4     LIBCMTD:undname.obj
 0002:0000badc       ??_C@_0P@GCOCNKDM@std?3?3nullptr_t?$AA@ 00471adc     LIBCMTD:undname.obj
 0002:0000baec       ??_C@_08PABEKFH@volatile?$AA@ 00471aec     LIBCMTD:undname.obj
 0002:0000baf8       ??_C@_0M@ELJOJFFH@?0?$DMellipsis?$DO?$AA@ 00471af8     LIBCMTD:undname.obj
 0002:0000bb04       ??_C@_04EENFHACM@?0?4?4?4?$AA@ 00471b04     LIBCMTD:undname.obj
 0002:0000bb0c       ??_C@_0L@EGPHHEKN@?$DMellipsis?$DO?$AA@ 00471b0c     LIBCMTD:undname.obj
 0002:0000bb18       ??_C@_07HDJPLPEK@?5throw?$CI?$AA@ 00471b18     LIBCMTD:undname.obj
 0002:0000bb20       ??_C@_09EFNPDFFP@?5volatile?$AA@ 00471b20     LIBCMTD:undname.obj
 0002:0000bb2c       ??_C@_05BNCCCJPP@const?$AA@ 00471b2c     LIBCMTD:undname.obj
 0002:0000bb34       ??_C@_07EDHNAJHC@signed?5?$AA@ 00471b34     LIBCMTD:undname.obj
 0002:0000bb3c       ??_C@_09EBBEKKIH@unsigned?5?$AA@ 00471b3c     LIBCMTD:undname.obj
 0002:0000bb48       ??_C@_07NFANNNEC@UNKNOWN?$AA@ 00471b48     LIBCMTD:undname.obj
 0002:0000bb50       ??_C@_06GCICPBLB@__w64?5?$AA@ 00471b50     LIBCMTD:undname.obj
 0002:0000bb58       ??_C@_07CLGGIAMF@wchar_t?$AA@ 00471b58     LIBCMTD:undname.obj
 0002:0000bb60       ??_C@_09EEKGDCPH@?$DMunknown?$DO?$AA@ 00471b60     LIBCMTD:undname.obj
 0002:0000bb6c       ??_C@_08GAHOLHEO@__int128?$AA@ 00471b6c     LIBCMTD:undname.obj
 0002:0000bb78       ??_C@_07LFCOJCAC@__int64?$AA@ 00471b78     LIBCMTD:undname.obj
 0002:0000bb80       ??_C@_07OFLPPHGP@__int32?$AA@ 00471b80     LIBCMTD:undname.obj
 0002:0000bb88       ??_C@_07ICFHOGAF@__int16?$AA@ 00471b88     LIBCMTD:undname.obj
 0002:0000bb90       ??_C@_06EBGKOKIG@__int8?$AA@ 00471b90     LIBCMTD:undname.obj
 0002:0000bb98       ??_C@_04DDKJGDCM@bool?$AA@ 00471b98     LIBCMTD:undname.obj
 0002:0000bba0       ??_C@_06BNJCAIGJ@double?$AA@ 00471ba0     LIBCMTD:undname.obj
 0002:0000bba8       ??_C@_05CJIMAING@long?5?$AA@ 00471ba8     LIBCMTD:undname.obj
 0002:0000bbb0       ??_C@_05KNFBNCOH@float?$AA@ 00471bb0     LIBCMTD:undname.obj
 0002:0000bbb8       ??_C@_04GOKPGOLB@long?$AA@ 00471bb8     LIBCMTD:undname.obj
 0002:0000bbc0       ??_C@_03JBIPMCLC@int?$AA@  00471bc0     LIBCMTD:undname.obj
 0002:0000bbc4       ??_C@_05BFKKPKCG@short?$AA@ 00471bc4     LIBCMTD:undname.obj
 0002:0000bbcc       ??_C@_04ENMBGAPA@char?$AA@ 00471bcc     LIBCMTD:undname.obj
 0002:0000bbd4       ??_C@_05LJGMCFOG@enum?5?$AA@ 00471bd4     LIBCMTD:undname.obj
 0002:0000bbdc       ??_C@_0N@DLIEFKNA@cointerface?5?$AA@ 00471bdc     LIBCMTD:undname.obj
 0002:0000bbec       ??_C@_08KOFANOFK@coclass?5?$AA@ 00471bec     LIBCMTD:undname.obj
 0002:0000bbf8       ??_C@_06LJBABKPM@class?5?$AA@ 00471bf8     LIBCMTD:undname.obj
 0002:0000bc00       ??_C@_07DIBCDNGL@struct?5?$AA@ 00471c00     LIBCMTD:undname.obj
 0002:0000bc08       ??_C@_06MOJHIBMG@union?5?$AA@ 00471c08     LIBCMTD:undname.obj
 0002:0000bc10       ??_C@_0P@GCIFDJCJ@?$GAunknown?5ecsu?8?$AA@ 00471c10     LIBCMTD:undname.obj
 0002:0000bc20       ??_C@_04LAHKHJMA@int?5?$AA@ 00471c20     LIBCMTD:undname.obj
 0002:0000bc28       ??_C@_06EHJMALKF@short?5?$AA@ 00471c28     LIBCMTD:undname.obj
 0002:0000bc30       ??_C@_05CIHEBHNO@char?5?$AA@ 00471c30     LIBCMTD:undname.obj
 0002:0000bc38       ??_C@_06LIJLOJAG@const?5?$AA@ 00471c38     LIBCMTD:undname.obj
 0002:0000bc40       ??_C@_09GAIEOBLP@volatile?5?$AA@ 00471c40     LIBCMTD:undname.obj
 0002:0000bc4c       ??_C@_0O@GKABPPIF@cli?3?3pin_ptr?$DM?$AA@ 00471c4c     LIBCMTD:undname.obj
 0002:0000bc5c       ??_C@_0M@EALIELKG@cli?3?3array?$DM?$AA@ 00471c5c     LIBCMTD:undname.obj
 0002:0000bc68       ??_C@_02GOGNNPBN@?$CJ?$FL?$AA@ 00471c68     LIBCMTD:undname.obj
 0002:0000bc6c       ??_C@_06EEGAIFAK@?$HLflat?$HN?$AA@ 00471c6c     LIBCMTD:undname.obj
 0002:0000bc74       ??_C@_02MDINNEEG@s?5?$AA@  00471c74     LIBCMTD:undname.obj
 0002:0000bc78       ??_C@_05JIBOFOHK@?$HLfor?5?$AA@ 00471c78     LIBCMTD:undname.obj
 0002:0000bc80       ??_7DNameNode@@6B@         00471c80     LIBCMTD:undname.obj
 0002:0000bc8c       ??_7charNode@@6B@          00471c8c     LIBCMTD:undname.obj
 0002:0000bc98       ??_7pcharNode@@6B@         00471c98     LIBCMTD:undname.obj
 0002:0000bca4       ??_7pDNameNode@@6B@        00471ca4     LIBCMTD:undname.obj
 0002:0000bcb0       ??_7DNameStatusNode@@6B@   00471cb0     LIBCMTD:undname.obj
 0002:0000bcbc       ??_C@_04OKOHEJBO@?5?$DP?$DP?5?$AA@ 00471cbc     LIBCMTD:undname.obj
 0002:0000bcc4       ??_7pairNode@@6B@          00471cc4     LIBCMTD:undname.obj
 0002:0000bcd0       ??_C@_07LCBHPJJN@LC_TIME?$AA@ 00471cd0     LIBCMTD:setlocal.obj
 0002:0000bcd8       ??_C@_0L@DLHIECNL@LC_NUMERIC?$AA@ 00471cd8     LIBCMTD:setlocal.obj
 0002:0000bce4       ??_C@_0M@MIENIKLA@LC_MONETARY?$AA@ 00471ce4     LIBCMTD:setlocal.obj
 0002:0000bcf0       ??_C@_08EADHIDAD@LC_CTYPE?$AA@ 00471cf0     LIBCMTD:setlocal.obj
 0002:0000bcfc       ??_C@_0L@KFJHEKIK@LC_COLLATE?$AA@ 00471cfc     LIBCMTD:setlocal.obj
 0002:0000bd08       ??_C@_06NEFDFEKB@LC_ALL?$AA@ 00471d08     LIBCMTD:setlocal.obj
 0002:0000bd10       ___lc_category             00471d10     LIBCMTD:setlocal.obj
 0002:0000bdd8       ??_C@_1CI@FGIONOJM@?$AA_?$AAc?$AAo?$AAn?$AAf?$AAi?$AAg?$AAt?$AAh?$AAr?$AAe?$AAa?$AAd?$AAl?$AAo?$AAc?$AAa?$AAl?$AAe?$AA?$AA@ 00471dd8     LIBCMTD:setlocal.obj
 0002:0000be00       ??_C@_1GE@OLEIGPBJ@?$AAf?$AA?3?$AA?2?$AAd?$AAd?$AA?2?$AAv?$AAc?$AAt?$AAo?$AAo?$AAl?$AAs?$AA?2?$AAc?$AAr?$AAt?$AA_?$AAb?$AAl?$AAd?$AA?2?$AAs?$AAe?$AAl?$AAf?$AA_?$AAx?$AA8?$AA6?$AA?2?$AAc@ 00471e00     LIBCMTD:setlocal.obj
 0002:0000be68       ??_C@_1GA@LDEGDKD@?$AA?$CI?$AA?$CC?$AAI?$AAn?$AAv?$AAa?$AAl?$AAi?$AAd?$AA?5?$AAp?$AAa?$AAr?$AAa?$AAm?$AAe?$AAt?$AAe?$AAr?$AA?5?$AAf?$AAo?$AAr?$AA?5?$AA_?$AAc?$AAo?$AAn?$AAf?$AAi?$AAg?$AAt@ 00471e68     LIBCMTD:setlocal.obj
 0002:0000bec8       ??_C@_0DC@JCPFNMID@f?3?2dd?2vctools?2crt_bld?2self_x86?2c@ 00471ec8     LIBCMTD:setlocal.obj
 0002:0000befc       ??_C@_1BE@DBJGBOJC@?$AAs?$AAe?$AAt?$AAl?$AAo?$AAc?$AAa?$AAl?$AAe?$AA?$AA@ 00471efc     LIBCMTD:setlocal.obj
 0002:0000bf10       ??_C@_1FG@OHLFEKMC@?$AAL?$AAC?$AA_?$AAM?$AAI?$AAN?$AA?5?$AA?$DM?$AA?$DN?$AA?5?$AA_?$AAc?$AAa?$AAt?$AAe?$AAg?$AAo?$AAr?$AAy?$AA?5?$AA?$CG?$AA?$CG?$AA?5?$AA_?$AAc?$AAa?$AAt?$AAe?$AAg?$AAo?$AAr?$AAy@ 00471f10     LIBCMTD:setlocal.obj
 0002:0000bf68       ??_C@_1IA@PFIKKKFB@?$AAs?$AAt?$AAr?$AAn?$AAc?$AAp?$AAy?$AA_?$AAs?$AA?$CI?$AAl?$AAc?$AAt?$AAe?$AAm?$AAp?$AA?0?$AA?5?$AA?$CI?$AAs?$AAi?$AAz?$AAe?$AAo?$AAf?$AA?$CI?$AAl?$AAc?$AAt?$AAe?$AAm?$AAp@ 00471f68     LIBCMTD:setlocal.obj
 0002:0000bfe8       ??_C@_1CE@OFNHIOO@?$AA_?$AAs?$AAe?$AAt?$AAl?$AAo?$AAc?$AAa?$AAl?$AAe?$AA_?$AAn?$AAo?$AAl?$AAo?$AAc?$AAk?$AA?$AA@ 00471fe8     LIBCMTD:setlocal.obj
 0002:0000c00c       ??_C@_01ICJEACDI@?$DL?$AA@ 0047200c     LIBCMTD:setlocal.obj
 0002:0000c010       ??_C@_02BALPLPBG@?$DN?$DL?$AA@ 00472010     LIBCMTD:setlocal.obj
 0002:0000c018       ??_C@_1GO@JALHLJEH@?$AAs?$AAt?$AAr?$AAc?$AAp?$AAy?$AA_?$AAs?$AA?$CI?$AAp?$AAc?$AAh?$AA?5?$AA?$CL?$AA?5?$AAs?$AAi?$AAz?$AAe?$AAo?$AAf?$AA?$CI?$AAi?$AAn?$AAt?$AA?$CJ?$AA?0?$AA?5?$AAc?$AAc?$AAh?$AA?5@ 00472018     LIBCMTD:setlocal.obj
 0002:0000c088       ??_C@_1CG@IEFIICPK@?$AA_?$AAs?$AAe?$AAt?$AAl?$AAo?$AAc?$AAa?$AAl?$AAe?$AA_?$AAs?$AAe?$AAt?$AA_?$AAc?$AAa?$AAt?$AA?$AA@ 00472088     LIBCMTD:setlocal.obj
 0002:0000c0b0       ??_C@_1DA@GDKKLCLM@?$AAs?$AAt?$AAr?$AAc?$AAa?$AAt?$AA_?$AAs?$AA?$CI?$AAp?$AAc?$AAh?$AA?0?$AA?5?$AAc?$AAc?$AAh?$AA?0?$AA?5?$AA?$CC?$AA?$DL?$AA?$CC?$AA?$CJ?$AA?$AA@ 004720b0     LIBCMTD:setlocal.obj
 0002:0000c0e0       ??_C@_1CG@NNFIJLDA@?$AA_?$AAs?$AAe?$AAt?$AAl?$AAo?$AAc?$AAa?$AAl?$AAe?$AA_?$AAg?$AAe?$AAt?$AA_?$AAa?$AAl?$AAl?$AA?$AA@ 004720e0     LIBCMTD:setlocal.obj
 0002:0000c108       ??_C@_1FA@MHAOOIBO@?$AAs?$AAt?$AAr?$AAc?$AAp?$AAy?$AA_?$AAs?$AA?$CI?$AAo?$AAu?$AAt?$AAp?$AAu?$AAt?$AA?0?$AA?5?$AAs?$AAi?$AAz?$AAe?$AAI?$AAn?$AAC?$AAh?$AAa?$AAr?$AAs?$AA?0?$AA?5?$AAc?$AAa@ 00472108     LIBCMTD:setlocal.obj
 0002:0000c158       ??_C@_1IA@ONNFOEDA@?$AAs?$AAt?$AAr?$AAn?$AAc?$AAp?$AAy?$AA_?$AAs?$AA?$CI?$AAc?$AAa?$AAc?$AAh?$AAe?$AAi?$AAn?$AA?0?$AA?5?$AAc?$AAa?$AAc?$AAh?$AAe?$AAi?$AAn?$AAS?$AAi?$AAz?$AAe?$AA?0?$AA?5@ 00472158     LIBCMTD:setlocal.obj
 0002:0000c1d8       ??_C@_01GFHCPBMG@C?$AA@    004721d8     LIBCMTD:setlocal.obj
 0002:0000c1e0       ??_C@_1EG@MOMHKOD@?$AAs?$AAt?$AAr?$AAc?$AAp?$AAy?$AA_?$AAs?$AA?$CI?$AAo?$AAu?$AAt?$AAp?$AAu?$AAt?$AA?0?$AA?5?$AAs?$AAi?$AAz?$AAe?$AAI?$AAn?$AAC?$AAh?$AAa?$AAr?$AAs?$AA?0?$AA?5?$AA?$CC?$AAC@ 004721e0     LIBCMTD:setlocal.obj
 0002:0000c228       ??_C@_1BM@OIIBLEFG@?$AA_?$AAe?$AAx?$AAp?$AAa?$AAn?$AAd?$AAl?$AAo?$AAc?$AAa?$AAl?$AAe?$AA?$AA@ 00472228     LIBCMTD:setlocal.obj
 0002:0000c248       ??_C@_1BGM@IJDLABMC@?$AAs?$AAt?$AAr?$AAc?$AAa?$AAt?$AA_?$AAs?$AA?$CI?$AAo?$AAu?$AAt?$AAs?$AAt?$AAr?$AA?0?$AA?5?$AAs?$AAi?$AAz?$AAe?$AAI?$AAn?$AAB?$AAy?$AAt?$AAe?$AAs?$AA?0?$AA?5?$AA?$CI?$AA?5@ 00472248     LIBCMTD:setlocal.obj
 0002:0000c3b4       ??_C@_1BC@PIABMDIP@?$AA_?$AAs?$AAt?$AAr?$AAc?$AAa?$AAt?$AAs?$AA?$AA@ 004723b4     LIBCMTD:setlocal.obj
 0002:0000c3c8       ??_C@_1MM@NOPMGFHF@?$AAs?$AAt?$AAr?$AAn?$AAc?$AAp?$AAy?$AA_?$AAs?$AA?$CI?$AAn?$AAa?$AAm?$AAe?$AAs?$AA?9?$AA?$DO?$AAs?$AAz?$AAC?$AAo?$AAd?$AAe?$AAP?$AAa?$AAg?$AAe?$AA?0?$AA?5?$AA?$CI?$AAs?$AAi@ 004723c8     LIBCMTD:setlocal.obj
 0002:0000c498       ??_C@_1MG@PHNILIAG@?$AAs?$AAt?$AAr?$AAn?$AAc?$AAp?$AAy?$AA_?$AAs?$AA?$CI?$AAn?$AAa?$AAm?$AAe?$AAs?$AA?9?$AA?$DO?$AAs?$AAz?$AAC?$AAo?$AAu?$AAn?$AAt?$AAr?$AAy?$AA?0?$AA?5?$AA?$CI?$AAs?$AAi?$AAz@ 00472498     LIBCMTD:setlocal.obj
 0002:0000c560       ??_C@_1MM@BFEECMAF@?$AAs?$AAt?$AAr?$AAn?$AAc?$AAp?$AAy?$AA_?$AAs?$AA?$CI?$AAn?$AAa?$AAm?$AAe?$AAs?$AA?9?$AA?$DO?$AAs?$AAz?$AAL?$AAa?$AAn?$AAg?$AAu?$AAa?$AAg?$AAe?$AA?0?$AA?5?$AA?$CI?$AAs?$AAi@ 00472560     LIBCMTD:setlocal.obj
 0002:0000c62c       ??_C@_03EGDHDPFD@_?4?0?$AA@ 0047262c     LIBCMTD:setlocal.obj
 0002:0000c630       ??_C@_1NG@FMOPGKGG@?$AAs?$AAt?$AAr?$AAn?$AAc?$AAp?$AAy?$AA_?$AAs?$AA?$CI?$AAn?$AAa?$AAm?$AAe?$AAs?$AA?9?$AA?$DO?$AAs?$AAz?$AAC?$AAo?$AAd?$AAe?$AAP?$AAa?$AAg?$AAe?$AA?0?$AA?5?$AA?$CI?$AAs?$AAi@ 00472630     LIBCMTD:setlocal.obj
 0002:0000c708       ??_C@_1BK@CBMMLAGJ@?$AA_?$AA_?$AAl?$AAc?$AA_?$AAs?$AAt?$AAr?$AAt?$AAo?$AAl?$AAc?$AA?$AA@ 00472708     LIBCMTD:setlocal.obj
 0002:0000c724       ??_C@_01LFCBOECM@?4?$AA@   00472724     LIBCMTD:setlocal.obj
 0002:0000c728       ??_C@_01IDAFKMJL@_?$AA@    00472728     LIBCMTD:setlocal.obj
 0002:0000c730       ??_C@_1HC@IBDBLKCB@?$AAs?$AAt?$AAr?$AAc?$AAp?$AAy?$AA_?$AAs?$AA?$CI?$AAl?$AAo?$AAc?$AAa?$AAl?$AAe?$AA?0?$AA?5?$AAs?$AAi?$AAz?$AAe?$AAI?$AAn?$AAB?$AAy?$AAt?$AAe?$AAs?$AA?0?$AA?5?$AA?$CI?$AAc@ 00472730     LIBCMTD:setlocal.obj
 0002:0000c7a4       ??_C@_1BK@FGDJDEPG@?$AA_?$AA_?$AAl?$AAc?$AA_?$AAl?$AAc?$AAt?$AAo?$AAs?$AAt?$AAr?$AA?$AA@ 004727a4     LIBCMTD:setlocal.obj
 0002:0000c7c0       ??_C@_1GE@GJCMHHMH@?$AAf?$AA?3?$AA?2?$AAd?$AAd?$AA?2?$AAv?$AAc?$AAt?$AAo?$AAo?$AAl?$AAs?$AA?2?$AAc?$AAr?$AAt?$AA_?$AAb?$AAl?$AAd?$AA?2?$AAs?$AAe?$AAl?$AAf?$AA_?$AAx?$AA8?$AA6?$AA?2?$AAc@ 004727c0     LIBCMTD:inittime.obj
 0002:0000c828       ??_C@_1EE@FDHCFDHN@?$AAp?$AAl?$AAo?$AAc?$AAi?$AA?9?$AA?$DO?$AAl?$AAc?$AA_?$AAt?$AAi?$AAm?$AAe?$AA_?$AAc?$AAu?$AAr?$AAr?$AA?9?$AA?$DO?$AAr?$AAe?$AAf?$AAc?$AAo?$AAu?$AAn?$AAt?$AA?5?$AA?$DO?$AA?5@ 00472828     LIBCMTD:inittime.obj
 0002:0000c86c       ??_C@_0DC@KICHHNFK@f?3?2dd?2vctools?2crt_bld?2self_x86?2c@ 0047286c     LIBCMTD:inittime.obj
 0002:0000c8a0       ??_C@_1GC@EDJOCBCL@?$AAf?$AA?3?$AA?2?$AAd?$AAd?$AA?2?$AAv?$AAc?$AAt?$AAo?$AAo?$AAl?$AAs?$AA?2?$AAc?$AAr?$AAt?$AA_?$AAb?$AAl?$AAd?$AA?2?$AAs?$AAe?$AAl?$AAf?$AA_?$AAx?$AA8?$AA6?$AA?2?$AAc@ 004728a0     LIBCMTD:initnum.obj
 0002:0000c904       ??_C@_1DM@IFKAINNE@?$AAp?$AAl?$AAo?$AAc?$AAi?$AA?9?$AA?$DO?$AAl?$AAc?$AAo?$AAn?$AAv?$AA_?$AAn?$AAu?$AAm?$AA_?$AAr?$AAe?$AAf?$AAc?$AAo?$AAu?$AAn?$AAt?$AA?5?$AA?$DO?$AA?5?$AA0?$AA?$AA@ 00472904     LIBCMTD:initnum.obj
 0002:0000c940       ??_C@_0DB@KKFMDHFI@f?3?2dd?2vctools?2crt_bld?2self_x86?2c@ 00472940     LIBCMTD:initnum.obj
 0002:0000c978       ??_C@_1GC@IKADOFBJ@?$AAf?$AA?3?$AA?2?$AAd?$AAd?$AA?2?$AAv?$AAc?$AAt?$AAo?$AAo?$AAl?$AAs?$AA?2?$AAc?$AAr?$AAt?$AA_?$AAb?$AAl?$AAd?$AA?2?$AAs?$AAe?$AAl?$AAf?$AA_?$AAx?$AA8?$AA6?$AA?2?$AAc@ 00472978     LIBCMTD:initmon.obj
 0002:0000c9dc       ??_C@_1DM@GKAPAMDO@?$AAp?$AAl?$AAo?$AAc?$AAi?$AA?9?$AA?$DO?$AAl?$AAc?$AAo?$AAn?$AAv?$AA_?$AAm?$AAo?$AAn?$AA_?$AAr?$AAe?$AAf?$AAc?$AAo?$AAu?$AAn?$AAt?$AA?5?$AA?$DO?$AA?5?$AA0?$AA?$AA@ 004729dc     LIBCMTD:initmon.obj
 0002:0000ca18       ??_C@_0DB@BECNGFDL@f?3?2dd?2vctools?2crt_bld?2self_x86?2c@ 00472a18     LIBCMTD:initmon.obj
 0002:0000ca50       ___newctype                00472a50     LIBCMTD:ctype.obj
 0002:0000cd50       __wctype                   00472d50     LIBCMTD:ctype.obj
 0002:0000cf58       ___newclmap                00472f58     LIBCMTD:ctype.obj
 0002:0000d0d8       ___newcumap                004730d8     LIBCMTD:ctype.obj
 0002:0000d258       ??_C@_1CA@LFDHAMEM@?$AA_?$AAs?$AAe?$AAt?$AA_?$AAe?$AAr?$AAr?$AAo?$AAr?$AA_?$AAm?$AAo?$AAd?$AAe?$AA?$AA@ 00473258     LIBCMTD:errmode.obj
 0002:0000d278       ??_C@_1GC@FGMGFCNB@?$AAf?$AA?3?$AA?2?$AAd?$AAd?$AA?2?$AAv?$AAc?$AAt?$AAo?$AAo?$AAl?$AAs?$AA?2?$AAc?$AAr?$AAt?$AA_?$AAb?$AAl?$AAd?$AA?2?$AAs?$AAe?$AAl?$AAf?$AA_?$AAx?$AA8?$AA6?$AA?2?$AAc@ 00473278     LIBCMTD:errmode.obj
 0002:0000d2dc       ??_C@_1DE@BCNCAIK@?$AA?$CI?$AA?$CC?$AAI?$AAn?$AAv?$AAa?$AAl?$AAi?$AAd?$AA?5?$AAe?$AAr?$AAr?$AAo?$AAr?$AA_?$AAm?$AAo?$AAd?$AAe?$AA?$CC?$AA?0?$AA?5?$AA0?$AA?$CJ?$AA?$AA@ 004732dc     LIBCMTD:errmode.obj
 0002:0000d310       ??_C@_1FA@MJKDNFFB@?$AA?$CI?$AAL?$AA?$CC?$AAS?$AAt?$AAr?$AAi?$AAn?$AAg?$AA?5?$AAi?$AAs?$AA?5?$AAn?$AAo?$AAt?$AA?5?$AAn?$AAu?$AAl?$AAl?$AA?5?$AAt?$AAe?$AAr?$AAm?$AAi?$AAn?$AAa?$AAt?$AAe?$AAd@ 00473310     LIBCMTD:wcscat_s.obj
 0002:0000d360       ??_C@_1DM@FHLMIEG@?$AAS?$AAt?$AAr?$AAi?$AAn?$AAg?$AA?5?$AAi?$AAs?$AA?5?$AAn?$AAo?$AAt?$AA?5?$AAn?$AAu?$AAl?$AAl?$AA?5?$AAt?$AAe?$AAr?$AAm?$AAi?$AAn?$AAa?$AAt?$AAe?$AAd?$AA?$AA@ 00473360     LIBCMTD:wcscat_s.obj
 0002:0000d39c       ??_C@_1BC@PLIEPKPJ@?$AAw?$AAc?$AAs?$AAc?$AAa?$AAt?$AA_?$AAs?$AA?$AA@ 0047339c     LIBCMTD:wcscat_s.obj
 0002:0000d3b0       ??_C@_1GI@NOKGIAGA@?$AAf?$AA?3?$AA?2?$AAd?$AAd?$AA?2?$AAv?$AAc?$AAt?$AAo?$AAo?$AAl?$AAs?$AA?2?$AAc?$AAr?$AAt?$AA_?$AAb?$AAl?$AAd?$AA?2?$AAs?$AAe?$AAl?$AAf?$AA_?$AAx?$AA8?$AA6?$AA?2?$AAc@ 004733b0     LIBCMTD:wcscat_s.obj
 0002:0000d418       ??_C@_1BE@PMMBFFCC@?$AAw?$AAc?$AAs?$AAn?$AAc?$AAp?$AAy?$AA_?$AAs?$AA?$AA@ 00473418     LIBCMTD:wcsncpy_s.obj
 0002:0000d430       ??_C@_1GK@PAJJBKJF@?$AAf?$AA?3?$AA?2?$AAd?$AAd?$AA?2?$AAv?$AAc?$AAt?$AAo?$AAo?$AAl?$AAs?$AA?2?$AAc?$AAr?$AAt?$AA_?$AAb?$AAl?$AAd?$AA?2?$AAs?$AAe?$AAl?$AAf?$AA_?$AAx?$AA8?$AA6?$AA?2?$AAc@ 00473430     LIBCMTD:wcsncpy_s.obj
 0002:0000d49c       ??_C@_1BE@NDMJHJJG@?$AAs?$AAt?$AAr?$AAn?$AAc?$AAp?$AAy?$AA_?$AAs?$AA?$AA@ 0047349c     LIBCMTD:strncpy_s.obj
 0002:0000d4b0       ??_C@_1CG@JEHFHLNG@?$AA_?$AAm?$AAb?$AAs?$AAt?$AAo?$AAw?$AAc?$AAs?$AA_?$AAl?$AA_?$AAh?$AAe?$AAl?$AAp?$AAe?$AAr?$AA?$AA@ 004734b0     LIBCMTD:mbstowcs.obj
 0002:0000d4d8       ??_C@_1GE@LCCDHBMH@?$AAf?$AA?3?$AA?2?$AAd?$AAd?$AA?2?$AAv?$AAc?$AAt?$AAo?$AAo?$AAl?$AAs?$AA?2?$AAc?$AAr?$AAt?$AA_?$AAb?$AAl?$AAd?$AA?2?$AAs?$AAe?$AAl?$AAf?$AA_?$AAx?$AA8?$AA6?$AA?2?$AAc@ 004734d8     LIBCMTD:mbstowcs.obj
 0002:0000d53c       ??_C@_1BE@EEKACIGI@?$AAs?$AA?5?$AA?$CB?$AA?$DN?$AA?5?$AAN?$AAU?$AAL?$AAL?$AA?$AA@ 0047353c     LIBCMTD:mbstowcs.obj
 0002:0000d550       ??_C@_1CO@JNPEPJAL@?$AAr?$AAe?$AAt?$AAs?$AAi?$AAz?$AAe?$AA?5?$AA?$DM?$AA?$DN?$AA?5?$AAs?$AAi?$AAz?$AAe?$AAI?$AAn?$AAW?$AAo?$AAr?$AAd?$AAs?$AA?$AA@ 00473550     LIBCMTD:mbstowcs.obj
 0002:0000d580       ??_C@_1CM@LLECFMFH@?$AAb?$AAu?$AAf?$AAf?$AAe?$AAr?$AAS?$AAi?$AAz?$AAe?$AA?5?$AA?$DM?$AA?$DN?$AA?5?$AAI?$AAN?$AAT?$AA_?$AAM?$AAA?$AAX?$AA?$AA@ 00473580     LIBCMTD:mbstowcs.obj
 0002:0000d5ac       ??_C@_1BM@PHENIGHD@?$AA_?$AAm?$AAb?$AAs?$AAt?$AAo?$AAw?$AAc?$AAs?$AA_?$AAs?$AA_?$AAl?$AA?$AA@ 004735ac     LIBCMTD:mbstowcs.obj
 0002:0000d5c8       ??_C@_1JA@JKDFMOPO@?$AA?$CI?$AAp?$AAw?$AAc?$AAs?$AA?5?$AA?$DN?$AA?$DN?$AA?5?$AAN?$AAU?$AAL?$AAL?$AA?5?$AA?$CG?$AA?$CG?$AA?5?$AAs?$AAi?$AAz?$AAe?$AAI?$AAn?$AAW?$AAo?$AAr?$AAd?$AAs?$AA?5?$AA?$DN?$AA?$DN?$AA?5@ 004735c8     LIBCMTD:mbstowcs.obj
 0002:0000d658       ??_C@_1BC@HGPNAKGC@?$AAs?$AAt?$AAr?$AAc?$AAa?$AAt?$AA_?$AAs?$AA?$AA@ 00473658     LIBCMTD:strcat_s.obj
 0002:0000d66c       ??_C@_1CM@HABGDNLJ@?$AAl?$AAe?$AAn?$AAg?$AAt?$AAh?$AA?5?$AA?$DM?$AA?5?$AAs?$AAi?$AAz?$AAe?$AAI?$AAn?$AAT?$AAC?$AAh?$AAa?$AAr?$AAs?$AA?$AA@ 0047366c     LIBCMTD:xtoas.obj
 0002:0000d698       ??_C@_1DE@PCJGDBBD@?$AA2?$AA?5?$AA?$DM?$AA?$DN?$AA?5?$AAr?$AAa?$AAd?$AAi?$AAx?$AA?5?$AA?$CG?$AA?$CG?$AA?5?$AAr?$AAa?$AAd?$AAi?$AAx?$AA?5?$AA?$DM?$AA?$DN?$AA?5?$AA3?$AA6?$AA?$AA@ 00473698     LIBCMTD:xtoas.obj
 0002:0000d6d0       ??_C@_1FA@MKGGAGEI@?$AAs?$AAi?$AAz?$AAe?$AAI?$AAn?$AAT?$AAC?$AAh?$AAa?$AAr?$AAs?$AA?5?$AA?$DO?$AA?5?$AA?$CI?$AAs?$AAi?$AAz?$AAe?$AA_?$AAt?$AA?$CJ?$AA?$CI?$AAi?$AAs?$AA_?$AAn?$AAe?$AAg?$AA?5?$AA?$DP@ 004736d0     LIBCMTD:xtoas.obj
 0002:0000d720       ??_C@_1CC@JNJFIMGE@?$AAs?$AAi?$AAz?$AAe?$AAI?$AAn?$AAT?$AAC?$AAh?$AAa?$AAr?$AAs?$AA?5?$AA?$DO?$AA?5?$AA0?$AA?$AA@ 00473720     LIBCMTD:xtoas.obj
 0002:0000d744       ??_C@_1O@GIMBNLEI@?$AAx?$AAt?$AAo?$AAa?$AA_?$AAs?$AA?$AA@ 00473744     LIBCMTD:xtoas.obj
 0002:0000d758       ??_C@_1FM@MFCBFCGB@?$AAf?$AA?3?$AA?2?$AAd?$AAd?$AA?2?$AAv?$AAc?$AAt?$AAo?$AAo?$AAl?$AAs?$AA?2?$AAc?$AAr?$AAt?$AA_?$AAb?$AAl?$AAd?$AA?2?$AAs?$AAe?$AAl?$AAf?$AA_?$AAx?$AA8?$AA6?$AA?2?$AAc@ 00473758     LIBCMTD:xtoas.obj
 0002:0000d7b4       ??_C@_1BI@ICGGMGLK@?$AAb?$AAu?$AAf?$AA?5?$AA?$CB?$AA?$DN?$AA?5?$AAN?$AAU?$AAL?$AAL?$AA?$AA@ 004737b4     LIBCMTD:xtoas.obj
 0002:0000d7cc       ??_C@_1BC@MJJNBNFN@?$AAx?$AA6?$AA4?$AAt?$AAo?$AAa?$AA_?$AAs?$AA?$AA@ 004737cc     LIBCMTD:xtoas.obj
 0002:0000d7e0       ??_C@_1CG@LLJCAOHF@?$AA_?$AAw?$AAc?$AAs?$AAt?$AAo?$AAm?$AAb?$AAs?$AA_?$AAl?$AA_?$AAh?$AAe?$AAl?$AAp?$AAe?$AAr?$AA?$AA@ 004737e0     LIBCMTD:wcstombs.obj
 0002:0000d808       ??_C@_1GE@OAENIBOD@?$AAf?$AA?3?$AA?2?$AAd?$AAd?$AA?2?$AAv?$AAc?$AAt?$AAo?$AAo?$AAl?$AAs?$AA?2?$AAc?$AAr?$AAt?$AA_?$AAb?$AAl?$AAd?$AA?2?$AAs?$AAe?$AAl?$AAf?$AA_?$AAx?$AA8?$AA6?$AA?2?$AAc@ 00473808     LIBCMTD:wcstombs.obj
 0002:0000d86c       ??_C@_1BK@OIBENBPM@?$AAp?$AAw?$AAc?$AAs?$AA?5?$AA?$CB?$AA?$DN?$AA?5?$AAN?$AAU?$AAL?$AAL?$AA?$AA@ 0047386c     LIBCMTD:wcstombs.obj
 0002:0000d888       ??_C@_1CM@KEOGBFLI@?$AAs?$AAi?$AAz?$AAe?$AAI?$AAn?$AAB?$AAy?$AAt?$AAe?$AAs?$AA?5?$AA?$DO?$AA?5?$AAr?$AAe?$AAt?$AAs?$AAi?$AAz?$AAe?$AA?$AA@ 00473888     LIBCMTD:wcstombs.obj
 0002:0000d8b4       ??_C@_1BM@BDMCLLDL@?$AA_?$AAw?$AAc?$AAs?$AAt?$AAo?$AAm?$AAb?$AAs?$AA_?$AAs?$AA_?$AAl?$AA?$AA@ 004738b4     LIBCMTD:wcstombs.obj
 0002:0000d8d0       ??_C@_1IM@MFGKHGBP@?$AA?$CI?$AAd?$AAs?$AAt?$AA?5?$AA?$CB?$AA?$DN?$AA?5?$AAN?$AAU?$AAL?$AAL?$AA?5?$AA?$CG?$AA?$CG?$AA?5?$AAs?$AAi?$AAz?$AAe?$AAI?$AAn?$AAB?$AAy?$AAt?$AAe?$AAs?$AA?5?$AA?$DO?$AA?5?$AA0?$AA?$CJ@ 004738d0     LIBCMTD:wcstombs.obj
 0002:0000d95c       ??_C@_1CE@IGKFIJFD@?$AA_?$AAv?$AAs?$AAw?$AAp?$AAr?$AAi?$AAn?$AAt?$AAf?$AA_?$AAh?$AAe?$AAl?$AAp?$AAe?$AAr?$AA?$AA@ 0047395c     LIBCMTD:vswprnc.obj
 0002:0000d980       ??_C@_1GE@KINELFI@?$AAf?$AA?3?$AA?2?$AAd?$AAd?$AA?2?$AAv?$AAc?$AAt?$AAo?$AAo?$AAl?$AAs?$AA?2?$AAc?$AAr?$AAt?$AA_?$AAb?$AAl?$AAd?$AA?2?$AAs?$AAe?$AAl?$AAf?$AA_?$AAx?$AA8?$AA6?$AA?2?$AAc@ 00473980     LIBCMTD:vswprnc.obj
 0002:0000d9e8       ??_C@_1EE@MPCHJFGP@?$AAs?$AAt?$AAr?$AAi?$AAn?$AAg?$AA?5?$AA?$CB?$AA?$DN?$AA?5?$AAN?$AAU?$AAL?$AAL?$AA?5?$AA?$CG?$AA?$CG?$AA?5?$AAs?$AAi?$AAz?$AAe?$AAI?$AAn?$AAW?$AAo?$AAr?$AAd?$AAs?$AA?5?$AA?$DO?$AA?5@ 004739e8     LIBCMTD:vswprnc.obj
 0002:0000da2c       ??_C@_1BO@OALHJLCI@?$AA_?$AAv?$AAs?$AAw?$AAp?$AAr?$AAi?$AAn?$AAt?$AAf?$AA_?$AAs?$AA_?$AAl?$AA?$AA@ 00473a2c     LIBCMTD:vswprnc.obj
 0002:0000da4c       ??_C@_1CA@BKFKMJFF@?$AA_?$AAv?$AAs?$AAn?$AAw?$AAp?$AAr?$AAi?$AAn?$AAt?$AAf?$AA_?$AAs?$AA_?$AAl?$AA?$AA@ 00473a4c     LIBCMTD:vswprnc.obj
 0002:0000da6c       ??_C@_1O@NCBFODOE@?$AAx?$AAt?$AAo?$AAw?$AA_?$AAs?$AA?$AA@ 00473a6c     LIBCMTD:xtows.obj
 0002:0000da7c       ??_C@_1BC@HDEJCFPB@?$AAx?$AA6?$AA4?$AAt?$AAo?$AAw?$AA_?$AAs?$AA?$AA@ 00473a7c     LIBCMTD:xtows.obj
 0002:0000da90       ??_C@_1BG@BBCDFOMA@?$AA_?$AAw?$AAo?$AAu?$AAt?$AAp?$AAu?$AAt?$AA_?$AAl?$AA?$AA@ 00473a90     LIBCMTD:woutput.obj
 0002:0000daa8       ??_C@_1BK@EPLNBKAK@?$AA_?$AAv?$AAs?$AAw?$AAp?$AAr?$AAi?$AAn?$AAt?$AAf?$AA_?$AAl?$AA?$AA@ 00473aa8     LIBCMTD:vswprint.obj
 0002:0000dac4       ??_C@_1CG@IMMIEPNA@?$AA_?$AAv?$AAs?$AAc?$AAw?$AAp?$AAr?$AAi?$AAn?$AAt?$AAf?$AA_?$AAh?$AAe?$AAl?$AAp?$AAe?$AAr?$AA?$AA@ 00473ac4     LIBCMTD:vswprint.obj
 0002:0000daec       ??_C@_0BK@CIDNPOGP@GetUserObjectInformationA?$AA@ 00473aec     LIBCMTD:crtmbox.obj
 0002:0000db08       ??_C@_0M@CHKKJDAI@MessageBoxA?$AA@ 00473b08     LIBCMTD:crtmbox.obj
 0002:0000db14       ??_C@_1BO@JGFPDJCP@?$AAv?$AAp?$AAr?$AAi?$AAn?$AAt?$AAf?$AA_?$AAh?$AAe?$AAl?$AAp?$AAe?$AAr?$AA?$AA@ 00473b14     LIBCMTD:vprintf.obj
 0002:0000db38       ??_C@_1GC@DHFFJKMC@?$AAf?$AA?3?$AA?2?$AAd?$AAd?$AA?2?$AAv?$AAc?$AAt?$AAo?$AAo?$AAl?$AAs?$AA?2?$AAc?$AAr?$AAt?$AA_?$AAb?$AAl?$AAd?$AA?2?$AAs?$AAe?$AAl?$AAf?$AA_?$AAx?$AA8?$AA6?$AA?2?$AAc@ 00473b38     LIBCMTD:vprintf.obj
 0002:0000db9c       ??_C@_1DG@NMBGBDM@?$AAp?$AAl?$AAo?$AAc?$AAi?$AA?9?$AA?$DO?$AAc?$AAt?$AAy?$AAp?$AAe?$AA1?$AA_?$AAr?$AAe?$AAf?$AAc?$AAo?$AAu?$AAn?$AAt?$AA?5?$AA?$DO?$AA?5?$AA0?$AA?$AA@ 00473b9c     LIBCMTD:initctyp.obj
 0002:0000dbd8       ??_C@_1GE@OCPKBDKE@?$AAf?$AA?3?$AA?2?$AAd?$AAd?$AA?2?$AAv?$AAc?$AAt?$AAo?$AAo?$AAl?$AAs?$AA?2?$AAc?$AAr?$AAt?$AA_?$AAb?$AAl?$AAd?$AA?2?$AAs?$AAe?$AAl?$AAf?$AA_?$AAx?$AA8?$AA6?$AA?2?$AAc@ 00473bd8     LIBCMTD:initctyp.obj
 0002:0000dc3c       ??_C@_0DC@EHLBFILA@f?3?2dd?2vctools?2crt_bld?2self_x86?2c@ 00473c3c     LIBCMTD:initctyp.obj
 0002:0000dc70       ??_C@_1BA@BALFACEM@?$AAC?$AAO?$AAN?$AAO?$AAU?$AAT?$AA$?$AA?$AA@ 00473c70     LIBCMTD:initcon.obj
 0002:0000dc80       ??_C@_1BI@GALBKMKE@?$AA?$CI?$AAs?$AAi?$AAz?$AAe?$AA?5?$AA?$DO?$AA?$DN?$AA?5?$AA0?$AA?$CJ?$AA?$AA@ 00473c80     LIBCMTD:chsize.obj
 0002:0000dc98       ??_C@_1BE@MAFDNGED@?$AA_?$AAc?$AAh?$AAs?$AAi?$AAz?$AAe?$AA_?$AAs?$AA?$AA@ 00473c98     LIBCMTD:chsize.obj
 0002:0000dcb0       ??_C@_1GA@DBKMEDOF@?$AAf?$AA?3?$AA?2?$AAd?$AAd?$AA?2?$AAv?$AAc?$AAt?$AAo?$AAo?$AAl?$AAs?$AA?2?$AAc?$AAr?$AAt?$AA_?$AAb?$AAl?$AAd?$AA?2?$AAs?$AAe?$AAl?$AAf?$AA_?$AAx?$AA8?$AA6?$AA?2?$AAc@ 00473cb0     LIBCMTD:chsize.obj
 0002:0000dd10       ??_C@_1CC@HBLPFNKH@?$AA?$CI?$AAc?$AAn?$AAt?$AA?5?$AA?$DM?$AA?$DN?$AA?5?$AAI?$AAN?$AAT?$AA_?$AAM?$AAA?$AAX?$AA?$CJ?$AA?$AA@ 00473d10     LIBCMTD:read.obj
 0002:0000dd34       ??_C@_1M@NHJOLLDM@?$AA_?$AAr?$AAe?$AAa?$AAd?$AA?$AA@ 00473d34     LIBCMTD:read.obj
 0002:0000dd40       ??_C@_1FM@NGICBHLO@?$AAf?$AA?3?$AA?2?$AAd?$AAd?$AA?2?$AAv?$AAc?$AAt?$AAo?$AAo?$AAl?$AAs?$AA?2?$AAc?$AAr?$AAt?$AA_?$AAb?$AAl?$AAd?$AA?2?$AAs?$AAe?$AAl?$AAf?$AA_?$AAx?$AA8?$AA6?$AA?2?$AAc@ 00473d40     LIBCMTD:read.obj
 0002:0000dd9c       ??_C@_0CO@CEGKNHEH@f?3?2dd?2vctools?2crt_bld?2self_x86?2c@ 00473d9c     LIBCMTD:read.obj
 0002:0000ddcc       ??_C@_1CG@OHLJHGGK@?$AA?$CI?$AAi?$AAn?$AAp?$AAu?$AAt?$AAb?$AAu?$AAf?$AA?5?$AA?$CB?$AA?$DN?$AA?5?$AAN?$AAU?$AAL?$AAL?$AA?$CJ?$AA?$AA@ 00473dcc     LIBCMTD:read.obj
 0002:0000ddf4       ??_C@_1BK@JJBHNDKJ@?$AA_?$AAr?$AAe?$AAa?$AAd?$AA_?$AAn?$AAo?$AAl?$AAo?$AAc?$AAk?$AA?$AA@ 00473df4     LIBCMTD:read.obj
 0002:0000de10       ??_C@_1BC@JBGGJDCM@?$AA_?$AAs?$AAe?$AAt?$AAm?$AAo?$AAd?$AAe?$AA?$AA@ 00473e10     LIBCMTD:setmode.obj
 0002:0000de28       ??_C@_1GC@KODPFLLJ@?$AAf?$AA?3?$AA?2?$AAd?$AAd?$AA?2?$AAv?$AAc?$AAt?$AAo?$AAo?$AAl?$AAs?$AA?2?$AAc?$AAr?$AAt?$AA_?$AAb?$AAl?$AAd?$AA?2?$AAs?$AAe?$AAl?$AAf?$AA_?$AAx?$AA8?$AA6?$AA?2?$AAc@ 00473e28     LIBCMTD:setmode.obj
 0002:0000de90       ??_C@_1OA@HGPJIFPM@?$AA?$CI?$AA?$CI?$AAm?$AAo?$AAd?$AAe?$AA?5?$AA?$DN?$AA?$DN?$AA?5?$AA_?$AAO?$AA_?$AAT?$AAE?$AAX?$AAT?$AA?$CJ?$AA?5?$AA?$HM?$AA?$HM?$AA?5?$AA?$CI?$AAm?$AAo?$AAd?$AAe?$AA?5?$AA?$DN?$AA?$DN?$AA?5?$AA_@ 00473e90     LIBCMTD:setmode.obj
 0002:0000df70       ??_C@_1BG@IEEHLOCL@?$AA_?$AAs?$AAe?$AAt?$AA_?$AAf?$AAm?$AAo?$AAd?$AAe?$AA?$AA@ 00473f70     LIBCMTD:setmode.obj
 0002:0000df88       ??_C@_1IC@NDCJMLB@?$AA?$CI?$AA?$CI?$AAm?$AAo?$AAd?$AAe?$AA?5?$AA?$DN?$AA?$DN?$AA?5?$AA_?$AAO?$AA_?$AAT?$AAE?$AAX?$AAT?$AA?$CJ?$AA?5?$AA?$HM?$AA?$HM?$AA?5?$AA?$CI?$AAm?$AAo?$AAd?$AAe?$AA?5?$AA?$DN?$AA?$DN?$AA?5?$AA_@ 00473f88     LIBCMTD:setmode.obj
 0002:0000e00c       ??_C@_1BG@CKGMPOFH@?$AA_?$AAg?$AAe?$AAt?$AA_?$AAf?$AAm?$AAo?$AAd?$AAe?$AA?$AA@ 0047400c     LIBCMTD:setmode.obj
 0002:0000e024       ??_C@_1CA@GPIGPPFN@?$AA?$CI?$AAp?$AAM?$AAo?$AAd?$AAe?$AA?5?$AA?$CB?$AA?$DN?$AA?5?$AAN?$AAU?$AAL?$AAL?$AA?$CJ?$AA?$AA@ 00474024     LIBCMTD:setmode.obj
 0002:0000e044       ??_C@_1CC@JLPHKJPH@?$AAc?$AAo?$AAu?$AAn?$AAt?$AA?5?$AA?$DM?$AA?$DN?$AA?5?$AAI?$AAN?$AAT?$AA_?$AAM?$AAA?$AAX?$AA?$AA@ 00474044     LIBCMTD:strnicmp.obj
 0002:0000e068       ??_C@_1BI@BJLEPLEF@?$AA_?$AAs?$AAt?$AAr?$AAn?$AAi?$AAc?$AAm?$AAp?$AA_?$AAl?$AA?$AA@ 00474068     LIBCMTD:strnicmp.obj
 0002:0000e080       ??_C@_1GE@CONPOJMA@?$AAf?$AA?3?$AA?2?$AAd?$AAd?$AA?2?$AAv?$AAc?$AAt?$AAo?$AAo?$AAl?$AAs?$AA?2?$AAc?$AAr?$AAt?$AA_?$AAb?$AAl?$AAd?$AA?2?$AAs?$AAe?$AAl?$AAf?$AA_?$AAx?$AA8?$AA6?$AA?2?$AAc@ 00474080     LIBCMTD:strnicmp.obj
 0002:0000e0e4       ??_C@_1BE@BHJDFFNA@?$AA_?$AAs?$AAt?$AAr?$AAn?$AAi?$AAc?$AAm?$AAp?$AA?$AA@ 004740e4     LIBCMTD:strnicmp.obj
 0002:0000e0f8       ??_C@_0O@FMJNFNKE@united?9states?$AA@ 004740f8     LIBCMTD:getqloc.obj
 0002:0000e108       ??_C@_0P@NDHFFKCA@united?9kingdom?$AA@ 00474108     LIBCMTD:getqloc.obj
 0002:0000e118       ??_C@_0BC@HHDADLGF@trinidad?5?$CG?5tobago?$AA@ 00474118     LIBCMTD:getqloc.obj
 0002:0000e12c       ??_C@_0M@IOAEBDAC@south?9korea?$AA@ 0047412c     LIBCMTD:getqloc.obj
 0002:0000e138       ??_C@_0N@FIELFKIJ@south?9africa?$AA@ 00474138     LIBCMTD:getqloc.obj
 0002:0000e148       ??_C@_0M@OPNDHCMC@south?5korea?$AA@ 00474148     LIBCMTD:getqloc.obj
 0002:0000e154       ??_C@_0N@MDEOEPFI@south?5africa?$AA@ 00474154     LIBCMTD:getqloc.obj
 0002:0000e164       ??_C@_06FKAPCJLB@slovak?$AA@ 00474164     LIBCMTD:getqloc.obj
 0002:0000e16c       ??_C@_0M@EFJANOAL@puerto?9rico?$AA@ 0047416c     LIBCMTD:getqloc.obj
 0002:0000e178       ??_C@_08PGOJKDAI@pr?9china?$AA@ 00474178     LIBCMTD:getqloc.obj
 0002:0000e184       ??_C@_08JHDOMCMI@pr?5china?$AA@ 00474184     LIBCMTD:getqloc.obj
 0002:0000e190       ??_C@_02JHCHFBLL@nz?$AA@   00474190     LIBCMTD:getqloc.obj
 0002:0000e194       ??_C@_0M@LINHDHKP@new?9zealand?$AA@ 00474194     LIBCMTD:getqloc.obj
 0002:0000e1a0       ??_C@_09IIIPPBDB@hong?9kong?$AA@ 004741a0     LIBCMTD:getqloc.obj
 0002:0000e1ac       ??_C@_07HJLCKBG@holland?$AA@ 004741ac     LIBCMTD:getqloc.obj
 0002:0000e1b4       ??_C@_0O@LEHGMHAG@great?5britain?$AA@ 004741b4     LIBCMTD:getqloc.obj
 0002:0000e1c4       ??_C@_07FACOMELA@england?$AA@ 004741c4     LIBCMTD:getqloc.obj
 0002:0000e1cc       ??_C@_05JIHCEICB@czech?$AA@ 004741cc     LIBCMTD:getqloc.obj
 0002:0000e1d4       ??_C@_05BBJOBLGB@china?$AA@ 004741d4     LIBCMTD:getqloc.obj
 0002:0000e1dc       ??_C@_07GPKPHICP@britain?$AA@ 004741dc     LIBCMTD:getqloc.obj
 0002:0000e1e4       ??_C@_07MHIPBHMG@america?$AA@ 004741e4     LIBCMTD:getqloc.obj
 0002:0000e1ec       ??_C@_03KIALPMKC@usa?$AA@  004741ec     LIBCMTD:getqloc.obj
 0002:0000e1f0       ??_C@_02FGJGKGGD@us?$AA@   004741f0     LIBCMTD:getqloc.obj
 0002:0000e1f4       ??_C@_02NEINDODK@uk?$AA@   004741f4     LIBCMTD:getqloc.obj
 0002:0000e1f8       ??_C@_05JMPCFJFJ@swiss?$AA@ 004741f8     LIBCMTD:getqloc.obj
 0002:0000e200       ??_C@_0BA@HLOCPIOD@swedish?9finland?$AA@ 00474200     LIBCMTD:getqloc.obj
 0002:0000e210       ??_C@_0BC@PKCNIABK@spanish?9venezuela?$AA@ 00474210     LIBCMTD:getqloc.obj
 0002:0000e224       ??_C@_0BA@GBHHMIJI@spanish?9uruguay?$AA@ 00474224     LIBCMTD:getqloc.obj
 0002:0000e234       ??_C@_0BE@BHDOHPMC@spanish?9puerto?5rico?$AA@ 00474234     LIBCMTD:getqloc.obj
 0002:0000e248       ??_C@_0N@KMOIDGGN@spanish?9peru?$AA@ 00474248     LIBCMTD:getqloc.obj
 0002:0000e258       ??_C@_0BB@HMHLPGPH@spanish?9paraguay?$AA@ 00474258     LIBCMTD:getqloc.obj
 0002:0000e26c       ??_C@_0P@MCPKNGFD@spanish?9panama?$AA@ 0047426c     LIBCMTD:getqloc.obj
 0002:0000e27c       ??_C@_0BC@IHOHGAIL@spanish?9nicaragua?$AA@ 0047427c     LIBCMTD:getqloc.obj
 0002:0000e290       ??_C@_0P@KLMJDNFJ@spanish?9modern?$AA@ 00474290     LIBCMTD:getqloc.obj
 0002:0000e2a0       ??_C@_0BA@BPAPGBCM@spanish?9mexican?$AA@ 004742a0     LIBCMTD:getqloc.obj
 0002:0000e2b0       ??_C@_0BB@PDECHHHE@spanish?9honduras?$AA@ 004742b0     LIBCMTD:getqloc.obj
 0002:0000e2c4       ??_C@_0BC@KLHKFGDB@spanish?9guatemala?$AA@ 004742c4     LIBCMTD:getqloc.obj
 0002:0000e2d8       ??_C@_0BE@MFOOKJAI@spanish?9el?5salvador?$AA@ 004742d8     LIBCMTD:getqloc.obj
 0002:0000e2ec       ??_C@_0BA@FCOKFPFC@spanish?9ecuador?$AA@ 004742ec     LIBCMTD:getqloc.obj
 0002:0000e2fc       ??_C@_0BL@PLMGIMOO@spanish?9dominican?5republic?$AA@ 004742fc     LIBCMTD:getqloc.obj
 0002:0000e318       ??_C@_0BD@HLGDNMHB@spanish?9costa?5rica?$AA@ 00474318     LIBCMTD:getqloc.obj
 0002:0000e32c       ??_C@_0BB@PKCBKCPE@spanish?9colombia?$AA@ 0047432c     LIBCMTD:getqloc.obj
 0002:0000e340       ??_C@_0O@MCBIJGNE@spanish?9chile?$AA@ 00474340     LIBCMTD:getqloc.obj
 0002:0000e350       ??_C@_0BA@BEFEIGJJ@spanish?9bolivia?$AA@ 00474350     LIBCMTD:getqloc.obj
 0002:0000e360       ??_C@_0BC@EMECMPD@spanish?9argentina?$AA@ 00474360     LIBCMTD:getqloc.obj
 0002:0000e374       ??_C@_0BF@EALFLENP@portuguese?9brazilian?$AA@ 00474374     LIBCMTD:getqloc.obj
 0002:0000e38c       ??_C@_0BC@HBLEBLNN@norwegian?9nynorsk?$AA@ 0047438c     LIBCMTD:getqloc.obj
 0002:0000e3a0       ??_C@_0BB@HMACDDCK@norwegian?9bokmal?$AA@ 004743a0     LIBCMTD:getqloc.obj
 0002:0000e3b4       ??_C@_09BAFFPPHE@norwegian?$AA@ 004743b4     LIBCMTD:getqloc.obj
 0002:0000e3c0       ??_C@_0O@EAJFJDFG@italian?9swiss?$AA@ 004743c0     LIBCMTD:getqloc.obj
 0002:0000e3d0       ??_C@_0O@CNOMPGD@irish?9english?$AA@ 004743d0     LIBCMTD:getqloc.obj
 0002:0000e3e0       ??_C@_0N@EDHBGCKG@german?9swiss?$AA@ 004743e0     LIBCMTD:getqloc.obj
 0002:0000e3f0       ??_C@_0BC@JACMHNBP@german?9luxembourg?$AA@ 004743f0     LIBCMTD:getqloc.obj
 0002:0000e404       ??_C@_0BE@HBGMGFEG@german?9lichtenstein?$AA@ 00474404     LIBCMTD:getqloc.obj
 0002:0000e418       ??_C@_0BA@HKKBIBKL@german?9austrian?$AA@ 00474418     LIBCMTD:getqloc.obj
 0002:0000e428       ??_C@_0N@GCAEPEBK@french?9swiss?$AA@ 00474428     LIBCMTD:getqloc.obj
 0002:0000e438       ??_C@_0BC@DJFJJCK@french?9luxembourg?$AA@ 00474438     LIBCMTD:getqloc.obj
 0002:0000e44c       ??_C@_0BA@NNCEDFIC@french?9canadian?$AA@ 0047444c     LIBCMTD:getqloc.obj
 0002:0000e45c       ??_C@_0P@CMPOCLM@french?9belgian?$AA@ 0047445c     LIBCMTD:getqloc.obj
 0002:0000e46c       ??_C@_0M@GHHDJOK@english?9usa?$AA@ 0047446c     LIBCMTD:getqloc.obj
 0002:0000e478       ??_C@_0L@PLDJKEIL@english?9us?$AA@ 00474478     LIBCMTD:getqloc.obj
 0002:0000e484       ??_C@_0L@HJCCDMNC@english?9uk?$AA@ 00474484     LIBCMTD:getqloc.obj
 0002:0000e490       ??_C@_0BK@CKLIAGJB@english?9trinidad?5y?5tobago?$AA@ 00474490     LIBCMTD:getqloc.obj
 0002:0000e4ac       ??_C@_0BF@JMJMGNNF@english?9south?5africa?$AA@ 004744ac     LIBCMTD:getqloc.obj
 0002:0000e4c4       ??_C@_0L@DKIIFDFD@english?9nz?$AA@ 004744c4     LIBCMTD:getqloc.obj
 0002:0000e4d0       ??_C@_0BA@ONHGJCLH@english?9jamaica?$AA@ 004744d0     LIBCMTD:getqloc.obj
 0002:0000e4e0       ??_C@_0M@HJBGHOPO@english?9ire?$AA@ 004744e0     LIBCMTD:getqloc.obj
 0002:0000e4ec       ??_C@_0BC@LFEKMIFB@english?9caribbean?$AA@ 004744ec     LIBCMTD:getqloc.obj
 0002:0000e500       ??_C@_0M@OLDPFKHI@english?9can?$AA@ 00474500     LIBCMTD:getqloc.obj
 0002:0000e50c       ??_C@_0P@OMDEHBMP@english?9belize?$AA@ 0047450c     LIBCMTD:getqloc.obj
 0002:0000e51c       ??_C@_0M@KFHFPFED@english?9aus?$AA@ 0047451c     LIBCMTD:getqloc.obj
 0002:0000e528       ??_C@_0BB@MNMBKDFE@english?9american?$AA@ 00474528     LIBCMTD:getqloc.obj
 0002:0000e53c       ??_C@_0O@KIDLNNBA@dutch?9belgian?$AA@ 0047453c     LIBCMTD:getqloc.obj
 0002:0000e54c       ??_C@_0BE@JBKABBMH@chinese?9traditional?$AA@ 0047454c     LIBCMTD:getqloc.obj
 0002:0000e560       ??_C@_0BC@MJJMPKCG@chinese?9singapore?$AA@ 00474560     LIBCMTD:getqloc.obj
 0002:0000e574       ??_C@_0BD@FDKADDCP@chinese?9simplified?$AA@ 00474574     LIBCMTD:getqloc.obj
 0002:0000e588       ??_C@_0BB@DBEFDDME@chinese?9hongkong?$AA@ 00474588     LIBCMTD:getqloc.obj
 0002:0000e59c       ??_C@_07DHNMFMCI@chinese?$AA@ 0047459c     LIBCMTD:getqloc.obj
 0002:0000e5a4       ??_C@_03FNDDCHI@chi?$AA@   004745a4     LIBCMTD:getqloc.obj
 0002:0000e5a8       ??_C@_03BMMIADDJ@chh?$AA@  004745a8     LIBCMTD:getqloc.obj
 0002:0000e5ac       ??_C@_08OAIPJDGI@canadian?$AA@ 004745ac     LIBCMTD:getqloc.obj
 0002:0000e5b8       ??_C@_07HBPMNPNJ@belgian?$AA@ 004745b8     LIBCMTD:getqloc.obj
 0002:0000e5c0       ??_C@_0L@OEKOPBEL@australian?$AA@ 004745c0     LIBCMTD:getqloc.obj
 0002:0000e5cc       ??_C@_0BB@MEIMBEDG@american?9english?$AA@ 004745cc     LIBCMTD:getqloc.obj
 0002:0000e5e0       ??_C@_0BB@DFMDPDGB@american?5english?$AA@ 004745e0     LIBCMTD:getqloc.obj
 0002:0000e5f4       ??_C@_08IJLOKOLL@american?$AA@ 004745f4     LIBCMTD:getqloc.obj
 0002:0000e600       ___rg_language             00474600     LIBCMTD:getqloc.obj
 0002:0000e808       ___rg_country              00474808     LIBCMTD:getqloc.obj
 0002:0000e8c0       ___rglangidNotDefault      004748c0     LIBCMTD:getqloc.obj
 0002:0000e8d4       ??_C@_0BC@NFIEMBLL@Norwegian?9Nynorsk?$AA@ 004748d4     LIBCMTD:getqloc.obj
 0002:0000e8e8       ??_C@_1OM@OECHDGCF@?$AAs?$AAt?$AAr?$AAc?$AAp?$AAy?$AA_?$AAs?$AA?$CI?$AAl?$AAp?$AAO?$AAu?$AAt?$AAS?$AAt?$AAr?$AA?9?$AA?$DO?$AAs?$AAz?$AAL?$AAa?$AAn?$AAg?$AAu?$AAa?$AAg?$AAe?$AA?0?$AA?5?$AA?$CI@ 004748e8     LIBCMTD:getqloc.obj
 0002:0000e9d4       ??_C@_1CO@NJACLALJ@?$AA_?$AA_?$AAg?$AAe?$AAt?$AA_?$AAq?$AAu?$AAa?$AAl?$AAi?$AAf?$AAi?$AAe?$AAd?$AA_?$AAl?$AAo?$AAc?$AAa?$AAl?$AAe?$AA?$AA@ 004749d4     LIBCMTD:getqloc.obj
 0002:0000ea08       ??_C@_1GC@FECJGAE@?$AAf?$AA?3?$AA?2?$AAd?$AAd?$AA?2?$AAv?$AAc?$AAt?$AAo?$AAo?$AAl?$AAs?$AA?2?$AAc?$AAr?$AAt?$AA_?$AAb?$AAl?$AAd?$AA?2?$AAs?$AAe?$AAl?$AAf?$AA_?$AAx?$AA8?$AA6?$AA?2?$AAc@ 00474a08     LIBCMTD:getqloc.obj
 0002:0000ea6c       ??_C@_03NFKLAGEF@OCP?$AA@  00474a6c     LIBCMTD:getqloc.obj
 0002:0000ea70       ??_C@_03DFHEHBHG@ACP?$AA@  00474a70     LIBCMTD:getqloc.obj
 0002:0000ea74       ??_C@_1BK@ONMFGLDB@?$AA_?$AAw?$AAo?$AAu?$AAt?$AAp?$AAu?$AAt?$AA_?$AAs?$AA_?$AAl?$AA?$AA@ 00474a74     LIBCMTD:woutputs.obj
 0002:0000ea90       ??_C@_1BK@GDEKGMNC@?$AA_?$AAw?$AAo?$AAu?$AAt?$AAp?$AAu?$AAt?$AA_?$AAp?$AA_?$AAl?$AA?$AA@ 00474a90     LIBCMTD:woutputp.obj
 0002:0000eaac       ??_C@_1O@HJNPHHHB@?$AAf?$AAp?$AAu?$AAt?$AAw?$AAc?$AA?$AA@ 00474aac     LIBCMTD:fputwc.obj
 0002:0000eac0       ??_C@_1GA@BJIGKGEA@?$AAf?$AA?3?$AA?2?$AAd?$AAd?$AA?2?$AAv?$AAc?$AAt?$AAo?$AAo?$AAl?$AAs?$AA?2?$AAc?$AAr?$AAt?$AA_?$AAb?$AAl?$AAd?$AA?2?$AAs?$AAe?$AAl?$AAf?$AA_?$AAx?$AA8?$AA6?$AA?2?$AAc@ 00474ac0     LIBCMTD:fputwc.obj
 0002:0000eb20       ??_C@_1BA@PCFLFGNC@?$AAw?$AAc?$AAs?$AAt?$AAo?$AAx?$AAl?$AA?$AA@ 00474b20     LIBCMTD:wcstol.obj
 0002:0000eb30       ??_C@_1GA@CADFOND@?$AAf?$AA?3?$AA?2?$AAd?$AAd?$AA?2?$AAv?$AAc?$AAt?$AAo?$AAo?$AAl?$AAs?$AA?2?$AAc?$AAr?$AAt?$AA_?$AAb?$AAl?$AAd?$AA?2?$AAs?$AAe?$AAl?$AAf?$AA_?$AAx?$AA8?$AA6?$AA?2?$AAc@ 00474b30     LIBCMTD:wcstol.obj
 0002:0000eb90       __load_config_used         00474b90     LIBCMTD:loadcfg.obj
 0002:00011358       ??_R4MainFrame@@6BCWindowWnd@DuiLib@@@ 00477358     main_frame.obj
 0002:00011370       ??_R3MainFrame@@8          00477370     main_frame.obj
 0002:00011384       ??_R2MainFrame@@8          00477384     main_frame.obj
 0002:000113a4       ??_R1A@?0A@EA@MainFrame@@8 004773a4     main_frame.obj
 0002:000113c8       ??_R1A@?0A@EA@WindowImplBase@@8 004773c8     main_frame.obj
 0002:000113ec       ??_R3WindowImplBase@@8     004773ec     main_frame.obj
 0002:00011400       ??_R2WindowImplBase@@8     00477400     main_frame.obj
 0002:0001141c       ??_R1A@?0A@EA@CWindowWnd@DuiLib@@8 0047741c     main_frame.obj
 0002:00011440       ??_R3CWindowWnd@DuiLib@@8  00477440     main_frame.obj
 0002:00011454       ??_R2CWindowWnd@DuiLib@@8  00477454     main_frame.obj
 0002:0001145c       ??_R1BA@?0A@EA@INotifyUI@DuiLib@@8 0047745c     main_frame.obj
 0002:00011480       ??_R3INotifyUI@DuiLib@@8   00477480     main_frame.obj
 0002:00011494       ??_R2INotifyUI@DuiLib@@8   00477494     main_frame.obj
 0002:0001149c       ??_R1A@?0A@EA@INotifyUI@DuiLib@@8 0047749c     main_frame.obj
 0002:000114c0       ??_R1BE@?0A@EA@IMessageFilterUI@DuiLib@@8 004774c0     main_frame.obj
 0002:000114e4       ??_R3IMessageFilterUI@DuiLib@@8 004774e4     main_frame.obj
 0002:000114f8       ??_R2IMessageFilterUI@DuiLib@@8 004774f8     main_frame.obj
 0002:00011500       ??_R1A@?0A@EA@IMessageFilterUI@DuiLib@@8 00477500     main_frame.obj
 0002:00011524       ??_R1BI@?0A@EA@IDialogBuilderCallback@DuiLib@@8 00477524     main_frame.obj
 0002:00011548       ??_R3IDialogBuilderCallback@DuiLib@@8 00477548     main_frame.obj
 0002:0001155c       ??_R2IDialogBuilderCallback@DuiLib@@8 0047755c     main_frame.obj
 0002:00011564       ??_R1A@?0A@EA@IDialogBuilderCallback@DuiLib@@8 00477564     main_frame.obj
 0002:00011588       ??_R4MainFrame@@6BINotifyUI@DuiLib@@@ 00477588     main_frame.obj
 0002:000115a0       ??_R4MainFrame@@6BIMessageFilterUI@DuiLib@@@ 004775a0     main_frame.obj
 0002:000115b8       ??_R4MainFrame@@6BIDialogBuilderCallback@DuiLib@@@ 004775b8     main_frame.obj
 0002:000115d0       ??_R4bad_alloc@std@@6B@    004775d0     main_frame.obj
 0002:000115e8       ??_R3bad_alloc@std@@8      004775e8     main_frame.obj
 0002:000115fc       ??_R2bad_alloc@std@@8      004775fc     main_frame.obj
 0002:00011608       ??_R1A@?0A@EA@bad_alloc@std@@8 00477608     main_frame.obj
 0002:0001162c       ??_R1A@?0A@EA@exception@std@@8 0047762c     main_frame.obj
 0002:00011650       ??_R3exception@std@@8      00477650     main_frame.obj
 0002:00011664       ??_R2exception@std@@8      00477664     main_frame.obj
 0002:0001166c       ??_R4CMenuUI@DuiLib@@6BCControlUI@1@@ 0047766c     UIMenu.obj
 0002:00011684       ??_R3CMenuUI@DuiLib@@8     00477684     UIMenu.obj
 0002:00011698       ??_R2CMenuUI@DuiLib@@8     00477698     UIMenu.obj
 0002:000116c0       ??_R1A@?0A@EA@CMenuUI@DuiLib@@8 004776c0     UIMenu.obj
 0002:000116e4       ??_R1A@?0A@EA@CListUI@DuiLib@@8 004776e4     UIMenu.obj
 0002:00011708       ??_R3CListUI@DuiLib@@8     00477708     UIMenu.obj
 0002:0001171c       ??_R2CListUI@DuiLib@@8     0047771c     UIMenu.obj
 0002:00011740       ??_R1A@?0A@EA@CVerticalLayoutUI@DuiLib@@8 00477740     UIMenu.obj
 0002:00011764       ??_R3CVerticalLayoutUI@DuiLib@@8 00477764     UIMenu.obj
 0002:00011778       ??_R2CVerticalLayoutUI@DuiLib@@8 00477778     UIMenu.obj
 0002:0001178c       ??_R1A@?0A@EA@CContainerUI@DuiLib@@8 0047778c     UIMenu.obj
 0002:000117b0       ??_R3CContainerUI@DuiLib@@8 004777b0     UIMenu.obj
 0002:000117c4       ??_R2CContainerUI@DuiLib@@8 004777c4     UIMenu.obj
 0002:000117d4       ??_R1A@?0A@EA@CControlUI@DuiLib@@8 004777d4     UIMenu.obj
 0002:000117f8       ??_R3CControlUI@DuiLib@@8  004777f8     UIMenu.obj
 0002:0001180c       ??_R2CControlUI@DuiLib@@8  0047780c     UIMenu.obj
 0002:00011814       ??_R1CEA@?0A@EA@IContainerUI@DuiLib@@8 00477814     UIMenu.obj
 0002:00011838       ??_R3IContainerUI@DuiLib@@8 00477838     UIMenu.obj
 0002:0001184c       ??_R2IContainerUI@DuiLib@@8 0047784c     UIMenu.obj
 0002:00011854       ??_R1A@?0A@EA@IContainerUI@DuiLib@@8 00477854     UIMenu.obj
 0002:00011878       ??_R1CJE@?0A@EA@IListUI@DuiLib@@8 00477878     UIMenu.obj
 0002:0001189c       ??_R3IListUI@DuiLib@@8     0047789c     UIMenu.obj
 0002:000118b0       ??_R2IListUI@DuiLib@@8     004778b0     UIMenu.obj
 0002:000118bc       ??_R1A@?0A@EA@IListUI@DuiLib@@8 004778bc     UIMenu.obj
 0002:000118e0       ??_R1A@?0A@EA@IListOwnerUI@DuiLib@@8 004778e0     UIMenu.obj
 0002:00011904       ??_R3IListOwnerUI@DuiLib@@8 00477904     UIMenu.obj
 0002:00011918       ??_R2IListOwnerUI@DuiLib@@8 00477918     UIMenu.obj
 0002:00011920       ??_R1CJE@?0A@EA@IListOwnerUI@DuiLib@@8 00477920     UIMenu.obj
 0002:00011944       ??_R4CMenuUI@DuiLib@@6BIContainerUI@1@@ 00477944     UIMenu.obj
 0002:0001195c       ??_R4CMenuUI@DuiLib@@6B@   0047795c     UIMenu.obj
 0002:00011974       ??_R4CMenuWnd@DuiLib@@6BCWindowWnd@1@@ 00477974     UIMenu.obj
 0002:0001198c       ??_R3CMenuWnd@DuiLib@@8    0047798c     UIMenu.obj
 0002:000119a0       ??_R2CMenuWnd@DuiLib@@8    004779a0     UIMenu.obj
 0002:000119b4       ??_R1A@?0A@EA@CMenuWnd@DuiLib@@8 004779b4     UIMenu.obj
 0002:000119d8       ??_R1BA@?0A@EA@?$ReceiverImpl@HUContextMenuParam@DuiLib@@@@8 004779d8     UIMenu.obj
 0002:000119fc       ??_R3?$ReceiverImpl@HUContextMenuParam@DuiLib@@@@8 004779fc     UIMenu.obj
 0002:00011a10       ??_R2?$ReceiverImpl@HUContextMenuParam@DuiLib@@@@8 00477a10     UIMenu.obj
 0002:00011a1c       ??_R1A@?0A@EA@?$ReceiverImpl@HUContextMenuParam@DuiLib@@@@8 00477a1c     UIMenu.obj
 0002:00011a40       ??_R1A@?0A@EA@?$ReceiverImplBase@HUContextMenuParam@DuiLib@@@@8 00477a40     UIMenu.obj
 0002:00011a64       ??_R3?$ReceiverImplBase@HUContextMenuParam@DuiLib@@@@8 00477a64     UIMenu.obj
 0002:00011a78       ??_R2?$ReceiverImplBase@HUContextMenuParam@DuiLib@@@@8 00477a78     UIMenu.obj
 0002:00011a80       ??_R1BA@?0A@EA@?$ReceiverImplBase@HUContextMenuParam@DuiLib@@@@8 00477a80     UIMenu.obj
 0002:00011aa4       ??_R4CMenuWnd@DuiLib@@6B?$ReceiverImpl@HUContextMenuParam@DuiLib@@@@@ 00477aa4     UIMenu.obj
 0002:00011abc       ??_R4CMenuBuilderCallback@DuiLib@@6B@ 00477abc     UIMenu.obj
 0002:00011ad4       ??_R3CMenuBuilderCallback@DuiLib@@8 00477ad4     UIMenu.obj
 0002:00011ae8       ??_R2CMenuBuilderCallback@DuiLib@@8 00477ae8     UIMenu.obj
 0002:00011af4       ??_R1A@?0A@EA@CMenuBuilderCallback@DuiLib@@8 00477af4     UIMenu.obj
 0002:00011b18       ??_R4IDialogBuilderCallback@DuiLib@@6B@ 00477b18     UIMenu.obj
 0002:00011b30       ??_R4CMenuElementUI@DuiLib@@6BCControlUI@1@@ 00477b30     UIMenu.obj
 0002:00011b48       ??_R3CMenuElementUI@DuiLib@@8 00477b48     UIMenu.obj
 0002:00011b5c       ??_R2CMenuElementUI@DuiLib@@8 00477b5c     UIMenu.obj
 0002:00011b7c       ??_R1A@?0A@EA@CMenuElementUI@DuiLib@@8 00477b7c     UIMenu.obj
 0002:00011ba0       ??_R1A@?0A@EA@CListContainerElementUI@DuiLib@@8 00477ba0     UIMenu.obj
 0002:00011bc4       ??_R3CListContainerElementUI@DuiLib@@8 00477bc4     UIMenu.obj
 0002:00011bd8       ??_R2CListContainerElementUI@DuiLib@@8 00477bd8     UIMenu.obj
 0002:00011bf4       ??_R1CHA@?0A@EA@IListItemUI@DuiLib@@8 00477bf4     UIMenu.obj
 0002:00011c18       ??_R3IListItemUI@DuiLib@@8 00477c18     UIMenu.obj
 0002:00011c2c       ??_R2IListItemUI@DuiLib@@8 00477c2c     UIMenu.obj
 0002:00011c34       ??_R1A@?0A@EA@IListItemUI@DuiLib@@8 00477c34     UIMenu.obj
 0002:00011c58       ??_R4CMenuElementUI@DuiLib@@6BIContainerUI@1@@ 00477c58     UIMenu.obj
 0002:00011c70       ??_R4CMenuElementUI@DuiLib@@6B@ 00477c70     UIMenu.obj
 0002:00011c88       ??_R4?$ReceiverImpl@HUContextMenuParam@DuiLib@@@@6B@ 00477c88     UIMenu.obj
 0002:00011ca0       ??_R4?$ReceiverImplBase@HUContextMenuParam@DuiLib@@@@6B@ 00477ca0     UIMenu.obj
 0002:00011cb8       ??_R4?$ObserverImpl@HUContextMenuParam@DuiLib@@@@6B@ 00477cb8     UIMenu.obj
 0002:00011cd0       ??_R3?$ObserverImpl@HUContextMenuParam@DuiLib@@@@8 00477cd0     UIMenu.obj
 0002:00011ce4       ??_R2?$ObserverImpl@HUContextMenuParam@DuiLib@@@@8 00477ce4     UIMenu.obj
 0002:00011cf0       ??_R1A@?0A@EA@?$ObserverImpl@HUContextMenuParam@DuiLib@@@@8 00477cf0     UIMenu.obj
 0002:00011d14       ??_R1A@?0A@EA@?$ObserverImplBase@HUContextMenuParam@DuiLib@@@@8 00477d14     UIMenu.obj
 0002:00011d38       ??_R3?$ObserverImplBase@HUContextMenuParam@DuiLib@@@@8 00477d38     UIMenu.obj
 0002:00011d4c       ??_R2?$ObserverImplBase@HUContextMenuParam@DuiLib@@@@8 00477d4c     UIMenu.obj
 0002:00011d54       ??_R4?$ObserverImplBase@HUContextMenuParam@DuiLib@@@@6B@ 00477d54     UIMenu.obj
 0002:00011d6c       ??_R4WindowImplBase@@6BCWindowWnd@DuiLib@@@ 00477d6c     win_impl_base.obj
 0002:00011d84       ??_R4WindowImplBase@@6BINotifyUI@DuiLib@@@ 00477d84     win_impl_base.obj
 0002:00011d9c       ??_R4WindowImplBase@@6BIMessageFilterUI@DuiLib@@@ 00477d9c     win_impl_base.obj
 0002:00011db4       ??_R4WindowImplBase@@6BIDialogBuilderCallback@DuiLib@@@ 00477db4     win_impl_base.obj
 0002:00011dcc       ??_R4INotifyUI@DuiLib@@6B@ 00477dcc     win_impl_base.obj
 0002:00011de4       ??_R4IMessageFilterUI@DuiLib@@6B@ 00477de4     win_impl_base.obj
 0002:00011dfc       ??_R4invalid_argument@std@@6B@ 00477dfc     libcpmtd:xthrow.obj
 0002:00011e10       ??_R3invalid_argument@std@@8 00477e10     libcpmtd:xthrow.obj
 0002:00011e20       ??_R2invalid_argument@std@@8 00477e20     libcpmtd:xthrow.obj
 0002:00011e30       ??_R1A@?0A@EA@invalid_argument@std@@8 00477e30     libcpmtd:xthrow.obj
 0002:00011e4c       ??_R1A@?0A@EA@logic_error@std@@8 00477e4c     libcpmtd:xthrow.obj
 0002:00011e68       ??_R3logic_error@std@@8    00477e68     libcpmtd:xthrow.obj
 0002:00011e78       ??_R2logic_error@std@@8    00477e78     libcpmtd:xthrow.obj
 0002:00011e84       ??_R4logic_error@std@@6B@  00477e84     libcpmtd:xthrow.obj
 0002:00011e98       ??_R4length_error@std@@6B@ 00477e98     libcpmtd:xthrow.obj
 0002:00011eac       ??_R3length_error@std@@8   00477eac     libcpmtd:xthrow.obj
 0002:00011ebc       ??_R2length_error@std@@8   00477ebc     libcpmtd:xthrow.obj
 0002:00011ecc       ??_R1A@?0A@EA@length_error@std@@8 00477ecc     libcpmtd:xthrow.obj
 0002:00011ee8       ??_R4out_of_range@std@@6B@ 00477ee8     libcpmtd:xthrow.obj
 0002:00011efc       ??_R3out_of_range@std@@8   00477efc     libcpmtd:xthrow.obj
 0002:00011f0c       ??_R2out_of_range@std@@8   00477f0c     libcpmtd:xthrow.obj
 0002:00011f1c       ??_R1A@?0A@EA@out_of_range@std@@8 00477f1c     libcpmtd:xthrow.obj
 0002:00011f38       ??_R4overflow_error@std@@6B@ 00477f38     libcpmtd:xthrow.obj
 0002:00011f4c       ??_R3overflow_error@std@@8 00477f4c     libcpmtd:xthrow.obj
 0002:00011f5c       ??_R2overflow_error@std@@8 00477f5c     libcpmtd:xthrow.obj
 0002:00011f6c       ??_R1A@?0A@EA@overflow_error@std@@8 00477f6c     libcpmtd:xthrow.obj
 0002:00011f88       ??_R1A@?0A@EA@runtime_error@std@@8 00477f88     libcpmtd:xthrow.obj
 0002:00011fa4       ??_R3runtime_error@std@@8  00477fa4     libcpmtd:xthrow.obj
 0002:00011fb4       ??_R2runtime_error@std@@8  00477fb4     libcpmtd:xthrow.obj
 0002:00011fc0       ??_R4runtime_error@std@@6B@ 00477fc0     libcpmtd:xthrow.obj
 0002:00011fd4       ??_R4type_info@@6B@        00477fd4     LIBCMTD:typinfo.obj
 0002:00011fe8       ??_R3type_info@@8          00477fe8     LIBCMTD:typinfo.obj
 0002:00011ff8       ??_R2type_info@@8          00477ff8     LIBCMTD:typinfo.obj
 0002:00012000       ??_R1A@?0A@EA@type_info@@8 00478000     LIBCMTD:typinfo.obj
 0002:0001201c       ??_R4exception@std@@6B@    0047801c     LIBCMTD:stdexcpt.obj
 0002:00012030       ??_R4bad_cast@std@@6B@     00478030     LIBCMTD:stdexcpt.obj
 0002:00012044       ??_R3bad_cast@std@@8       00478044     LIBCMTD:stdexcpt.obj
 0002:00012054       ??_R2bad_cast@std@@8       00478054     LIBCMTD:stdexcpt.obj
 0002:00012060       ??_R1A@?0A@EA@bad_cast@std@@8 00478060     LIBCMTD:stdexcpt.obj
 0002:0001207c       ??_R4bad_typeid@std@@6B@   0047807c     LIBCMTD:stdexcpt.obj
 0002:00012090       ??_R3bad_typeid@std@@8     00478090     LIBCMTD:stdexcpt.obj
 0002:000120a0       ??_R2bad_typeid@std@@8     004780a0     LIBCMTD:stdexcpt.obj
 0002:000120ac       ??_R1A@?0A@EA@bad_typeid@std@@8 004780ac     LIBCMTD:stdexcpt.obj
 0002:000120c8       ??_R4__non_rtti_object@std@@6B@ 004780c8     LIBCMTD:stdexcpt.obj
 0002:000120dc       ??_R3__non_rtti_object@std@@8 004780dc     LIBCMTD:stdexcpt.obj
 0002:000120ec       ??_R2__non_rtti_object@std@@8 004780ec     LIBCMTD:stdexcpt.obj
 0002:000120fc       ??_R1A@?0A@EA@__non_rtti_object@std@@8 004780fc     LIBCMTD:stdexcpt.obj
 0002:00012118       ??_R4bad_exception@std@@6B@ 00478118     LIBCMTD:frame.obj
 0002:0001212c       ??_R3bad_exception@std@@8  0047812c     LIBCMTD:frame.obj
 0002:0001213c       ??_R2bad_exception@std@@8  0047813c     LIBCMTD:frame.obj
 0002:00012148       ??_R1A@?0A@EA@bad_exception@std@@8 00478148     LIBCMTD:frame.obj
 0002:00012360       ___safe_se_handler_table   00478360     <linker-defined>
 0002:0001257c       ___rtc_iaa                 0047857c     LIBCMTD:_initsect_.obj
 0002:00012798       ___rtc_izz                 00478798     LIBCMTD:_initsect_.obj
 0002:0001289c       ___rtc_taa                 0047889c     LIBCMTD:_initsect_.obj
 0002:00012ab8       ___rtc_tzz                 00478ab8     LIBCMTD:_initsect_.obj
 0002:00012de4       __TI2?AVbad_alloc@std@@    00478de4     main_frame.obj
 0002:00012df8       __CTA2?AVbad_alloc@std@@   00478df8     main_frame.obj
 0002:00012e08       __CT??_R0?AVbad_alloc@std@@@8??0bad_alloc@std@@QAE@ABV01@@Z12 00478e08     main_frame.obj
 0002:00012e28       __CT??_R0?AVexception@std@@@8??0exception@std@@QAE@ABV01@@Z12 00478e28     main_frame.obj
 0002:000136d4       __TI3?AVinvalid_argument@std@@ 004796d4     libcpmtd:xthrow.obj
 0002:000136e4       __CTA3?AVinvalid_argument@std@@ 004796e4     libcpmtd:xthrow.obj
 0002:000136f4       __CT??_R0?AVinvalid_argument@std@@@8??0invalid_argument@std@@QAE@ABV01@@Z12 004796f4     libcpmtd:xthrow.obj
 0002:00013710       __CT??_R0?AVlogic_error@std@@@8??0logic_error@std@@QAE@ABV01@@Z12 00479710     libcpmtd:xthrow.obj
 0002:0001372c       __TI3?AVlength_error@std@@ 0047972c     libcpmtd:xthrow.obj
 0002:0001373c       __CTA3?AVlength_error@std@@ 0047973c     libcpmtd:xthrow.obj
 0002:0001374c       __CT??_R0?AVlength_error@std@@@8??0length_error@std@@QAE@ABV01@@Z12 0047974c     libcpmtd:xthrow.obj
 0002:00013768       __TI3?AVout_of_range@std@@ 00479768     libcpmtd:xthrow.obj
 0002:00013778       __CTA3?AVout_of_range@std@@ 00479778     libcpmtd:xthrow.obj
 0002:00013788       __CT??_R0?AVout_of_range@std@@@8??0out_of_range@std@@QAE@ABV01@@Z12 00479788     libcpmtd:xthrow.obj
 0002:000137a4       __TI3?AVoverflow_error@std@@ 004797a4     libcpmtd:xthrow.obj
 0002:000137b4       __CTA3?AVoverflow_error@std@@ 004797b4     libcpmtd:xthrow.obj
 0002:000137c4       __CT??_R0?AVoverflow_error@std@@@8??0overflow_error@std@@QAE@ABV01@@Z12 004797c4     libcpmtd:xthrow.obj
 0002:000137e0       __CT??_R0?AVruntime_error@std@@@8??0runtime_error@std@@QAE@ABV01@@Z12 004797e0     libcpmtd:xthrow.obj
 0002:000137fc       __TI2?AVruntime_error@std@@ 004797fc     libcpmtd:xthrow.obj
 0002:0001380c       __CTA2?AVruntime_error@std@@ 0047980c     libcpmtd:xthrow.obj
 0002:0001393c       __TI3?AV__non_rtti_object@std@@ 0047993c     LIBCMTD:rtti.obj
 0002:0001396c       __CTA3?AV__non_rtti_object@std@@ 0047996c     LIBCMTD:rtti.obj
 0002:0001397c       __CT??_R0?AV__non_rtti_object@std@@@8??0__non_rtti_object@std@@QAE@ABV01@@Z12 0047997c     LIBCMTD:rtti.obj
 0002:00013998       __CT??_R0?AVbad_typeid@std@@@8??0bad_typeid@std@@QAE@ABV01@@Z12 00479998     LIBCMTD:rtti.obj
 0002:000139b4       __TI2?AVbad_typeid@std@@   004799b4     LIBCMTD:rtti.obj
 0002:000139e4       __CTA2?AVbad_typeid@std@@  004799e4     LIBCMTD:rtti.obj
 0002:000139f0       __TI2?AVbad_cast@std@@     004799f0     LIBCMTD:rtti.obj
 0002:00013a1c       __CTA2?AVbad_cast@std@@    00479a1c     LIBCMTD:rtti.obj
 0002:00013a28       __CT??_R0?AVbad_cast@std@@@8??0bad_cast@std@@QAE@ABV01@@Z12 00479a28     LIBCMTD:rtti.obj
 0002:00013d04       __TI2?AVbad_exception@std@@ 00479d04     LIBCMTD:frame.obj
 0002:00013d14       __CTA2?AVbad_exception@std@@ 00479d14     LIBCMTD:frame.obj
 0002:00013d20       __CT??_R0?AVbad_exception@std@@@8??0bad_exception@std@@QAE@ABV01@@Z12 00479d20     LIBCMTD:frame.obj
 0003:00000000       ?g_iDebugLevel@@3HA        0047b000     debug.obj
 0003:00000008       ?g_bLogSavePath@@3PADA     0047b008     debug.obj
 0003:00000144       ??_R0?AVMainFrame@@@8      0047b144     main_frame.obj
 0003:00000160       ??_R0?AVWindowImplBase@@@8 0047b160     main_frame.obj
 0003:00000184       ??_R0?AVCWindowWnd@DuiLib@@@8 0047b184     main_frame.obj
 0003:000001ac       ??_R0?AVINotifyUI@DuiLib@@@8 0047b1ac     main_frame.obj
 0003:000001d4       ??_R0?AVIMessageFilterUI@DuiLib@@@8 0047b1d4     main_frame.obj
 0003:00000204       ??_R0?AVIDialogBuilderCallback@DuiLib@@@8 0047b204     main_frame.obj
 0003:00000238       ??_R0?AVbad_alloc@std@@@8  0047b238     main_frame.obj
 0003:0000025c       ??_R0?AVexception@std@@@8  0047b25c     main_frame.obj
 0003:00000280       ??_R0?AVCMenuUI@DuiLib@@@8 0047b280     UIMenu.obj
 0003:000002a4       ??_R0?AVCListUI@DuiLib@@@8 0047b2a4     UIMenu.obj
 0003:000002c8       ??_R0?AVCVerticalLayoutUI@DuiLib@@@8 0047b2c8     UIMenu.obj
 0003:000002f8       ??_R0?AVCContainerUI@DuiLib@@@8 0047b2f8     UIMenu.obj
 0003:00000320       ??_R0?AVCControlUI@DuiLib@@@8 0047b320     UIMenu.obj
 0003:00000348       ??_R0?AVIContainerUI@DuiLib@@@8 0047b348     UIMenu.obj
 0003:00000370       ??_R0?AVIListUI@DuiLib@@@8 0047b370     UIMenu.obj
 0003:00000394       ??_R0?AVIListOwnerUI@DuiLib@@@8 0047b394     UIMenu.obj
 0003:000003bc       ??_R0?AVCMenuWnd@DuiLib@@@8 0047b3bc     UIMenu.obj
 0003:000003e0       ??_R0?AV?$ReceiverImpl@HUContextMenuParam@DuiLib@@@@@8 0047b3e0     UIMenu.obj
 0003:00000424       ??_R0?AV?$ReceiverImplBase@HUContextMenuParam@DuiLib@@@@@8 0047b424     UIMenu.obj
 0003:00000470       ??_R0?AVCMenuBuilderCallback@DuiLib@@@8 0047b470     UIMenu.obj
 0003:000004a4       ??_R0?AVCMenuElementUI@DuiLib@@@8 0047b4a4     UIMenu.obj
 0003:000004d0       ??_R0?AVCListContainerElementUI@DuiLib@@@8 0047b4d0     UIMenu.obj
 0003:00000508       ??_R0?AVIListItemUI@DuiLib@@@8 0047b508     UIMenu.obj
 0003:00000530       ??_R0?AV?$ObserverImpl@HUContextMenuParam@DuiLib@@@@@8 0047b530     UIMenu.obj
 0003:00000574       ??_R0?AV?$ObserverImplBase@HUContextMenuParam@DuiLib@@@@@8 0047b574     UIMenu.obj
 0003:000005c4       ??_R0?AVinvalid_argument@std@@@8 0047b5c4     libcpmtd:xthrow.obj
 0003:000005e8       ??_R0?AVlogic_error@std@@@8 0047b5e8     libcpmtd:xthrow.obj
 0003:00000608       ??_R0?AVlength_error@std@@@8 0047b608     libcpmtd:xthrow.obj
 0003:00000628       ??_R0?AVout_of_range@std@@@8 0047b628     libcpmtd:xthrow.obj
 0003:00000648       ??_R0?AVoverflow_error@std@@@8 0047b648     libcpmtd:xthrow.obj
 0003:0000066c       ??_R0?AVruntime_error@std@@@8 0047b66c     libcpmtd:xthrow.obj
 0003:0000068c       ___security_cookie         0047b68c     LIBCMTD:gs_cookie.obj
 0003:00000690       ___security_cookie_complement 0047b690     LIBCMTD:gs_cookie.obj
 0003:000006a0       ??_R0?AVtype_info@@@8      0047b6a0     LIBCMTD:typinfo.obj
 0003:000006c0       ??_R0?AVbad_cast@std@@@8   0047b6c0     LIBCMTD:stdexcpt.obj
 0003:000006dc       ??_R0?AVbad_typeid@std@@@8 0047b6dc     LIBCMTD:stdexcpt.obj
 0003:000006fc       ??_R0?AV__non_rtti_object@std@@@8 0047b6fc     LIBCMTD:stdexcpt.obj
 0003:00000724       ___app_type                0047b724     LIBCMTD:wincrt0.obj
 0003:00000728       ?_RTC_ErrorLevels@@3PAHA   0047b728     LIBCMTD:_error_.obj
 0003:000008b0       ___nullstring              0047b8b0     LIBCMTD:output.obj
 0003:000008b4       ___wnullstring             0047b8b4     LIBCMTD:output.obj
 0003:000008b8       __crtDbgFlag               0047b8b8     LIBCMTD:dbgheap.obj
 0003:000008bc       ___crtDebugFillThreshold   0047b8bc     LIBCMTD:dbgheap.obj
 0003:000008c4       __crtBreakAlloc            0047b8c4     LIBCMTD:dbgheap.obj
 0003:000008d0       __iob                      0047b8d0     LIBCMTD:_file.obj
 0003:00000c70       ___badioinfo               0047bc70     LIBCMTD:ioinit.obj
 0003:00000cb0       ??_R0?AVbad_exception@std@@@8 0047bcb0     LIBCMTD:frame.obj
 0003:00000cd0       ___flsindex                0047bcd0     LIBCMTD:tidtable.obj
 0003:00000cd4       ___getvalueindex           0047bcd4     LIBCMTD:tidtable.obj
 0003:00000ce0       ___initialmbcinfo          0047bce0     LIBCMTD:mbctype.obj
 0003:00000f00       __mbctype                  0047bf00     LIBCMTD:mbctype.obj
 0003:00001008       __mbcasemap                0047c008     LIBCMTD:mbctype.obj
 0003:00001108       ___ptmbcinfo               0047c108     LIBCMTD:mbctype.obj
 0003:00001200       ___globallocalestatus      0047c200     LIBCMTD:glstatus.obj
 0003:00001204       ___clocalestr              0047c204     LIBCMTD:nlsdata2.obj
 0003:00001208       ___lc_time_c               0047c208     LIBCMTD:nlsdata2.obj
 0003:00001370       ___initiallocinfo          0047c370     LIBCMTD:nlsdata2.obj
 0003:00001448       ___ptlocinfo               0047c448     LIBCMTD:nlsdata2.obj
 0003:0000144c       ___initiallocalestructinfo 0047c44c     LIBCMTD:nlsdata2.obj
 0003:00001454       ___abort_behavior          0047c454     LIBCMTD:abort.obj
 0003:00001458       __crtAssertBusy            0047c458     LIBCMTD:dbgrptt.obj
 0003:0000145c       __CrtDbgMode               0047c45c     LIBCMTD:dbgrptt.obj
 0003:00001468       __CrtDbgFile               0047c468     LIBCMTD:dbgrptt.obj
 0003:00001480       __pfnAllocHook             0047c480     LIBCMTD:dbghook.obj
 0003:00001488       __cfltcvt_tab              0047c488     LIBCMTD:cmiscdat.obj
 0003:000014b0       __NLG_Destination          0047c4b0     LIBCMTD:exsup.obj
 0003:000014c8       ___lconv_static_decimal    0047c4c8     LIBCMTD:lconv.obj
 0003:000014cc       ___lconv_static_W_decimal  0047c4cc     LIBCMTD:lconv.obj
 0003:000014d0       ___lconv_c                 0047c4d0     LIBCMTD:lconv.obj
 0003:00001520       ___lconv                   0047c520     LIBCMTD:lconv.obj
 0003:00001524       __pctype                   0047c524     LIBCMTD:ctype.obj
 0003:00001528       __pwctype                  0047c528     LIBCMTD:ctype.obj
 0003:00001530       __confh                    0047c530     LIBCMTD:initcon.obj
 0003:00001538       __lookuptrailbytes         0047c538     LIBCMTD:read.obj
 0003:00001640       ___mb_cur_max              0047c640     LIBCMTD:nlsdata1.obj
 0003:00001644       ___decimal_point           0047c644     LIBCMTD:nlsdata1.obj
 0003:00001648       ___decimal_point_length    0047c648     LIBCMTD:nlsdata1.obj
 0003:00001ac0       ?g_bSaveLogFile@@3_NA      0047cac0     debug.obj
 0003:00001c2c       ?s_context_menu_observer@DuiLib@@3V?$ObserverImpl@HUContextMenuParam@DuiLib@@@@A 0047cc2c     UIMenu.obj
 0003:00001cbc       ___pInvalidArgHandler      0047ccbc     LIBCMTD:invarg.obj
 0003:00001cc0       __aenvptr                  0047ccc0     LIBCMTD:wincrt0.obj
 0003:00001cc4       __wenvptr                  0047ccc4     LIBCMTD:wincrt0.obj
 0003:00001cc8       ___error_mode              0047ccc8     LIBCMTD:wincrt0.obj
 0003:00001ff4       ?wsprintffp@@3P6AHPADPBDZZA 0047cff4     LIBCMTD:_error_.obj
 0003:00002014       ?_pfnDumpClient@@3P6AXPAXI@ZA 0047d014     LIBCMTD:dbgheap.obj
 0003:0000201c       ___crtDebugCheckCount      0047d01c     LIBCMTD:dbgheap.obj
 0003:00002024       __cflush                   0047d024     LIBCMTD:_file.obj
 0003:00002190       __stdbuf                   0047d190     LIBCMTD:_sftbuf.obj
 0003:00002198       _gpFlsAlloc                0047d198     LIBCMTD:tidtable.obj
 0003:0000219c       _gpFlsGetValue             0047d19c     LIBCMTD:tidtable.obj
 0003:000021a0       _gpFlsSetValue             0047d1a0     LIBCMTD:tidtable.obj
 0003:000021a4       _gpFlsFree                 0047d1a4     LIBCMTD:tidtable.obj
 0003:000021a8       ?__pInconsistency@@3P6AXXZA 0047d1a8     LIBCMTD:hooks.obj
 0003:000021ac       __umaskval                 0047d1ac     LIBCMTD:crt0dat.obj
 0003:000021b0       ___argc                    0047d1b0     LIBCMTD:crt0dat.obj
 0003:000021b4       ___argv                    0047d1b4     LIBCMTD:crt0dat.obj
 0003:000021b8       ___wargv                   0047d1b8     LIBCMTD:crt0dat.obj
 0003:000021bc       __environ                  0047d1bc     LIBCMTD:crt0dat.obj
 0003:000021c0       ___initenv                 0047d1c0     LIBCMTD:crt0dat.obj
 0003:000021c4       __wenviron                 0047d1c4     LIBCMTD:crt0dat.obj
 0003:000021c8       ___winitenv                0047d1c8     LIBCMTD:crt0dat.obj
 0003:000021cc       __pgmptr                   0047d1cc     LIBCMTD:crt0dat.obj
 0003:000021d0       __wpgmptr                  0047d1d0     LIBCMTD:crt0dat.obj
 0003:000021d4       __exitflag                 0047d1d4     LIBCMTD:crt0dat.obj
 0003:000021d8       __C_Termination_Done       0047d1d8     LIBCMTD:crt0dat.obj
 0003:000021dc       __C_Exit_Done              0047d1dc     LIBCMTD:crt0dat.obj
 0003:000021ec       ?_pnhHeap@@3P6AHI@ZA       0047d1ec     LIBCMTD:handler.obj
 0003:000021f4       ___mbulinfo                0047d1f4     LIBCMTD:mbctype.obj
 0003:00002200       ___mbcodepage              0047d200     LIBCMTD:mbctype.obj
 0003:00002204       ___ismbcodepage            0047d204     LIBCMTD:mbctype.obj
 0003:00002208       ___mblcid                  0047d208     LIBCMTD:mbctype.obj
 0003:00002838       ___pPurecall               0047d838     LIBCMTD:inithelp.obj
 0003:00002970       __crtheap                  0047d970     LIBCMTD:heapinit.obj
 0003:00002980       __newmode                  0047d980     LIBCMTD:_newmode.obj
 0003:00002984       __commode                  0047d984     LIBCMTD:ncommode.obj
 0003:000029a0       ?pArgList@UnDecorator@@0PAVReplicator@@A 0047d9a0     LIBCMTD:undname.obj
 0003:000029a4       ?pZNameList@UnDecorator@@0PAVReplicator@@A 0047d9a4     LIBCMTD:undname.obj
 0003:000029a8       ?pTemplateArgList@UnDecorator@@0PAVReplicator@@A 0047d9a8     LIBCMTD:undname.obj
 0003:000029ac       ?gName@UnDecorator@@0PBDB  0047d9ac     LIBCMTD:undname.obj
 0003:000029b0       ?name@UnDecorator@@0PBDB   0047d9b0     LIBCMTD:undname.obj
 0003:000029b4       ?outputString@UnDecorator@@0PADA 0047d9b4     LIBCMTD:undname.obj
 0003:000029b8       ?maxStringLength@UnDecorator@@0HA 0047d9b8     LIBCMTD:undname.obj
 0003:000029bc       ?disableFlags@UnDecorator@@0KA 0047d9bc     LIBCMTD:undname.obj
 0003:000029c0       ?m_pGetParameter@UnDecorator@@0P6APADJ@ZA 0047d9c0     LIBCMTD:undname.obj
 0003:000029c4       ?fExplicitTemplateParams@UnDecorator@@0_NA 0047d9c4     LIBCMTD:undname.obj
 0003:000029c5       ?fGetTemplateArgumentList@UnDecorator@@0_NA 0047d9c5     LIBCMTD:undname.obj
 0003:00002a18       ?nodes@?1??make@DNameStatusNode@@SAPAV2@W4DNameStatus@@@Z@4PAV2@A 0047da18     LIBCMTD:undname.obj
 0003:00002a48       ??_B?1??make@DNameStatusNode@@SAPAV1@W4DNameStatus@@@Z@51 0047da48     LIBCMTD:undname.obj
 0003:00002a4c       ___locale_changed          0047da4c     LIBCMTD:setlocal.obj
 0003:00002a50       ___lconv_static_null       0047da50     LIBCMTD:lconv.obj
 0003:00002a54       ___lconv_static_W_null     0047da54     LIBCMTD:lconv.obj
 0003:00002a6c       __fmode                    0047da6c     LIBCMTD:txtmode.obj
 0003:00002a70       ___setlc_active            0047da70     <common>
 0003:00002a80       ___unguarded_readlc_active 0047da80     <common>
 0003:00002a84       __debugger_hook_dummy      0047da84     <common>
 0003:00002a90       __pfnReportHook            0047da90     <common>
 0003:00002aa0       __pReportHookListW         0047daa0     <common>
 0003:00002aa4       __pReportHookList          0047daa4     <common>
 0003:00002aa8       ___env_initialized         0047daa8     <common>
 0003:00002ab8       ___onexitend               0047dab8     <common>
 0003:00002abc       ___onexitbegin             0047dabc     <common>
 0003:00002ac0       ___mbctype_initialized     0047dac0     <common>
 0003:00002ac4       __FPinit                   0047dac4     <common>
 0003:00002ac8       ___dyn_tls_init_callback   0047dac8     <common>
 0003:00002acc       __nhandle                  0047dacc     <common>
 0003:00002b20       ___pioinfo                 0047db20     <common>
 0003:00002c20       ___piob                    0047dc20     <common>
 0003:00002f60       __bufin                    0047df60     <common>
 0003:00003f60       __nstream                  0047ef60     <common>
 0003:00003f64       ___sse2_available          0047ef64     <common>
 0003:00003f70       __acmdln                   0047ef70     <common>
 0003:00003f80       __NoHeapEnableTerminationOnCorruption 0047ef80     <common>
 0004:00000000       __IMPORT_DESCRIPTOR_KERNEL32 0047f000     kernel32:KERNEL32.dll
 0004:00000014       __IMPORT_DESCRIPTOR_USER32 0047f014     user32:USER32.dll
 0004:00000028       __IMPORT_DESCRIPTOR_GDI32  0047f028     gdi32:GDI32.dll
 0004:0000003c       __IMPORT_DESCRIPTOR_ole32  0047f03c     ole32:ole32.dll
 0004:00000050       __IMPORT_DESCRIPTOR_DuiLib_d 0047f050     DuiLib_d:DuiLib_d.dll
 0004:00000064       __NULL_IMPORT_DESCRIPTOR   0047f064     kernel32:KERNEL32.dll
 0004:000007c4       __imp_??4CStdString@DuiLib@@QAEABV01@PBD@Z 0047f7c4     DuiLib_d:DuiLib_d.dll
 0004:000007c8       __imp_?SetInstance@CPaintManagerUI@DuiLib@@SAXPAUHINSTANCE__@@@Z 0047f7c8     DuiLib_d:DuiLib_d.dll
 0004:000007cc       __imp_?Create@CWindowWnd@DuiLib@@QAEPAUHWND__@@PAU3@PBDKKHHHHPAUHMENU__@@@Z 0047f7cc     DuiLib_d:DuiLib_d.dll
 0004:000007d0       __imp_?CenterWindow@CWindowWnd@DuiLib@@QAEXXZ 0047f7d0     DuiLib_d:DuiLib_d.dll
 0004:000007d4       __imp_?MessageLoop@CPaintManagerUI@DuiLib@@SAXXZ 0047f7d4     DuiLib_d:DuiLib_d.dll
 0004:000007d8       __imp_?AddPreMessageFilter@CPaintManagerUI@DuiLib@@QAE_NPAVIMessageFilterUI@2@@Z 0047f7d8     DuiLib_d:DuiLib_d.dll
 0004:000007dc       __imp_?SetResourcePath@CPaintManagerUI@DuiLib@@SAXPBD@Z 0047f7dc     DuiLib_d:DuiLib_d.dll
 0004:000007e0       __imp_?AddNotifier@CPaintManagerUI@DuiLib@@QAE_NPAVINotifyUI@2@@Z 0047f7e0     DuiLib_d:DuiLib_d.dll
 0004:000007e4       __imp_?GetRoundCorner@CPaintManagerUI@DuiLib@@QBE?AUtagSIZE@@XZ 0047f7e4     DuiLib_d:DuiLib_d.dll
 0004:000007e8       __imp_?Offset@CRect@DuiLib@@QAEXHH@Z 0047f7e8     DuiLib_d:DuiLib_d.dll
 0004:000007ec       __imp_?GetSizeBox@CPaintManagerUI@DuiLib@@QAEAAUtagRECT@@XZ 0047f7ec     DuiLib_d:DuiLib_d.dll
 0004:000007f0       __imp_?GetCaptionRect@CPaintManagerUI@DuiLib@@QAEAAUtagRECT@@XZ 0047f7f0     DuiLib_d:DuiLib_d.dll
 0004:000007f4       __imp_?FindControl@CPaintManagerUI@DuiLib@@QBEPAVCControlUI@2@UtagPOINT@@@Z 0047f7f4     DuiLib_d:DuiLib_d.dll
 0004:000007f8       __imp_?RemovePreMessageFilter@CPaintManagerUI@DuiLib@@QAE_NPAVIMessageFilterUI@2@@Z 0047f7f8     DuiLib_d:DuiLib_d.dll
 0004:000007fc       __imp_?RemoveNotifier@CPaintManagerUI@DuiLib@@QAE_NPAVINotifyUI@2@@Z 0047f7fc     DuiLib_d:DuiLib_d.dll
 0004:00000800       __imp_?GetRoot@CPaintManagerUI@DuiLib@@QBEPAVCControlUI@2@XZ 0047f800     DuiLib_d:DuiLib_d.dll
 0004:00000804       __imp_?ReapObjects@CPaintManagerUI@DuiLib@@QAEXPAVCControlUI@2@@Z 0047f804     DuiLib_d:DuiLib_d.dll
 0004:00000808       __imp_??1CPaintManagerUI@DuiLib@@QAE@XZ 0047f808     DuiLib_d:DuiLib_d.dll
 0004:0000080c       __imp_??0CPoint@DuiLib@@QAE@XZ 0047f80c     DuiLib_d:DuiLib_d.dll
 0004:00000810       __imp_?Activate@CListContainerElementUI@DuiLib@@UAE_NXZ 0047f810     DuiLib_d:DuiLib_d.dll
 0004:00000814       __imp_?DoEvent@CListContainerElementUI@DuiLib@@UAEXAAUtagTEventUI@2@@Z 0047f814     DuiLib_d:DuiLib_d.dll
 0004:00000818       __imp_?GetPaintDC@CPaintManagerUI@DuiLib@@QBEPAUHDC__@@XZ 0047f818     DuiLib_d:DuiLib_d.dll
 0004:0000081c       __imp_?IsEmpty@CStdString@DuiLib@@QBE_NXZ 0047f81c     DuiLib_d:DuiLib_d.dll
 0004:00000820       __imp_?DrawHtmlText@CRenderEngine@DuiLib@@SAXPAUHDC__@@PAVCPaintManagerUI@2@AAUtagRECT@@PBDKPAU5@PAVCStdString@2@AAHI@Z 0047f820     DuiLib_d:DuiLib_d.dll
 0004:00000824       __imp_?DrawTextA@CRenderEngine@DuiLib@@SAXPAUHDC__@@PAVCPaintManagerUI@2@AAUtagRECT@@PBDKHI@Z 0047f824     DuiLib_d:DuiLib_d.dll
 0004:00000828       __imp_?DrawItemBk@CListContainerElementUI@DuiLib@@QAEXPAUHDC__@@ABUtagRECT@@@Z 0047f828     DuiLib_d:DuiLib_d.dll
 0004:0000082c       __imp_?GetInterface@CListContainerElementUI@DuiLib@@UAEPAXPBD@Z 0047f82c     DuiLib_d:DuiLib_d.dll
 0004:00000830       __imp_?Expand@CListContainerElementUI@DuiLib@@UAE_N_N@Z 0047f830     DuiLib_d:DuiLib_d.dll
 0004:00000834       __imp_?IsExpanded@CListContainerElementUI@DuiLib@@UBE_NXZ 0047f834     DuiLib_d:DuiLib_d.dll
 0004:00000838       __imp_?Select@CListContainerElementUI@DuiLib@@UAE_N_N@Z 0047f838     DuiLib_d:DuiLib_d.dll
 0004:0000083c       __imp_?IsSelected@CListContainerElementUI@DuiLib@@UBE_NXZ 0047f83c     DuiLib_d:DuiLib_d.dll
 0004:00000840       __imp_?SetOwner@CListContainerElementUI@DuiLib@@UAEXPAVCControlUI@2@@Z 0047f840     DuiLib_d:DuiLib_d.dll
 0004:00000844       __imp_?GetOwner@CListContainerElementUI@DuiLib@@UAEPAVIListOwnerUI@2@XZ 0047f844     DuiLib_d:DuiLib_d.dll
 0004:00000848       __imp_?SetIndex@CListContainerElementUI@DuiLib@@UAEXH@Z 0047f848     DuiLib_d:DuiLib_d.dll
 0004:0000084c       __imp_?GetIndex@CListContainerElementUI@DuiLib@@UBEHXZ 0047f84c     DuiLib_d:DuiLib_d.dll
 0004:00000850       __imp_?GetSuperClassName@CWindowWnd@DuiLib@@MBEPBDXZ 0047f850     DuiLib_d:DuiLib_d.dll
 0004:00000854       __imp_??1CStdString@DuiLib@@QAE@XZ 0047f854     DuiLib_d:DuiLib_d.dll
 0004:00000858       __imp_??BCStdString@DuiLib@@QBEPBDXZ 0047f858     DuiLib_d:DuiLib_d.dll
 0004:0000085c       __imp_?GetInstancePath@CPaintManagerUI@DuiLib@@SA?AVCStdString@2@XZ 0047f85c     DuiLib_d:DuiLib_d.dll
 0004:00000860       __imp_?FindControl@CPaintManagerUI@DuiLib@@QBEPAVCControlUI@2@PBD@Z 0047f860     DuiLib_d:DuiLib_d.dll
 0004:00000864       __imp_?HandleMessage@CWindowWnd@DuiLib@@MAEJIIJ@Z 0047f864     DuiLib_d:DuiLib_d.dll
 0004:00000868       __imp_?Close@CWindowWnd@DuiLib@@QAEXI@Z 0047f868     DuiLib_d:DuiLib_d.dll
 0004:0000086c       __imp_??0CPoint@DuiLib@@QAE@ABUtagPOINT@@@Z 0047f86c     DuiLib_d:DuiLib_d.dll
 0004:00000870       __imp_?SendMessageA@CWindowWnd@DuiLib@@QAEJIIJ@Z 0047f870     DuiLib_d:DuiLib_d.dll
 0004:00000874       __imp_??1CListUI@DuiLib@@UAE@XZ 0047f874     DuiLib_d:DuiLib_d.dll
 0004:00000878       __imp_?GetHeader@CListUI@DuiLib@@UBEPAVCListHeaderUI@2@XZ 0047f878     DuiLib_d:DuiLib_d.dll
 0004:0000087c       __imp_??0CListUI@DuiLib@@QAE@XZ 0047f87c     DuiLib_d:DuiLib_d.dll
 0004:00000880       __imp_?GetName@CControlUI@DuiLib@@UBE?AVCStdString@2@XZ 0047f880     DuiLib_d:DuiLib_d.dll
 0004:00000884       __imp_?SetName@CControlUI@DuiLib@@UAEXPBD@Z 0047f884     DuiLib_d:DuiLib_d.dll
 0004:00000888       __imp_?GetControlFlags@CListUI@DuiLib@@UBEIXZ 0047f888     DuiLib_d:DuiLib_d.dll
 0004:0000088c       __imp_?Activate@CControlUI@DuiLib@@UAE_NXZ 0047f88c     DuiLib_d:DuiLib_d.dll
 0004:00000890       __imp_?GetManager@CControlUI@DuiLib@@UBEPAVCPaintManagerUI@2@XZ 0047f890     DuiLib_d:DuiLib_d.dll
 0004:00000894       __imp_?SetManager@CContainerUI@DuiLib@@UAEXPAVCPaintManagerUI@2@PAVCControlUI@2@_N@Z 0047f894     DuiLib_d:DuiLib_d.dll
 0004:00000898       __imp_?GetParent@CControlUI@DuiLib@@UBEPAV12@XZ 0047f898     DuiLib_d:DuiLib_d.dll
 0004:0000089c       __imp_?GetText@CControlUI@DuiLib@@UBE?AVCStdString@2@XZ 0047f89c     DuiLib_d:DuiLib_d.dll
 0004:000008a0       __imp_?SetText@CControlUI@DuiLib@@UAEXPBD@Z 0047f8a0     DuiLib_d:DuiLib_d.dll
 0004:000008a4       __imp_?GetPos@CControlUI@DuiLib@@UBEABUtagRECT@@XZ 0047f8a4     DuiLib_d:DuiLib_d.dll
 0004:000008a8       __imp_?SetPos@CListUI@DuiLib@@UAEXUtagRECT@@@Z 0047f8a8     DuiLib_d:DuiLib_d.dll
 0004:000008ac       __imp_?GetWidth@CControlUI@DuiLib@@UBEHXZ 0047f8ac     DuiLib_d:DuiLib_d.dll
 0004:000008b0       __imp_?GetHeight@CControlUI@DuiLib@@UBEHXZ 0047f8b0     DuiLib_d:DuiLib_d.dll
 0004:000008b4       __imp_?GetX@CControlUI@DuiLib@@UBEHXZ 0047f8b4     DuiLib_d:DuiLib_d.dll
 0004:000008b8       __imp_?GetY@CControlUI@DuiLib@@UBEHXZ 0047f8b8     DuiLib_d:DuiLib_d.dll
 0004:000008bc       __imp_?GetPadding@CControlUI@DuiLib@@UBE?AUtagRECT@@XZ 0047f8bc     DuiLib_d:DuiLib_d.dll
 0004:000008c0       __imp_?SetPadding@CControlUI@DuiLib@@UAEXUtagRECT@@@Z 0047f8c0     DuiLib_d:DuiLib_d.dll
 0004:000008c4       __imp_?GetFixedXY@CControlUI@DuiLib@@UBE?AUtagSIZE@@XZ 0047f8c4     DuiLib_d:DuiLib_d.dll
 0004:000008c8       __imp_?SetFixedXY@CControlUI@DuiLib@@UAEXUtagSIZE@@@Z 0047f8c8     DuiLib_d:DuiLib_d.dll
 0004:000008cc       __imp_?GetFixedWidth@CControlUI@DuiLib@@UBEHXZ 0047f8cc     DuiLib_d:DuiLib_d.dll
 0004:000008d0       __imp_?SetFixedWidth@CControlUI@DuiLib@@UAEXH@Z 0047f8d0     DuiLib_d:DuiLib_d.dll
 0004:000008d4       __imp_?GetFixedHeight@CControlUI@DuiLib@@UBEHXZ 0047f8d4     DuiLib_d:DuiLib_d.dll
 0004:000008d8       __imp_?SetFixedHeight@CControlUI@DuiLib@@UAEXH@Z 0047f8d8     DuiLib_d:DuiLib_d.dll
 0004:000008dc       __imp_?GetMinWidth@CControlUI@DuiLib@@UBEHXZ 0047f8dc     DuiLib_d:DuiLib_d.dll
 0004:000008e0       __imp_?SetMinWidth@CControlUI@DuiLib@@UAEXH@Z 0047f8e0     DuiLib_d:DuiLib_d.dll
 0004:000008e4       __imp_?GetMaxWidth@CControlUI@DuiLib@@UBEHXZ 0047f8e4     DuiLib_d:DuiLib_d.dll
 0004:000008e8       __imp_?SetMaxWidth@CControlUI@DuiLib@@UAEXH@Z 0047f8e8     DuiLib_d:DuiLib_d.dll
 0004:000008ec       __imp_?GetMinHeight@CControlUI@DuiLib@@UBEHXZ 0047f8ec     DuiLib_d:DuiLib_d.dll
 0004:000008f0       __imp_?SetMinHeight@CControlUI@DuiLib@@UAEXH@Z 0047f8f0     DuiLib_d:DuiLib_d.dll
 0004:000008f4       __imp_?GetMaxHeight@CControlUI@DuiLib@@UBEHXZ 0047f8f4     DuiLib_d:DuiLib_d.dll
 0004:000008f8       __imp_?SetMaxHeight@CControlUI@DuiLib@@UAEXH@Z 0047f8f8     DuiLib_d:DuiLib_d.dll
 0004:000008fc       __imp_?SetRelativePos@CControlUI@DuiLib@@UAEXUtagSIZE@@0@Z 0047f8fc     DuiLib_d:DuiLib_d.dll
 0004:00000900       __imp_?SetRelativeParentSize@CControlUI@DuiLib@@UAEXUtagSIZE@@@Z 0047f900     DuiLib_d:DuiLib_d.dll
 0004:00000904       __imp_?GetRelativePos@CControlUI@DuiLib@@UBE?AUtagTRelativePosUI@2@XZ 0047f904     DuiLib_d:DuiLib_d.dll
 0004:00000908       __imp_?IsRelativePos@CControlUI@DuiLib@@UBE_NXZ 0047f908     DuiLib_d:DuiLib_d.dll
 0004:0000090c       __imp_?GetToolTip@CControlUI@DuiLib@@UBE?AVCStdString@2@XZ 0047f90c     DuiLib_d:DuiLib_d.dll
 0004:00000910       __imp_?SetToolTip@CControlUI@DuiLib@@UAEXPBD@Z 0047f910     DuiLib_d:DuiLib_d.dll
 0004:00000914       __imp_?GetShortcut@CControlUI@DuiLib@@UBEDXZ 0047f914     DuiLib_d:DuiLib_d.dll
 0004:00000918       __imp_?SetShortcut@CControlUI@DuiLib@@UAEXD@Z 0047f918     DuiLib_d:DuiLib_d.dll
 0004:0000091c       __imp_?IsContextMenuUsed@CControlUI@DuiLib@@UBE_NXZ 0047f91c     DuiLib_d:DuiLib_d.dll
 0004:00000920       __imp_?SetContextMenuUsed@CControlUI@DuiLib@@UAEX_N@Z 0047f920     DuiLib_d:DuiLib_d.dll
 0004:00000924       __imp_?GetUserData@CControlUI@DuiLib@@UAEABVCStdString@2@XZ 0047f924     DuiLib_d:DuiLib_d.dll
 0004:00000928       __imp_?SetUserData@CControlUI@DuiLib@@UAEXPBD@Z 0047f928     DuiLib_d:DuiLib_d.dll
 0004:0000092c       __imp_?GetTag@CControlUI@DuiLib@@UBEIXZ 0047f92c     DuiLib_d:DuiLib_d.dll
 0004:00000930       __imp_?SetTag@CControlUI@DuiLib@@UAEXI@Z 0047f930     DuiLib_d:DuiLib_d.dll
 0004:00000934       __imp_?IsVisible@CControlUI@DuiLib@@UBE_NXZ 0047f934     DuiLib_d:DuiLib_d.dll
 0004:00000938       __imp_?SetVisible@CContainerUI@DuiLib@@UAEX_N@Z 0047f938     DuiLib_d:DuiLib_d.dll
 0004:0000093c       __imp_?SetInternVisible@CContainerUI@DuiLib@@UAEX_N@Z 0047f93c     DuiLib_d:DuiLib_d.dll
 0004:00000940       __imp_?IsEnabled@CControlUI@DuiLib@@UBE_NXZ 0047f940     DuiLib_d:DuiLib_d.dll
 0004:00000944       __imp_?SetEnabled@CControlUI@DuiLib@@UAEX_N@Z 0047f944     DuiLib_d:DuiLib_d.dll
 0004:00000948       __imp_?IsMouseEnabled@CControlUI@DuiLib@@UBE_NXZ 0047f948     DuiLib_d:DuiLib_d.dll
 0004:0000094c       __imp_?SetMouseEnabled@CContainerUI@DuiLib@@UAEX_N@Z 0047f94c     DuiLib_d:DuiLib_d.dll
 0004:00000950       __imp_?IsKeyboardEnabled@CControlUI@DuiLib@@UBE_NXZ 0047f950     DuiLib_d:DuiLib_d.dll
 0004:00000954       __imp_?SetKeyboardEnabled@CControlUI@DuiLib@@UAEX_N@Z 0047f954     DuiLib_d:DuiLib_d.dll
 0004:00000958       __imp_?IsFocused@CControlUI@DuiLib@@UBE_NXZ 0047f958     DuiLib_d:DuiLib_d.dll
 0004:0000095c       __imp_?SetFocus@CControlUI@DuiLib@@UAEXXZ 0047f95c     DuiLib_d:DuiLib_d.dll
 0004:00000960       __imp_?IsFloat@CControlUI@DuiLib@@UBE_NXZ 0047f960     DuiLib_d:DuiLib_d.dll
 0004:00000964       __imp_?SetFloat@CControlUI@DuiLib@@UAEX_N@Z 0047f964     DuiLib_d:DuiLib_d.dll
 0004:00000968       __imp_?FindControl@CContainerUI@DuiLib@@UAEPAVCControlUI@2@P6GPAV32@PAV32@PAX@Z1I@Z 0047f968     DuiLib_d:DuiLib_d.dll
 0004:0000096c       __imp_?Init@CControlUI@DuiLib@@UAEXXZ 0047f96c     DuiLib_d:DuiLib_d.dll
 0004:00000970       __imp_?DoInit@CControlUI@DuiLib@@UAEXXZ 0047f970     DuiLib_d:DuiLib_d.dll
 0004:00000974       __imp_?Event@CControlUI@DuiLib@@UAEXAAUtagTEventUI@2@@Z 0047f974     DuiLib_d:DuiLib_d.dll
 0004:00000978       __imp_?DoPaint@CContainerUI@DuiLib@@UAEXPAUHDC__@@ABUtagRECT@@@Z 0047f978     DuiLib_d:DuiLib_d.dll
 0004:0000097c       __imp_?PaintBkColor@CControlUI@DuiLib@@UAEXPAUHDC__@@@Z 0047f97c     DuiLib_d:DuiLib_d.dll
 0004:00000980       __imp_?PaintBkImage@CControlUI@DuiLib@@UAEXPAUHDC__@@@Z 0047f980     DuiLib_d:DuiLib_d.dll
 0004:00000984       __imp_?PaintStatusImage@CControlUI@DuiLib@@UAEXPAUHDC__@@@Z 0047f984     DuiLib_d:DuiLib_d.dll
 0004:00000988       __imp_?PaintText@CControlUI@DuiLib@@UAEXPAUHDC__@@@Z 0047f988     DuiLib_d:DuiLib_d.dll
 0004:0000098c       __imp_?PaintBorder@CControlUI@DuiLib@@UAEXPAUHDC__@@@Z 0047f98c     DuiLib_d:DuiLib_d.dll
 0004:00000990       __imp_?DoPostPaint@CVerticalLayoutUI@DuiLib@@UAEXPAUHDC__@@ABUtagRECT@@@Z 0047f990     DuiLib_d:DuiLib_d.dll
 0004:00000994       __imp_?GetInset@CContainerUI@DuiLib@@UBE?AUtagRECT@@XZ 0047f994     DuiLib_d:DuiLib_d.dll
 0004:00000998       __imp_?SetInset@CContainerUI@DuiLib@@UAEXUtagRECT@@@Z 0047f998     DuiLib_d:DuiLib_d.dll
 0004:0000099c       __imp_?GetChildPadding@CListUI@DuiLib@@UBEHXZ 0047f99c     DuiLib_d:DuiLib_d.dll
 0004:000009a0       __imp_?SetChildPadding@CListUI@DuiLib@@UAEXH@Z 0047f9a0     DuiLib_d:DuiLib_d.dll
 0004:000009a4       __imp_?IsAutoDestroy@CContainerUI@DuiLib@@UBE_NXZ 0047f9a4     DuiLib_d:DuiLib_d.dll
 0004:000009a8       __imp_?SetAutoDestroy@CContainerUI@DuiLib@@UAEX_N@Z 0047f9a8     DuiLib_d:DuiLib_d.dll
 0004:000009ac       __imp_?IsDelayedDestroy@CContainerUI@DuiLib@@UBE_NXZ 0047f9ac     DuiLib_d:DuiLib_d.dll
 0004:000009b0       __imp_?SetDelayedDestroy@CContainerUI@DuiLib@@UAEX_N@Z 0047f9b0     DuiLib_d:DuiLib_d.dll
 0004:000009b4       __imp_?IsMouseChildEnabled@CContainerUI@DuiLib@@UBE_NXZ 0047f9b4     DuiLib_d:DuiLib_d.dll
 0004:000009b8       __imp_?SetMouseChildEnabled@CContainerUI@DuiLib@@UAEX_N@Z 0047f9b8     DuiLib_d:DuiLib_d.dll
 0004:000009bc       __imp_?FindSelectable@CContainerUI@DuiLib@@UBEHH_N@Z 0047f9bc     DuiLib_d:DuiLib_d.dll
 0004:000009c0       __imp_?GetScrollPos@CListUI@DuiLib@@UBE?AUtagSIZE@@XZ 0047f9c0     DuiLib_d:DuiLib_d.dll
 0004:000009c4       __imp_?GetScrollRange@CListUI@DuiLib@@UBE?AUtagSIZE@@XZ 0047f9c4     DuiLib_d:DuiLib_d.dll
 0004:000009c8       __imp_?SetScrollPos@CListUI@DuiLib@@UAEXUtagSIZE@@@Z 0047f9c8     DuiLib_d:DuiLib_d.dll
 0004:000009cc       __imp_?LineUp@CListUI@DuiLib@@UAEXXZ 0047f9cc     DuiLib_d:DuiLib_d.dll
 0004:000009d0       __imp_?LineDown@CListUI@DuiLib@@UAEXXZ 0047f9d0     DuiLib_d:DuiLib_d.dll
 0004:000009d4       __imp_?PageUp@CListUI@DuiLib@@UAEXXZ 0047f9d4     DuiLib_d:DuiLib_d.dll
 0004:000009d8       __imp_?PageDown@CListUI@DuiLib@@UAEXXZ 0047f9d8     DuiLib_d:DuiLib_d.dll
 0004:000009dc       __imp_?HomeUp@CListUI@DuiLib@@UAEXXZ 0047f9dc     DuiLib_d:DuiLib_d.dll
 0004:000009e0       __imp_?EndDown@CListUI@DuiLib@@UAEXXZ 0047f9e0     DuiLib_d:DuiLib_d.dll
 0004:000009e4       __imp_?LineLeft@CListUI@DuiLib@@UAEXXZ 0047f9e4     DuiLib_d:DuiLib_d.dll
 0004:000009e8       __imp_?LineRight@CListUI@DuiLib@@UAEXXZ 0047f9e8     DuiLib_d:DuiLib_d.dll
 0004:000009ec       __imp_?PageLeft@CListUI@DuiLib@@UAEXXZ 0047f9ec     DuiLib_d:DuiLib_d.dll
 0004:000009f0       __imp_?PageRight@CListUI@DuiLib@@UAEXXZ 0047f9f0     DuiLib_d:DuiLib_d.dll
 0004:000009f4       __imp_?HomeLeft@CListUI@DuiLib@@UAEXXZ 0047f9f4     DuiLib_d:DuiLib_d.dll
 0004:000009f8       __imp_?EndRight@CListUI@DuiLib@@UAEXXZ 0047f9f8     DuiLib_d:DuiLib_d.dll
 0004:000009fc       __imp_?EnableScrollBar@CListUI@DuiLib@@UAEX_N0@Z 0047f9fc     DuiLib_d:DuiLib_d.dll
 0004:00000a00       __imp_?GetVerticalScrollBar@CListUI@DuiLib@@UBEPAVCScrollBarUI@2@XZ 0047fa00     DuiLib_d:DuiLib_d.dll
 0004:00000a04       __imp_?GetHorizontalScrollBar@CListUI@DuiLib@@UBEPAVCScrollBarUI@2@XZ 0047fa04     DuiLib_d:DuiLib_d.dll
 0004:00000a08       __imp_?SetFloatPos@CContainerUI@DuiLib@@MAEXH@Z 0047fa08     DuiLib_d:DuiLib_d.dll
 0004:00000a0c       __imp_?ProcessScrollBar@CContainerUI@DuiLib@@MAEXUtagRECT@@HH@Z 0047fa0c     DuiLib_d:DuiLib_d.dll
 0004:00000a10       __imp_?GetItemAt@CListUI@DuiLib@@UBEPAVCControlUI@2@H@Z 0047fa10     DuiLib_d:DuiLib_d.dll
 0004:00000a14       __imp_?GetCount@CListUI@DuiLib@@UBEHXZ 0047fa14     DuiLib_d:DuiLib_d.dll
 0004:00000a18       __imp_?RemoveAt@CListUI@DuiLib@@UAE_NH@Z 0047fa18     DuiLib_d:DuiLib_d.dll
 0004:00000a1c       __imp_?RemoveAll@CListUI@DuiLib@@UAEXXZ 0047fa1c     DuiLib_d:DuiLib_d.dll
 0004:00000a20       __imp_?GetListInfo@CListUI@DuiLib@@UAEPAUtagTListInfoUI@2@XZ 0047fa20     DuiLib_d:DuiLib_d.dll
 0004:00000a24       __imp_?GetCurSel@CListUI@DuiLib@@UBEHXZ 0047fa24     DuiLib_d:DuiLib_d.dll
 0004:00000a28       __imp_?SelectItem@CListUI@DuiLib@@UAE_NH_N@Z 0047fa28     DuiLib_d:DuiLib_d.dll
 0004:00000a2c       __imp_?GetList@CListUI@DuiLib@@UBEPAVCContainerUI@2@XZ 0047fa2c     DuiLib_d:DuiLib_d.dll
 0004:00000a30       __imp_?GetTextCallback@CListUI@DuiLib@@UBEPAVIListCallbackUI@2@XZ 0047fa30     DuiLib_d:DuiLib_d.dll
 0004:00000a34       __imp_?SetTextCallback@CListUI@DuiLib@@UAEXPAVIListCallbackUI@2@@Z 0047fa34     DuiLib_d:DuiLib_d.dll
 0004:00000a38       __imp_?ExpandItem@CListUI@DuiLib@@UAE_NH_N@Z 0047fa38     DuiLib_d:DuiLib_d.dll
 0004:00000a3c       __imp_?GetExpandedItem@CListUI@DuiLib@@UBEHXZ 0047fa3c     DuiLib_d:DuiLib_d.dll
 0004:00000a40       __imp_?GetInterface@CListUI@DuiLib@@UAEPAXPBD@Z 0047fa40     DuiLib_d:DuiLib_d.dll
 0004:00000a44       __imp_?DoEvent@CListUI@DuiLib@@UAEXAAUtagTEventUI@2@@Z 0047fa44     DuiLib_d:DuiLib_d.dll
 0004:00000a48       __imp_?Add@CListUI@DuiLib@@UAE_NPAVCControlUI@2@@Z 0047fa48     DuiLib_d:DuiLib_d.dll
 0004:00000a4c       __imp_?AddAt@CListUI@DuiLib@@UAE_NPAVCControlUI@2@H@Z 0047fa4c     DuiLib_d:DuiLib_d.dll
 0004:00000a50       __imp_?GetItemIndex@CListUI@DuiLib@@UBEHPAVCControlUI@2@@Z 0047fa50     DuiLib_d:DuiLib_d.dll
 0004:00000a54       __imp_?SetItemIndex@CListUI@DuiLib@@UAE_NPAVCControlUI@2@H@Z 0047fa54     DuiLib_d:DuiLib_d.dll
 0004:00000a58       __imp_?Remove@CListUI@DuiLib@@UAE_NPAVCControlUI@2@@Z 0047fa58     DuiLib_d:DuiLib_d.dll
 0004:00000a5c       __imp_??0CSize@DuiLib@@QAE@HH@Z 0047fa5c     DuiLib_d:DuiLib_d.dll
 0004:00000a60       __imp_?SetAttribute@CListUI@DuiLib@@UAEXPBD0@Z 0047fa60     DuiLib_d:DuiLib_d.dll
 0004:00000a64       __imp_??0CPaintManagerUI@DuiLib@@QAE@XZ 0047fa64     DuiLib_d:DuiLib_d.dll
 0004:00000a68       __imp_??0CStdString@DuiLib@@QAE@XZ 0047fa68     DuiLib_d:DuiLib_d.dll
 0004:00000a6c       __imp_??0CWindowWnd@DuiLib@@QAE@XZ 0047fa6c     DuiLib_d:DuiLib_d.dll
 0004:00000a70       __imp_?GetClassStyle@CWindowWnd@DuiLib@@MBEIXZ 0047fa70     DuiLib_d:DuiLib_d.dll
 0004:00000a74       __imp_?Create@CWindowWnd@DuiLib@@QAEPAUHWND__@@PAU3@PBDKKUtagRECT@@PAUHMENU__@@@Z 0047fa74     DuiLib_d:DuiLib_d.dll
 0004:00000a78       __imp_??0CRect@DuiLib@@QAE@XZ 0047fa78     DuiLib_d:DuiLib_d.dll
 0004:00000a7c       __imp_?GetPaintWindow@CPaintManagerUI@DuiLib@@QBEPAUHWND__@@XZ 0047fa7c     DuiLib_d:DuiLib_d.dll
 0004:00000a80       __imp_?RemoveAll@CContainerUI@DuiLib@@UAEXXZ 0047fa80     DuiLib_d:DuiLib_d.dll
 0004:00000a84       __imp_?Invalidate@CListContainerElementUI@DuiLib@@QAEXXZ 0047fa84     DuiLib_d:DuiLib_d.dll
 0004:00000a88       __imp_?MessageHandler@CPaintManagerUI@DuiLib@@QAE_NIIJAAJ@Z 0047fa88     DuiLib_d:DuiLib_d.dll
 0004:00000a8c       __imp_??1CDialogBuilder@DuiLib@@QAE@XZ 0047fa8c     DuiLib_d:DuiLib_d.dll
 0004:00000a90       __imp_?GetHeight@CRect@DuiLib@@QBEHXZ 0047fa90     DuiLib_d:DuiLib_d.dll
 0004:00000a94       __imp_?GetWidth@CRect@DuiLib@@QBEHXZ 0047fa94     DuiLib_d:DuiLib_d.dll
 0004:00000a98       __imp_?GetInitSize@CPaintManagerUI@DuiLib@@QAE?AUtagSIZE@@XZ 0047fa98     DuiLib_d:DuiLib_d.dll
 0004:00000a9c       __imp_?SetInitSize@CPaintManagerUI@DuiLib@@QAEXHH@Z 0047fa9c     DuiLib_d:DuiLib_d.dll
 0004:00000aa0       __imp_?Create@CDialogBuilder@DuiLib@@QAEPAVCControlUI@2@VSTRINGorID@2@PBDPAVIDialogBuilderCallback@2@PAVCPaintManagerUI@2@PAV32@@Z 0047faa0     DuiLib_d:DuiLib_d.dll
 0004:00000aa4       __imp_?GetData@CStdString@DuiLib@@QAEPBDXZ 0047faa4     DuiLib_d:DuiLib_d.dll
 0004:00000aa8       __imp_??0CDialogBuilder@DuiLib@@QAE@XZ 0047faa8     DuiLib_d:DuiLib_d.dll
 0004:00000aac       __imp_?GetHWND@CWindowWnd@DuiLib@@QBEPAUHWND__@@XZ 0047faac     DuiLib_d:DuiLib_d.dll
 0004:00000ab0       __imp_??0CRect@DuiLib@@QAE@ABUtagRECT@@@Z 0047fab0     DuiLib_d:DuiLib_d.dll
 0004:00000ab4       __imp_?AttachDialog@CPaintManagerUI@DuiLib@@QAE_NPAVCControlUI@2@@Z 0047fab4     DuiLib_d:DuiLib_d.dll
 0004:00000ab8       __imp_?SetBorderSize@CControlUI@DuiLib@@QAEXH@Z 0047fab8     DuiLib_d:DuiLib_d.dll
 0004:00000abc       __imp_?SetBorderColor@CControlUI@DuiLib@@QAEXK@Z 0047fabc     DuiLib_d:DuiLib_d.dll
 0004:00000ac0       __imp_?SetBkColor@CControlUI@DuiLib@@QAEXK@Z 0047fac0     DuiLib_d:DuiLib_d.dll
 0004:00000ac4       __imp_?ApplyAttributeList@CControlUI@DuiLib@@QAEPAV12@PBD@Z 0047fac4     DuiLib_d:DuiLib_d.dll
 0004:00000ac8       __imp_?GetDefaultAttributeList@CPaintManagerUI@DuiLib@@QBEPBDPBD@Z 0047fac8     DuiLib_d:DuiLib_d.dll
 0004:00000acc       __imp_?UseParentResource@CPaintManagerUI@DuiLib@@QAE_NPAV12@@Z 0047facc     DuiLib_d:DuiLib_d.dll
 0004:00000ad0       __imp_?Init@CPaintManagerUI@DuiLib@@QAEXPAUHWND__@@@Z 0047fad0     DuiLib_d:DuiLib_d.dll
 0004:00000ad4       __imp_??BCWindowWnd@DuiLib@@QBEPAUHWND__@@XZ 0047fad4     DuiLib_d:DuiLib_d.dll
 0004:00000ad8       __imp_??1CListContainerElementUI@DuiLib@@UAE@XZ 0047fad8     DuiLib_d:DuiLib_d.dll
 0004:00000adc       __imp_??0CListContainerElementUI@DuiLib@@QAE@XZ 0047fadc     DuiLib_d:DuiLib_d.dll
 0004:00000ae0       __imp_?GetControlFlags@CListContainerElementUI@DuiLib@@UBEIXZ 0047fae0     DuiLib_d:DuiLib_d.dll
 0004:00000ae4       __imp_?SetPos@CContainerUI@DuiLib@@UAEXUtagRECT@@@Z 0047fae4     DuiLib_d:DuiLib_d.dll
 0004:00000ae8       __imp_?SetVisible@CListContainerElementUI@DuiLib@@UAEX_N@Z 0047fae8     DuiLib_d:DuiLib_d.dll
 0004:00000aec       __imp_?SetEnabled@CListContainerElementUI@DuiLib@@UAEX_N@Z 0047faec     DuiLib_d:DuiLib_d.dll
 0004:00000af0       __imp_?SetAttribute@CListContainerElementUI@DuiLib@@UAEXPBD0@Z 0047faf0     DuiLib_d:DuiLib_d.dll
 0004:00000af4       __imp_?DoPostPaint@CControlUI@DuiLib@@UAEXPAUHDC__@@ABUtagRECT@@@Z 0047faf4     DuiLib_d:DuiLib_d.dll
 0004:00000af8       __imp_?GetChildPadding@CContainerUI@DuiLib@@UBEHXZ 0047faf8     DuiLib_d:DuiLib_d.dll
 0004:00000afc       __imp_?SetChildPadding@CContainerUI@DuiLib@@UAEXH@Z 0047fafc     DuiLib_d:DuiLib_d.dll
 0004:00000b00       __imp_?GetScrollPos@CContainerUI@DuiLib@@UBE?AUtagSIZE@@XZ 0047fb00     DuiLib_d:DuiLib_d.dll
 0004:00000b04       __imp_?GetScrollRange@CContainerUI@DuiLib@@UBE?AUtagSIZE@@XZ 0047fb04     DuiLib_d:DuiLib_d.dll
 0004:00000b08       __imp_?SetScrollPos@CContainerUI@DuiLib@@UAEXUtagSIZE@@@Z 0047fb08     DuiLib_d:DuiLib_d.dll
 0004:00000b0c       __imp_?LineUp@CContainerUI@DuiLib@@UAEXXZ 0047fb0c     DuiLib_d:DuiLib_d.dll
 0004:00000b10       __imp_?LineDown@CContainerUI@DuiLib@@UAEXXZ 0047fb10     DuiLib_d:DuiLib_d.dll
 0004:00000b14       __imp_?PageUp@CContainerUI@DuiLib@@UAEXXZ 0047fb14     DuiLib_d:DuiLib_d.dll
 0004:00000b18       __imp_?PageDown@CContainerUI@DuiLib@@UAEXXZ 0047fb18     DuiLib_d:DuiLib_d.dll
 0004:00000b1c       __imp_?HomeUp@CContainerUI@DuiLib@@UAEXXZ 0047fb1c     DuiLib_d:DuiLib_d.dll
 0004:00000b20       __imp_?EndDown@CContainerUI@DuiLib@@UAEXXZ 0047fb20     DuiLib_d:DuiLib_d.dll
 0004:00000b24       __imp_?LineLeft@CContainerUI@DuiLib@@UAEXXZ 0047fb24     DuiLib_d:DuiLib_d.dll
 0004:00000b28       __imp_?LineRight@CContainerUI@DuiLib@@UAEXXZ 0047fb28     DuiLib_d:DuiLib_d.dll
 0004:00000b2c       __imp_?PageLeft@CContainerUI@DuiLib@@UAEXXZ 0047fb2c     DuiLib_d:DuiLib_d.dll
 0004:00000b30       __imp_?PageRight@CContainerUI@DuiLib@@UAEXXZ 0047fb30     DuiLib_d:DuiLib_d.dll
 0004:00000b34       __imp_?HomeLeft@CContainerUI@DuiLib@@UAEXXZ 0047fb34     DuiLib_d:DuiLib_d.dll
 0004:00000b38       __imp_?EndRight@CContainerUI@DuiLib@@UAEXXZ 0047fb38     DuiLib_d:DuiLib_d.dll
 0004:00000b3c       __imp_?EnableScrollBar@CContainerUI@DuiLib@@UAEX_N0@Z 0047fb3c     DuiLib_d:DuiLib_d.dll
 0004:00000b40       __imp_?GetVerticalScrollBar@CContainerUI@DuiLib@@UBEPAVCScrollBarUI@2@XZ 0047fb40     DuiLib_d:DuiLib_d.dll
 0004:00000b44       __imp_?GetHorizontalScrollBar@CContainerUI@DuiLib@@UBEPAVCScrollBarUI@2@XZ 0047fb44     DuiLib_d:DuiLib_d.dll
 0004:00000b48       __imp_?GetItemAt@CContainerUI@DuiLib@@UBEPAVCControlUI@2@H@Z 0047fb48     DuiLib_d:DuiLib_d.dll
 0004:00000b4c       __imp_?GetItemIndex@CContainerUI@DuiLib@@UBEHPAVCControlUI@2@@Z 0047fb4c     DuiLib_d:DuiLib_d.dll
 0004:00000b50       __imp_?SetItemIndex@CContainerUI@DuiLib@@UAE_NPAVCControlUI@2@H@Z 0047fb50     DuiLib_d:DuiLib_d.dll
 0004:00000b54       __imp_?GetCount@CContainerUI@DuiLib@@UBEHXZ 0047fb54     DuiLib_d:DuiLib_d.dll
 0004:00000b58       __imp_?Add@CContainerUI@DuiLib@@UAE_NPAVCControlUI@2@@Z 0047fb58     DuiLib_d:DuiLib_d.dll
 0004:00000b5c       __imp_?AddAt@CContainerUI@DuiLib@@UAE_NPAVCControlUI@2@H@Z 0047fb5c     DuiLib_d:DuiLib_d.dll
 0004:00000b60       __imp_?Remove@CContainerUI@DuiLib@@UAE_NPAVCControlUI@2@@Z 0047fb60     DuiLib_d:DuiLib_d.dll
 0004:00000b64       __imp_?RemoveAt@CContainerUI@DuiLib@@UAE_NH@Z 0047fb64     DuiLib_d:DuiLib_d.dll
 0004:00000b68       \177DuiLib_d_NULL_THUNK_DATA 0047fb68     DuiLib_d:DuiLib_d.dll
 0004:00000c4c       __imp__CreateRoundRectRgn@24 0047fc4c     gdi32:GDI32.dll
 0004:00000c50       __imp__DeleteObject@4      0047fc50     gdi32:GDI32.dll
 0004:00000c54       \177GDI32_NULL_THUNK_DATA  0047fc54     gdi32:GDI32.dll
 0004:00000c80       __imp__GetModuleFileNameA@12 0047fc80     kernel32:KERNEL32.dll
 0004:00000c84       __imp__GetSystemTimeAsFileTime@4 0047fc84     kernel32:KERNEL32.dll
 0004:00000c88       __imp__FreeEnvironmentStringsW@4 0047fc88     kernel32:KERNEL32.dll
 0004:00000c8c       __imp__GetEnvironmentStringsW@0 0047fc8c     kernel32:KERNEL32.dll
 0004:00000c90       __imp__HeapCreate@12       0047fc90     kernel32:KERNEL32.dll
 0004:00000c94       __imp__HeapDestroy@4       0047fc94     kernel32:KERNEL32.dll
 0004:00000c98       __imp__HeapFree@12         0047fc98     kernel32:KERNEL32.dll
 0004:00000c9c       __imp__HeapAlloc@12        0047fc9c     kernel32:KERNEL32.dll
 0004:00000ca0       __imp__GetProcessHeap@0    0047fca0     kernel32:KERNEL32.dll
 0004:00000ca4       __imp__VirtualQuery@12     0047fca4     kernel32:KERNEL32.dll
 0004:00000ca8       __imp__FreeLibrary@4       0047fca8     kernel32:KERNEL32.dll
 0004:00000cac       __imp__HeapReAlloc@16      0047fcac     kernel32:KERNEL32.dll
 0004:00000cb0       __imp__HeapSize@12         0047fcb0     kernel32:KERNEL32.dll
 0004:00000cb4       __imp__HeapQueryInformation@20 0047fcb4     kernel32:KERNEL32.dll
 0004:00000cb8       __imp__SetStdHandle@8      0047fcb8     kernel32:KERNEL32.dll
 0004:00000cbc       __imp__CreateFileA@28      0047fcbc     kernel32:KERNEL32.dll
 0004:00000cc0       __imp__GetStringTypeW@16   0047fcc0     kernel32:KERNEL32.dll
 0004:00000cc4       __imp__CreateFileW@28      0047fcc4     kernel32:KERNEL32.dll
 0004:00000cc8       __imp__SetEndOfFile@4      0047fcc8     kernel32:KERNEL32.dll
 0004:00000ccc       __imp__ReadFile@20         0047fccc     kernel32:KERNEL32.dll
 0004:00000cd0       __imp__GetLocaleInfoA@16   0047fcd0     kernel32:KERNEL32.dll
 0004:00000cd4       __imp__IsValidLocale@8     0047fcd4     kernel32:KERNEL32.dll
 0004:00000cd8       __imp__EnumSystemLocalesA@8 0047fcd8     kernel32:KERNEL32.dll
 0004:00000cdc       __imp__GetLocalTime@4      0047fcdc     kernel32:KERNEL32.dll
 0004:00000ce0       __imp__GetTickCount@0      0047fce0     kernel32:KERNEL32.dll
 0004:00000ce4       __imp__OutputDebugStringA@4 0047fce4     kernel32:KERNEL32.dll
 0004:00000ce8       __imp__LeaveCriticalSection@4 0047fce8     kernel32:KERNEL32.dll
 0004:00000cec       __imp__EnterCriticalSection@4 0047fcec     kernel32:KERNEL32.dll
 0004:00000cf0       __imp__DeleteCriticalSection@4 0047fcf0     kernel32:KERNEL32.dll
 0004:00000cf4       __imp__GetVersionExA@4     0047fcf4     kernel32:KERNEL32.dll
 0004:00000cf8       __imp__InitializeCriticalSection@4 0047fcf8     kernel32:KERNEL32.dll
 0004:00000cfc       __imp__InterlockedIncrement@4 0047fcfc     kernel32:KERNEL32.dll
 0004:00000d00       __imp__InterlockedDecrement@4 0047fd00     kernel32:KERNEL32.dll
 0004:00000d04       __imp__Sleep@4             0047fd04     kernel32:KERNEL32.dll
 0004:00000d08       __imp__InterlockedExchange@8 0047fd08     kernel32:KERNEL32.dll
 0004:00000d0c       __imp__RtlUnwind@16        0047fd0c     kernel32:KERNEL32.dll
 0004:00000d10       __imp__EncodePointer@4     0047fd10     kernel32:KERNEL32.dll
 0004:00000d14       __imp__DecodePointer@4     0047fd14     kernel32:KERNEL32.dll
 0004:00000d18       __imp__RaiseException@16   0047fd18     kernel32:KERNEL32.dll
 0004:00000d1c       __imp__GetModuleFileNameW@12 0047fd1c     kernel32:KERNEL32.dll
 0004:00000d20       __imp__TerminateProcess@8  0047fd20     kernel32:KERNEL32.dll
 0004:00000d24       __imp__GetCurrentProcess@0 0047fd24     kernel32:KERNEL32.dll
 0004:00000d28       __imp__UnhandledExceptionFilter@4 0047fd28     kernel32:KERNEL32.dll
 0004:00000d2c       __imp__SetUnhandledExceptionFilter@4 0047fd2c     kernel32:KERNEL32.dll
 0004:00000d30       __imp__IsDebuggerPresent@0 0047fd30     kernel32:KERNEL32.dll
 0004:00000d34       __imp__GetCommandLineA@0   0047fd34     kernel32:KERNEL32.dll
 0004:00000d38       __imp__HeapSetInformation@16 0047fd38     kernel32:KERNEL32.dll
 0004:00000d3c       __imp__GetStartupInfoW@4   0047fd3c     kernel32:KERNEL32.dll
 0004:00000d40       __imp__WideCharToMultiByte@32 0047fd40     kernel32:KERNEL32.dll
 0004:00000d44       __imp__MultiByteToWideChar@24 0047fd44     kernel32:KERNEL32.dll
 0004:00000d48       __imp__lstrlenA@4          0047fd48     kernel32:KERNEL32.dll
 0004:00000d4c       __imp__GetProcAddress@8    0047fd4c     kernel32:KERNEL32.dll
 0004:00000d50       __imp__LoadLibraryW@4      0047fd50     kernel32:KERNEL32.dll
 0004:00000d54       __imp__IsProcessorFeaturePresent@4 0047fd54     kernel32:KERNEL32.dll
 0004:00000d58       __imp__HeapValidate@12     0047fd58     kernel32:KERNEL32.dll
 0004:00000d5c       __imp__IsBadReadPtr@8      0047fd5c     kernel32:KERNEL32.dll
 0004:00000d60       __imp__GetLastError@0      0047fd60     kernel32:KERNEL32.dll
 0004:00000d64       __imp__FlushFileBuffers@4  0047fd64     kernel32:KERNEL32.dll
 0004:00000d68       __imp__WriteFile@20        0047fd68     kernel32:KERNEL32.dll
 0004:00000d6c       __imp__GetConsoleCP@0      0047fd6c     kernel32:KERNEL32.dll
 0004:00000d70       __imp__GetConsoleMode@8    0047fd70     kernel32:KERNEL32.dll
 0004:00000d74       __imp__InitializeCriticalSectionAndSpinCount@8 0047fd74     kernel32:KERNEL32.dll
 0004:00000d78       __imp__FatalAppExitA@8     0047fd78     kernel32:KERNEL32.dll
 0004:00000d7c       __imp__SetHandleCount@4    0047fd7c     kernel32:KERNEL32.dll
 0004:00000d80       __imp__GetStdHandle@4      0047fd80     kernel32:KERNEL32.dll
 0004:00000d84       __imp__GetFileType@4       0047fd84     kernel32:KERNEL32.dll
 0004:00000d88       __imp__CloseHandle@4       0047fd88     kernel32:KERNEL32.dll
 0004:00000d8c       __imp__SetFilePointer@16   0047fd8c     kernel32:KERNEL32.dll
 0004:00000d90       __imp__TlsAlloc@0          0047fd90     kernel32:KERNEL32.dll
 0004:00000d94       __imp__TlsGetValue@4       0047fd94     kernel32:KERNEL32.dll
 0004:00000d98       __imp__TlsSetValue@8       0047fd98     kernel32:KERNEL32.dll
 0004:00000d9c       __imp__GetCurrentThreadId@0 0047fd9c     kernel32:KERNEL32.dll
 0004:00000da0       __imp__TlsFree@4           0047fda0     kernel32:KERNEL32.dll
 0004:00000da4       __imp__GetModuleHandleW@4  0047fda4     kernel32:KERNEL32.dll
 0004:00000da8       __imp__SetLastError@4      0047fda8     kernel32:KERNEL32.dll
 0004:00000dac       __imp__GetCurrentThread@0  0047fdac     kernel32:KERNEL32.dll
 0004:00000db0       __imp__ExitProcess@4       0047fdb0     kernel32:KERNEL32.dll
 0004:00000db4       __imp__LCMapStringW@24     0047fdb4     kernel32:KERNEL32.dll
 0004:00000db8       __imp__GetACP@0            0047fdb8     kernel32:KERNEL32.dll
 0004:00000dbc       __imp__GetOEMCP@0          0047fdbc     kernel32:KERNEL32.dll
 0004:00000dc0       __imp__GetCPInfo@8         0047fdc0     kernel32:KERNEL32.dll
 0004:00000dc4       __imp__IsValidCodePage@4   0047fdc4     kernel32:KERNEL32.dll
 0004:00000dc8       __imp__GetLocaleInfoW@16   0047fdc8     kernel32:KERNEL32.dll
 0004:00000dcc       __imp__WriteConsoleW@20    0047fdcc     kernel32:KERNEL32.dll
 0004:00000dd0       __imp__OutputDebugStringW@4 0047fdd0     kernel32:KERNEL32.dll
 0004:00000dd4       __imp__SetConsoleCtrlHandler@8 0047fdd4     kernel32:KERNEL32.dll
 0004:00000dd8       __imp__QueryPerformanceCounter@4 0047fdd8     kernel32:KERNEL32.dll
 0004:00000ddc       __imp__GetCurrentProcessId@0 0047fddc     kernel32:KERNEL32.dll
 0004:00000de0       __imp__GetUserDefaultLCID@0 0047fde0     kernel32:KERNEL32.dll
 0004:00000de4       \177KERNEL32_NULL_THUNK_DATA 0047fde4     kernel32:KERNEL32.dll
 0004:00000e54       __imp__PostQuitMessage@4   0047fe54     user32:USER32.dll
 0004:00000e58       __imp__SetWindowRgn@12     0047fe58     user32:USER32.dll
 0004:00000e5c       __imp__ScreenToClient@8    0047fe5c     user32:USER32.dll
 0004:00000e60       __imp__IsIconic@4          0047fe60     user32:USER32.dll
 0004:00000e64       __imp__IntersectRect@12    0047fe64     user32:USER32.dll
 0004:00000e68       __imp__GetWindowLongA@8    0047fe68     user32:USER32.dll
 0004:00000e6c       __imp__SetWindowLongA@12   0047fe6c     user32:USER32.dll
 0004:00000e70       __imp__GetClientRect@8     0047fe70     user32:USER32.dll
 0004:00000e74       __imp__SetWindowPos@28     0047fe74     user32:USER32.dll
 0004:00000e78       __imp__MonitorFromWindow@8 0047fe78     user32:USER32.dll
 0004:00000e7c       __imp__GetMonitorInfoA@8   0047fe7c     user32:USER32.dll
 0004:00000e80       __imp__GetWindowRect@8     0047fe80     user32:USER32.dll
 0004:00000e84       __imp__MapWindowPoints@16  0047fe84     user32:USER32.dll
 0004:00000e88       __imp__MoveWindow@24       0047fe88     user32:USER32.dll
 0004:00000e8c       __imp__SetForegroundWindow@4 0047fe8c     user32:USER32.dll
 0004:00000e90       __imp__ShowWindow@8        0047fe90     user32:USER32.dll
 0004:00000e94       __imp__SendMessageA@16     0047fe94     user32:USER32.dll
 0004:00000e98       __imp__GetParent@4         0047fe98     user32:USER32.dll
 0004:00000e9c       __imp__ClientToScreen@8    0047fe9c     user32:USER32.dll
 0004:00000ea0       __imp__IsZoomed@4          0047fea0     user32:USER32.dll
 0004:00000ea4       \177USER32_NULL_THUNK_DATA 0047fea4     user32:USER32.dll
 0004:00000ee0       __imp__CoInitialize@4      0047fee0     ole32:ole32.dll
 0004:00000ee4       \177ole32_NULL_THUNK_DATA  0047fee4     ole32:ole32.dll

 entry point at        0001:00014950

